SF:G:\orgin_claude_code\claude-code-main\deepseek_novel_agent\crates\novel-compaction\src\message_format.rs
FN:12,_RNvNtCsmLTHnoWMSC_16novel_compaction14message_format10format_one
FN:4,_RNvNtCsmLTHnoWMSC_16novel_compaction14message_format18format_for_summary
FN:44,_RNvNtCsmLTHnoWMSC_16novel_compaction14message_format8truncate
FN:20,_RNCNCNvNtCsmLTHnoWMSC_16novel_compaction14message_format10format_one00B7_
FN:18,_RNCNvNtCsmLTHnoWMSC_16novel_compaction14message_format10format_one0B5_
FN:4,_RNvNtCs8hDVo6UoARh_16novel_compaction14message_format18format_for_summary
FN:20,_RNCNCNvNtCs8hDVo6UoARh_16novel_compaction14message_format10format_one00B7_
FN:18,_RNCNvNtCs8hDVo6UoARh_16novel_compaction14message_format10format_one0B5_
FN:62,_RNvNtNtCs8hDVo6UoARh_16novel_compaction14message_format5testss_29assistant_includes_tool_names
FN:12,_RNvNtCs8hDVo6UoARh_16novel_compaction14message_format10format_one
FN:44,_RNvNtCs8hDVo6UoARh_16novel_compaction14message_format8truncate
FNDA:0,_RNvNtCsmLTHnoWMSC_16novel_compaction14message_format10format_one
FNDA:1,_RNvNtCsmLTHnoWMSC_16novel_compaction14message_format18format_for_summary
FNDA:0,_RNvNtCsmLTHnoWMSC_16novel_compaction14message_format8truncate
FNDA:0,_RNCNCNvNtCsmLTHnoWMSC_16novel_compaction14message_format10format_one00B7_
FNDA:0,_RNCNvNtCsmLTHnoWMSC_16novel_compaction14message_format10format_one0B5_
FNDA:0,_RNvNtCs8hDVo6UoARh_16novel_compaction14message_format18format_for_summary
FNDA:1,_RNCNCNvNtCs8hDVo6UoARh_16novel_compaction14message_format10format_one00B7_
FNDA:1,_RNCNvNtCs8hDVo6UoARh_16novel_compaction14message_format10format_one0B5_
FNDA:1,_RNvNtNtCs8hDVo6UoARh_16novel_compaction14message_format5testss_29assistant_includes_tool_names
FNDA:1,_RNvNtCs8hDVo6UoARh_16novel_compaction14message_format10format_one
FNDA:0,_RNvNtCs8hDVo6UoARh_16novel_compaction14message_format8truncate
FNF:6
FNH:5
DA:4,1
DA:5,1
DA:6,1
DA:7,1
DA:8,1
DA:9,1
DA:10,1
DA:12,1
DA:13,1
DA:14,1
DA:15,1
DA:16,1
DA:17,1
DA:18,1
DA:19,1
DA:20,1
DA:21,1
DA:22,1
DA:23,1
DA:24,1
DA:25,1
DA:26,0
DA:28,1
DA:30,1
DA:31,0
DA:33,1
DA:36,0
DA:37,0
DA:38,0
DA:40,0
DA:42,1
DA:44,0
DA:45,0
DA:46,0
DA:48,0
DA:50,0
DA:51,0
DA:54,0
DA:62,1
DA:63,1
DA:64,1
DA:65,1
DA:66,1
DA:67,1
DA:68,1
DA:69,1
DA:70,1
DA:71,1
DA:72,1
DA:73,1
DA:74,1
DA:75,1
BRF:0
BRH:0
LF:54
LH:41
end_of_record
SF:G:\orgin_claude_code\claude-code-main\deepseek_novel_agent\crates\novel-compaction\src\react_cycles.rs
FN:22,_RNvNtCsmLTHnoWMSC_16novel_compaction12react_cycles16user_turn_ranges
FN:6,_RNvNtCsmLTHnoWMSC_16novel_compaction12react_cycles18is_user_turn_start
FN:50,_RNvNtCsmLTHnoWMSC_16novel_compaction12react_cycles18partition_messages
FN:26,_RNCNvNtCsmLTHnoWMSC_16novel_compaction12react_cycles16user_turn_ranges0B5_
FN:58,_RNCNvNtCsmLTHnoWMSC_16novel_compaction12react_cycles18partition_messages0B5_
FN:66,_RNCNvNtCsmLTHnoWMSC_16novel_compaction12react_cycles18partition_messagess_0B5_
FN:22,_RNvNtCs8hDVo6UoARh_16novel_compaction12react_cycles16user_turn_ranges
FN:6,_RNvNtCs8hDVo6UoARh_16novel_compaction12react_cycles18is_user_turn_start
FN:50,_RNvNtCs8hDVo6UoARh_16novel_compaction12react_cycles18partition_messages
FN:26,_RNCNvNtCs8hDVo6UoARh_16novel_compaction12react_cycles16user_turn_ranges0B5_
FN:58,_RNCNvNtCs8hDVo6UoARh_16novel_compaction12react_cycles18partition_messages0B5_
FN:66,_RNCNvNtCs8hDVo6UoARh_16novel_compaction12react_cycles18partition_messagess_0B5_
FN:101,_RNvNtNtCs8hDVo6UoARh_16novel_compaction12react_cycles5tests15assistant_tools
FN:114,_RNvNtNtCs8hDVo6UoARh_16novel_compaction12react_cycles5tests4tool
FN:93,_RNvNtNtCs8hDVo6UoARh_16novel_compaction12react_cycles5tests4user
FN:172,_RNvNtNtCs8hDVo6UoARh_16novel_compaction12react_cycles5testss_33context_refresh_not_turn_boundary
FN:124,_RNvNtNtCs8hDVo6UoARh_16novel_compaction12react_cycles5testss_33partition_keeps_last_n_user_turns
FN:148,_RNvNtNtCs8hDVo6UoARh_16novel_compaction12react_cycles5testss_36partition_skips_context_refresh_user
FNDA:1,_RNvNtCsmLTHnoWMSC_16novel_compaction12react_cycles16user_turn_ranges
FNDA:3,_RNvNtCsmLTHnoWMSC_16novel_compaction12react_cycles18is_user_turn_start
FNDA:1,_RNvNtCsmLTHnoWMSC_16novel_compaction12react_cycles18partition_messages
FNDA:3,_RNCNvNtCsmLTHnoWMSC_16novel_compaction12react_cycles16user_turn_ranges0B5_
FNDA:1,_RNCNvNtCsmLTHnoWMSC_16novel_compaction12react_cycles18partition_messages0B5_
FNDA:1,_RNCNvNtCsmLTHnoWMSC_16novel_compaction12react_cycles18partition_messagess_0B5_
FNDA:3,_RNvNtCs8hDVo6UoARh_16novel_compaction12react_cycles16user_turn_ranges
FNDA:17,_RNvNtCs8hDVo6UoARh_16novel_compaction12react_cycles18is_user_turn_start
FNDA:2,_RNvNtCs8hDVo6UoARh_16novel_compaction12react_cycles18partition_messages
FNDA:17,_RNCNvNtCs8hDVo6UoARh_16novel_compaction12react_cycles16user_turn_ranges0B5_
FNDA:2,_RNCNvNtCs8hDVo6UoARh_16novel_compaction12react_cycles18partition_messages0B5_
FNDA:2,_RNCNvNtCs8hDVo6UoARh_16novel_compaction12react_cycles18partition_messagess_0B5_
FNDA:1,_RNvNtNtCs8hDVo6UoARh_16novel_compaction12react_cycles5tests15assistant_tools
FNDA:1,_RNvNtNtCs8hDVo6UoARh_16novel_compaction12react_cycles5tests4tool
FNDA:10,_RNvNtNtCs8hDVo6UoARh_16novel_compaction12react_cycles5tests4user
FNDA:1,_RNvNtNtCs8hDVo6UoARh_16novel_compaction12react_cycles5testss_33context_refresh_not_turn_boundary
FNDA:1,_RNvNtNtCs8hDVo6UoARh_16novel_compaction12react_cycles5testss_33partition_keeps_last_n_user_turns
FNDA:1,_RNvNtNtCs8hDVo6UoARh_16novel_compaction12react_cycles5testss_36partition_skips_context_refresh_user
FNF:12
FNH:12
DA:6,20
DA:7,20
DA:8,7
DA:9,13
DA:10,13
DA:11,13
DA:12,11
DA:13,11
DA:14,11
DA:16,2
DA:17,11
DA:18,11
DA:19,20
DA:22,4
DA:23,4
DA:24,4
DA:25,4
DA:26,20
DA:27,4
DA:28,4
DA:29,4
DA:30,0
DA:31,4
DA:32,4
DA:33,11
DA:34,11
DA:35,11
DA:36,11
DA:37,4
DA:38,4
DA:50,3
DA:51,3
DA:52,0
DA:53,0
DA:54,0
DA:55,0
DA:56,0
DA:57,3
DA:58,3
DA:59,3
DA:61,0
DA:64,3
DA:65,3
DA:66,3
DA:68,1
DA:70,2
DA:72,3
DA:73,3
DA:74,1
DA:75,1
DA:76,1
DA:77,1
DA:78,1
DA:79,2
DA:80,2
DA:81,2
DA:82,2
DA:83,2
DA:84,2
DA:85,2
DA:86,3
DA:93,10
DA:94,10
DA:95,10
DA:96,10
DA:97,10
DA:98,10
DA:99,10
DA:101,1
DA:102,1
DA:103,1
DA:104,1
DA:105,1
DA:106,1
DA:107,1
DA:108,1
DA:109,1
DA:110,1
DA:111,1
DA:112,1
DA:114,1
DA:115,1
DA:116,1
DA:117,1
DA:118,1
DA:119,1
DA:120,1
DA:121,1
DA:124,1
DA:125,1
DA:126,1
DA:127,1
DA:128,1
DA:129,1
DA:130,1
DA:131,1
DA:132,1
DA:133,1
DA:134,1
DA:135,1
DA:136,1
DA:137,1
DA:138,1
DA:140,1
DA:141,1
DA:142,1
DA:143,1
DA:144,1
DA:145,1
DA:148,1
DA:149,1
DA:150,1
DA:151,1
DA:152,1
DA:153,1
DA:154,1
DA:155,1
DA:156,1
DA:157,1
DA:158,1
DA:159,1
DA:160,1
DA:161,1
DA:162,1
DA:163,1
DA:164,1
DA:166,1
DA:167,1
DA:168,1
DA:169,1
DA:172,1
DA:173,1
DA:174,1
DA:175,1
DA:176,1
DA:177,1
DA:178,1
DA:179,1
DA:180,1
DA:181,1
DA:182,1
DA:183,1
DA:184,1
DA:186,1
DA:187,1
DA:188,1
DA:189,1
BRF:0
BRH:0
LF:150
LH:138
end_of_record
SF:G:\orgin_claude_code\claude-code-main\deepseek_novel_agent\crates\novel-compaction\src\retain_policy.rs
FN:9,_RNvXNtCsmLTHnoWMSC_16novel_compaction13retain_policyNtB2_12RetainPolicyNtNtCs8icZUrvfcq9_4core7default7Default7default
FN:9,_RNvXNtCs8hDVo6UoARh_16novel_compaction13retain_policyNtB2_12RetainPolicyNtNtCs8icZUrvfcq9_4core7default7Default7default
FNDA:42,_RNvXNtCsmLTHnoWMSC_16novel_compaction13retain_policyNtB2_12RetainPolicyNtNtCs8icZUrvfcq9_4core7default7Default7default
FNDA:5,_RNvXNtCs8hDVo6UoARh_16novel_compaction13retain_policyNtB2_12RetainPolicyNtNtCs8icZUrvfcq9_4core7default7Default7default
FNF:1
FNH:1
DA:9,47
DA:10,47
DA:11,47
DA:12,47
DA:13,47
DA:14,47
DA:15,47
BRF:0
BRH:0
LF:7
LH:7
end_of_record
SF:G:\orgin_claude_code\claude-code-main\deepseek_novel_agent\crates\novel-compaction\src\session_rebuild.rs
FN:8,_RNvNtCsmLTHnoWMSC_16novel_compaction15session_rebuild18rule_based_summary
FN:45,_RNvNtCsmLTHnoWMSC_16novel_compaction15session_rebuild24rebuild_session_messages
FN:61,_RNvNtCsmLTHnoWMSC_16novel_compaction15session_rebuild28rebuild_session_under_budget
FN:17,_RNvNtCsmLTHnoWMSC_16novel_compaction15session_rebuild33wrap_context_refresh_user_message
FN:82,_RNCNvNtCsmLTHnoWMSC_16novel_compaction15session_rebuild28rebuild_session_under_budget0B5_
FN:82,_RNCNvNtCs8hDVo6UoARh_16novel_compaction15session_rebuild28rebuild_session_under_budget0B5_
FN:8,_RNvNtCs8hDVo6UoARh_16novel_compaction15session_rebuild18rule_based_summary
FN:61,_RNvNtCs8hDVo6UoARh_16novel_compaction15session_rebuild28rebuild_session_under_budget
FN:45,_RNvNtCs8hDVo6UoARh_16novel_compaction15session_rebuild24rebuild_session_messages
FN:17,_RNvNtCs8hDVo6UoARh_16novel_compaction15session_rebuild33wrap_context_refresh_user_message
FN:121,_RNvNtNtCs8hDVo6UoARh_16novel_compaction15session_rebuild5testss_43rebuild_order_system_context_refresh_retain
FN:172,_RNvNtNtCs8hDVo6UoARh_16novel_compaction15session_rebuild5testss_47rebuild_omits_skill_section_when_no_invoked_ids
FN:151,_RNvNtNtCs8hDVo6UoARh_16novel_compaction15session_rebuild5testss_51rebuild_context_refresh_includes_grouped_references
FNDA:1,_RNvNtCsmLTHnoWMSC_16novel_compaction15session_rebuild18rule_based_summary
FNDA:1,_RNvNtCsmLTHnoWMSC_16novel_compaction15session_rebuild24rebuild_session_messages
FNDA:1,_RNvNtCsmLTHnoWMSC_16novel_compaction15session_rebuild28rebuild_session_under_budget
FNDA:1,_RNvNtCsmLTHnoWMSC_16novel_compaction15session_rebuild33wrap_context_refresh_user_message
FNDA:4,_RNCNvNtCsmLTHnoWMSC_16novel_compaction15session_rebuild28rebuild_session_under_budget0B5_
FNDA:0,_RNCNvNtCs8hDVo6UoARh_16novel_compaction15session_rebuild28rebuild_session_under_budget0B5_
FNDA:0,_RNvNtCs8hDVo6UoARh_16novel_compaction15session_rebuild18rule_based_summary
FNDA:0,_RNvNtCs8hDVo6UoARh_16novel_compaction15session_rebuild28rebuild_session_under_budget
FNDA:3,_RNvNtCs8hDVo6UoARh_16novel_compaction15session_rebuild24rebuild_session_messages
FNDA:3,_RNvNtCs8hDVo6UoARh_16novel_compaction15session_rebuild33wrap_context_refresh_user_message
FNDA:1,_RNvNtNtCs8hDVo6UoARh_16novel_compaction15session_rebuild5testss_43rebuild_order_system_context_refresh_retain
FNDA:1,_RNvNtNtCs8hDVo6UoARh_16novel_compaction15session_rebuild5testss_47rebuild_omits_skill_section_when_no_invoked_ids
FNDA:1,_RNvNtNtCs8hDVo6UoARh_16novel_compaction15session_rebuild5testss_51rebuild_context_refresh_includes_grouped_references
FNF:8
FNH:8
DA:8,1
DA:9,1
DA:10,1
DA:11,1
DA:12,1
DA:13,1
DA:14,1
DA:17,4
DA:18,4
DA:19,4
DA:20,4
DA:21,4
DA:22,4
DA:23,2
DA:24,2
DA:25,4
DA:26,4
DA:27,4
DA:28,4
DA:29,4
DA:30,4
DA:31,4
DA:45,4
DA:46,4
DA:47,2
DA:49,2
DA:51,4
DA:52,4
DA:53,4
DA:54,4
DA:56,4
DA:57,4
DA:58,4
DA:61,1
DA:62,1
DA:63,1
DA:64,1
DA:65,1
DA:66,1
DA:67,1
DA:68,1
DA:69,1
DA:70,1
DA:72,1
DA:73,1
DA:74,1
DA:75,1
DA:76,1
DA:77,1
DA:78,1
DA:79,1
DA:80,1
DA:81,1
DA:82,4
DA:83,1
DA:84,1
DA:85,0
DA:86,1
DA:87,1
DA:88,0
DA:89,0
DA:90,0
DA:91,0
DA:92,0
DA:93,0
DA:94,0
DA:95,0
DA:96,0
DA:97,0
DA:98,0
DA:99,0
DA:100,0
DA:101,0
DA:102,0
DA:103,0
DA:104,0
DA:105,0
DA:106,0
DA:107,0
DA:108,0
DA:109,0
DA:110,0
DA:111,0
DA:113,1
DA:121,1
DA:122,1
DA:123,1
DA:124,1
DA:125,1
DA:126,1
DA:127,1
DA:128,1
DA:129,1
DA:130,1
DA:131,1
DA:132,1
DA:133,1
DA:134,1
DA:135,1
DA:136,1
DA:137,1
DA:138,1
DA:139,1
DA:140,1
DA:141,1
DA:142,1
DA:143,1
DA:144,1
DA:145,1
DA:146,1
DA:147,1
DA:148,1
DA:151,1
DA:152,1
DA:153,1
DA:154,1
DA:155,1
DA:156,1
DA:157,1
DA:158,1
DA:159,1
DA:160,1
DA:161,1
DA:162,1
DA:163,1
DA:164,1
DA:165,1
DA:166,1
DA:167,1
DA:168,1
DA:169,1
DA:172,1
DA:173,1
DA:174,1
DA:175,1
DA:176,1
DA:177,1
DA:178,1
DA:179,1
DA:180,1
DA:181,1
DA:182,1
DA:183,1
DA:184,1
DA:185,1
DA:186,1
DA:187,1
DA:188,1
DA:189,1
DA:190,1
DA:191,1
BRF:0
BRH:0
LF:152
LH:127
end_of_record
SF:G:\orgin_claude_code\claude-code-main\deepseek_novel_agent\crates\novel-compaction\src\strategy.rs
FN:25,_RNvMNtCsmLTHnoWMSC_16novel_compaction8strategyNtB2_18CompactionStrategy10from_model
FN:34,_RNvMNtCsmLTHnoWMSC_16novel_compaction8strategyNtB2_18CompactionStrategy8evaluate
FN:35,_RNCNvMNtCsmLTHnoWMSC_16novel_compaction8strategyNtB4_18CompactionStrategy8evaluate0B6_
FN:35,_RNCNvMNtCs8hDVo6UoARh_16novel_compaction8strategyNtB4_18CompactionStrategy8evaluate0B6_
FN:25,_RNvMNtCs8hDVo6UoARh_16novel_compaction8strategyNtB2_18CompactionStrategy10from_model
FN:34,_RNvMNtCs8hDVo6UoARh_16novel_compaction8strategyNtB2_18CompactionStrategy8evaluate
FNDA:42,_RNvMNtCsmLTHnoWMSC_16novel_compaction8strategyNtB2_18CompactionStrategy10from_model
FNDA:1,_RNvMNtCsmLTHnoWMSC_16novel_compaction8strategyNtB2_18CompactionStrategy8evaluate
FNDA:0,_RNCNvMNtCsmLTHnoWMSC_16novel_compaction8strategyNtB4_18CompactionStrategy8evaluate0B6_
FNDA:11,_RNCNvMNtCs8hDVo6UoARh_16novel_compaction8strategyNtB4_18CompactionStrategy8evaluate0B6_
FNDA:2,_RNvMNtCs8hDVo6UoARh_16novel_compaction8strategyNtB2_18CompactionStrategy10from_model
FNDA:2,_RNvMNtCs8hDVo6UoARh_16novel_compaction8strategyNtB2_18CompactionStrategy8evaluate
FNF:3
FNH:3
DA:25,44
DA:26,44
DA:27,44
DA:28,44
DA:29,44
DA:30,44
DA:31,44
DA:32,44
DA:34,3
DA:35,11
DA:36,3
DA:37,3
DA:38,1
DA:39,1
DA:40,1
DA:41,1
DA:42,1
DA:44,2
DA:46,3
BRF:0
BRH:0
LF:20
LH:20
end_of_record
SF:G:\orgin_claude_code\claude-code-main\deepseek_novel_agent\crates\novel-compaction\src\summarizer.rs
FN:10,_RNvNtCsmLTHnoWMSC_16novel_compaction10summarizer16truncate_summary
FN:5,_RNvNtCsmLTHnoWMSC_16novel_compaction10summarizer34build_summary_trailing_user_prompt
FN:39,_RNvNtNtCs8hDVo6UoARh_16novel_compaction10summarizer5testss_31truncate_summary_respects_limit
FN:29,_RNvNtNtCs8hDVo6UoARh_16novel_compaction10summarizer5testss_52trailing_prompt_has_marker_and_no_middle_placeholder
FN:10,_RNvNtCs8hDVo6UoARh_16novel_compaction10summarizer16truncate_summary
FN:5,_RNvNtCs8hDVo6UoARh_16novel_compaction10summarizer34build_summary_trailing_user_prompt
FNDA:0,_RNvNtCsmLTHnoWMSC_16novel_compaction10summarizer16truncate_summary
FNDA:0,_RNvNtCsmLTHnoWMSC_16novel_compaction10summarizer34build_summary_trailing_user_prompt
FNDA:1,_RNvNtNtCs8hDVo6UoARh_16novel_compaction10summarizer5testss_31truncate_summary_respects_limit
FNDA:1,_RNvNtNtCs8hDVo6UoARh_16novel_compaction10summarizer5testss_52trailing_prompt_has_marker_and_no_middle_placeholder
FNDA:1,_RNvNtCs8hDVo6UoARh_16novel_compaction10summarizer16truncate_summary
FNDA:1,_RNvNtCs8hDVo6UoARh_16novel_compaction10summarizer34build_summary_trailing_user_prompt
FNF:4
FNH:4
DA:5,1
DA:6,1
DA:7,1
DA:10,1
DA:11,1
DA:12,0
DA:14,1
DA:16,1
DA:17,1
DA:18,1
DA:19,1
DA:22,1
DA:29,1
DA:30,1
DA:31,1
DA:32,1
DA:33,1
DA:34,1
DA:35,1
DA:36,1
DA:39,1
DA:40,1
DA:41,1
DA:42,1
DA:43,1
BRF:0
BRH:0
LF:25
LH:24
end_of_record
SF:G:\orgin_claude_code\claude-code-main\deepseek_novel_agent\crates\novel-compaction\src\token_counter.rs
FN:5,_RNvNtCsmLTHnoWMSC_16novel_compaction13token_counter15estimate_tokens
FN:5,_RNvNtCs8hDVo6UoARh_16novel_compaction13token_counter15estimate_tokens
FNDA:4,_RNvNtCsmLTHnoWMSC_16novel_compaction13token_counter15estimate_tokens
FNDA:11,_RNvNtCs8hDVo6UoARh_16novel_compaction13token_counter15estimate_tokens
FNF:1
FNH:1
DA:5,15
DA:6,15
DA:7,0
DA:8,15
DA:10,15
DA:11,15
BRF:0
BRH:0
LF:6
LH:5
end_of_record
SF:G:\orgin_claude_code\claude-code-main\deepseek_novel_agent\crates\novel-config\src\agent_config.rs
FN:26,_RINvNtCs23nqLw1rXJR_12novel_config12agent_config21load_agent_api_configRNtNtCs1aoCESei0z2_3std4path4PathECskOvt1kg1spG_10novel_core
FN:51,_RINvNtCs23nqLw1rXJR_12novel_config12agent_config21resolve_agent_api_keyRNtNtCs1aoCESei0z2_3std4path4PathECskOvt1kg1spG_10novel_core
FN:65,_RINvNtCs23nqLw1rXJR_12novel_config12agent_config22resolve_agent_api_baseRNtNtCs1aoCESei0z2_3std4path4PathECskOvt1kg1spG_10novel_core
FN:60,_RNCINvNtCs23nqLw1rXJR_12novel_config12agent_config21resolve_agent_api_keyRNtNtCs1aoCESei0z2_3std4path4PathE0CskOvt1kg1spG_10novel_core
FN:75,_RNCINvNtCs23nqLw1rXJR_12novel_config12agent_config22resolve_agent_api_baseRNtNtCs1aoCESei0z2_3std4path4PathEs_0CskOvt1kg1spG_10novel_core
FN:26,_RINvNtCs23nqLw1rXJR_12novel_config12agent_config21load_agent_api_configRNtNtCs1aoCESei0z2_3std4path7PathBufECsdRyXZbE8rru_11novel_tools
FN:51,_RINvNtCs23nqLw1rXJR_12novel_config12agent_config21resolve_agent_api_keyRNtNtCs1aoCESei0z2_3std4path7PathBufECsdRyXZbE8rru_11novel_tools
FN:60,_RNCINvNtCs23nqLw1rXJR_12novel_config12agent_config21resolve_agent_api_keyRNtNtCs1aoCESei0z2_3std4path7PathBufE0CsdRyXZbE8rru_11novel_tools
FN:12,_RNvNtCs23nqLw1rXJR_12novel_config12agent_config16default_api_base
FN:18,_RNvXNtCs23nqLw1rXJR_12novel_config12agent_configNtB2_14AgentApiConfigNtNtCs8icZUrvfcq9_4core7default7Default7default
FN:38,_RINvNtCs23nqLw1rXJR_12novel_config12agent_config21save_agent_api_configRNtNtCs1aoCESei0z2_3std4path7PathBufECs5ts0mUYpT8u_12novel_server
FN:26,_RINvNtCs7PdLUkh5Y1e_12novel_config12agent_config21load_agent_api_configRNtNtCs1aoCESei0z2_3std4path7PathBufEB4_
FN:51,_RINvNtCs7PdLUkh5Y1e_12novel_config12agent_config21resolve_agent_api_keyRNtNtCs1aoCESei0z2_3std4path7PathBufEB4_
FN:38,_RINvNtCs7PdLUkh5Y1e_12novel_config12agent_config21save_agent_api_configRNtNtCs1aoCESei0z2_3std4path7PathBufEB4_
FN:60,_RNCINvNtCs7PdLUkh5Y1e_12novel_config12agent_config21resolve_agent_api_keyRNtNtCs1aoCESei0z2_3std4path7PathBufE0B6_
FN:65,_RINvNtCs7PdLUkh5Y1e_12novel_config12agent_config22resolve_agent_api_basepEB4_
FN:75,_RNCINvNtCs7PdLUkh5Y1e_12novel_config12agent_config22resolve_agent_api_basepEs_0B6_
FN:125,_RNvNtNtCs7PdLUkh5Y1e_12novel_config12agent_config5testss_20roundtrip_api_config
FN:102,_RNvNtNtCs7PdLUkh5Y1e_12novel_config12agent_config5testss_25resolve_api_key_from_file
FN:85,_RNvNtNtCs7PdLUkh5Y1e_12novel_config12agent_config5testss_29resolve_api_key_env_over_file
FN:118,_RNvNtNtCs7PdLUkh5Y1e_12novel_config12agent_config5testss_41resolve_api_key_missing_file_returns_none
FN:12,_RNvNtCs7PdLUkh5Y1e_12novel_config12agent_config16default_api_base
FN:18,_RNvXNtCs7PdLUkh5Y1e_12novel_config12agent_configNtB2_14AgentApiConfigNtNtCs8icZUrvfcq9_4core7default7Default7default
FN:26,_RINvNtCs23nqLw1rXJR_12novel_config12agent_config21load_agent_api_configRNtNtCs1aoCESei0z2_3std4path4PathECsgAl8xIys83E_10novel_core
FN:51,_RINvNtCs23nqLw1rXJR_12novel_config12agent_config21resolve_agent_api_keyRNtNtCs1aoCESei0z2_3std4path4PathECsgAl8xIys83E_10novel_core
FN:38,_RINvNtCs23nqLw1rXJR_12novel_config12agent_config21save_agent_api_configRNtNtCs1aoCESei0z2_3std4path7PathBufECsgAl8xIys83E_10novel_core
FN:65,_RINvNtCs23nqLw1rXJR_12novel_config12agent_config22resolve_agent_api_baseRNtNtCs1aoCESei0z2_3std4path4PathECsgAl8xIys83E_10novel_core
FN:60,_RNCINvNtCs23nqLw1rXJR_12novel_config12agent_config21resolve_agent_api_keyRNtNtCs1aoCESei0z2_3std4path4PathE0CsgAl8xIys83E_10novel_core
FN:75,_RNCINvNtCs23nqLw1rXJR_12novel_config12agent_config22resolve_agent_api_baseRNtNtCs1aoCESei0z2_3std4path4PathEs_0CsgAl8xIys83E_10novel_core
FN:38,_RINvNtCs23nqLw1rXJR_12novel_config12agent_config21save_agent_api_configRNtNtCs1aoCESei0z2_3std4path7PathBufECs4uMLwczbohT_12novel_server
FN:26,_RINvNtCs23nqLw1rXJR_12novel_config12agent_config21load_agent_api_configRNtNtCs1aoCESei0z2_3std4path7PathBufECs6KAoqn40E16_11novel_tools
FN:51,_RINvNtCs23nqLw1rXJR_12novel_config12agent_config21resolve_agent_api_keyRNtNtCs1aoCESei0z2_3std4path7PathBufECs6KAoqn40E16_11novel_tools
FN:60,_RNCINvNtCs23nqLw1rXJR_12novel_config12agent_config21resolve_agent_api_keyRNtNtCs1aoCESei0z2_3std4path7PathBufE0Cs6KAoqn40E16_11novel_tools
FNDA:16,_RINvNtCs23nqLw1rXJR_12novel_config12agent_config21load_agent_api_configRNtNtCs1aoCESei0z2_3std4path4PathECskOvt1kg1spG_10novel_core
FNDA:8,_RINvNtCs23nqLw1rXJR_12novel_config12agent_config21resolve_agent_api_keyRNtNtCs1aoCESei0z2_3std4path4PathECskOvt1kg1spG_10novel_core
FNDA:8,_RINvNtCs23nqLw1rXJR_12novel_config12agent_config22resolve_agent_api_baseRNtNtCs1aoCESei0z2_3std4path4PathECskOvt1kg1spG_10novel_core
FNDA:0,_RNCINvNtCs23nqLw1rXJR_12novel_config12agent_config21resolve_agent_api_keyRNtNtCs1aoCESei0z2_3std4path4PathE0CskOvt1kg1spG_10novel_core
FNDA:0,_RNCINvNtCs23nqLw1rXJR_12novel_config12agent_config22resolve_agent_api_baseRNtNtCs1aoCESei0z2_3std4path4PathEs_0CskOvt1kg1spG_10novel_core
FNDA:0,_RINvNtCs23nqLw1rXJR_12novel_config12agent_config21load_agent_api_configRNtNtCs1aoCESei0z2_3std4path7PathBufECsdRyXZbE8rru_11novel_tools
FNDA:0,_RINvNtCs23nqLw1rXJR_12novel_config12agent_config21resolve_agent_api_keyRNtNtCs1aoCESei0z2_3std4path7PathBufECsdRyXZbE8rru_11novel_tools
FNDA:0,_RNCINvNtCs23nqLw1rXJR_12novel_config12agent_config21resolve_agent_api_keyRNtNtCs1aoCESei0z2_3std4path7PathBufE0CsdRyXZbE8rru_11novel_tools
FNDA:19,_RNvNtCs23nqLw1rXJR_12novel_config12agent_config16default_api_base
FNDA:0,_RNvXNtCs23nqLw1rXJR_12novel_config12agent_configNtB2_14AgentApiConfigNtNtCs8icZUrvfcq9_4core7default7Default7default
FNDA:0,_RINvNtCs23nqLw1rXJR_12novel_config12agent_config21save_agent_api_configRNtNtCs1aoCESei0z2_3std4path7PathBufECs5ts0mUYpT8u_12novel_server
FNDA:3,_RINvNtCs7PdLUkh5Y1e_12novel_config12agent_config21load_agent_api_configRNtNtCs1aoCESei0z2_3std4path7PathBufEB4_
FNDA:3,_RINvNtCs7PdLUkh5Y1e_12novel_config12agent_config21resolve_agent_api_keyRNtNtCs1aoCESei0z2_3std4path7PathBufEB4_
FNDA:3,_RINvNtCs7PdLUkh5Y1e_12novel_config12agent_config21save_agent_api_configRNtNtCs1aoCESei0z2_3std4path7PathBufEB4_
FNDA:1,_RNCINvNtCs7PdLUkh5Y1e_12novel_config12agent_config21resolve_agent_api_keyRNtNtCs1aoCESei0z2_3std4path7PathBufE0B6_
FNDA:0,_RINvNtCs7PdLUkh5Y1e_12novel_config12agent_config22resolve_agent_api_basepEB4_
FNDA:0,_RNCINvNtCs7PdLUkh5Y1e_12novel_config12agent_config22resolve_agent_api_basepEs_0B6_
FNDA:1,_RNvNtNtCs7PdLUkh5Y1e_12novel_config12agent_config5testss_20roundtrip_api_config
FNDA:1,_RNvNtNtCs7PdLUkh5Y1e_12novel_config12agent_config5testss_25resolve_api_key_from_file
FNDA:1,_RNvNtNtCs7PdLUkh5Y1e_12novel_config12agent_config5testss_29resolve_api_key_env_over_file
FNDA:1,_RNvNtNtCs7PdLUkh5Y1e_12novel_config12agent_config5testss_41resolve_api_key_missing_file_returns_none
FNDA:2,_RNvNtCs7PdLUkh5Y1e_12novel_config12agent_config16default_api_base
FNDA:2,_RNvXNtCs7PdLUkh5Y1e_12novel_config12agent_configNtB2_14AgentApiConfigNtNtCs8icZUrvfcq9_4core7default7Default7default
FNDA:22,_RINvNtCs23nqLw1rXJR_12novel_config12agent_config21load_agent_api_configRNtNtCs1aoCESei0z2_3std4path4PathECsgAl8xIys83E_10novel_core
FNDA:14,_RINvNtCs23nqLw1rXJR_12novel_config12agent_config21resolve_agent_api_keyRNtNtCs1aoCESei0z2_3std4path4PathECsgAl8xIys83E_10novel_core
FNDA:3,_RINvNtCs23nqLw1rXJR_12novel_config12agent_config21save_agent_api_configRNtNtCs1aoCESei0z2_3std4path7PathBufECsgAl8xIys83E_10novel_core
FNDA:14,_RINvNtCs23nqLw1rXJR_12novel_config12agent_config22resolve_agent_api_baseRNtNtCs1aoCESei0z2_3std4path4PathECsgAl8xIys83E_10novel_core
FNDA:0,_RNCINvNtCs23nqLw1rXJR_12novel_config12agent_config21resolve_agent_api_keyRNtNtCs1aoCESei0z2_3std4path4PathE0CsgAl8xIys83E_10novel_core
FNDA:0,_RNCINvNtCs23nqLw1rXJR_12novel_config12agent_config22resolve_agent_api_baseRNtNtCs1aoCESei0z2_3std4path4PathEs_0CsgAl8xIys83E_10novel_core
FNDA:0,_RINvNtCs23nqLw1rXJR_12novel_config12agent_config21save_agent_api_configRNtNtCs1aoCESei0z2_3std4path7PathBufECs4uMLwczbohT_12novel_server
FNDA:0,_RINvNtCs23nqLw1rXJR_12novel_config12agent_config21load_agent_api_configRNtNtCs1aoCESei0z2_3std4path7PathBufECs6KAoqn40E16_11novel_tools
FNDA:0,_RINvNtCs23nqLw1rXJR_12novel_config12agent_config21resolve_agent_api_keyRNtNtCs1aoCESei0z2_3std4path7PathBufECs6KAoqn40E16_11novel_tools
FNDA:0,_RNCINvNtCs23nqLw1rXJR_12novel_config12agent_config21resolve_agent_api_keyRNtNtCs1aoCESei0z2_3std4path7PathBufE0Cs6KAoqn40E16_11novel_tools
FNF:12
FNH:11
DA:12,21
DA:14,21
DA:15,21
DA:18,2
DA:19,2
DA:20,2
DA:21,2
DA:22,2
DA:23,2
DA:26,41
DA:27,41
DA:28,41
DA:29,41
DA:30,41
DA:31,39
DA:32,2
DA:33,2
DA:34,2
DA:35,2
DA:36,41
DA:38,6
DA:39,6
DA:40,6
DA:41,6
DA:42,6
DA:43,6
DA:44,6
DA:45,0
DA:46,6
DA:47,6
DA:48,6
DA:51,25
DA:52,25
DA:53,4
DA:54,4
DA:55,0
DA:56,21
DA:57,21
DA:58,21
DA:59,21
DA:60,21
DA:61,21
DA:62,25
DA:65,22
DA:66,22
DA:67,3
DA:68,3
DA:69,0
DA:70,19
DA:71,19
DA:72,19
DA:73,19
DA:74,19
DA:75,19
DA:76,19
DA:77,22
DA:85,1
DA:86,1
DA:87,1
DA:88,1
DA:89,1
DA:90,1
DA:91,1
DA:92,1
DA:93,1
DA:95,1
DA:96,1
DA:97,1
DA:98,1
DA:99,1
DA:102,1
DA:103,1
DA:104,1
DA:105,1
DA:106,1
DA:107,1
DA:108,1
DA:109,1
DA:110,1
DA:112,1
DA:113,1
DA:114,1
DA:115,1
DA:118,1
DA:119,1
DA:120,1
DA:121,1
DA:122,1
DA:125,1
DA:126,1
DA:127,1
DA:128,1
DA:129,1
DA:130,1
DA:131,1
DA:132,1
DA:133,1
DA:134,1
DA:135,1
BRF:0
BRH:0
LF:101
LH:97
end_of_record
SF:G:\orgin_claude_code\claude-code-main\deepseek_novel_agent\crates\novel-config\src\hook.rs
FN:25,_RNvNtCs23nqLw1rXJR_12novel_config4hook15default_timeout
FN:25,_RNvNtCs7PdLUkh5Y1e_12novel_config4hook15default_timeout
FNDA:0,_RNvNtCs23nqLw1rXJR_12novel_config4hook15default_timeout
FNDA:0,_RNvNtCs7PdLUkh5Y1e_12novel_config4hook15default_timeout
FNF:1
FNH:0
DA:25,0
DA:26,0
DA:27,0
BRF:0
BRH:0
LF:3
LH:0
end_of_record
SF:G:\orgin_claude_code\claude-code-main\deepseek_novel_agent\crates\novel-config\src\lib.rs
FN:28,_RINvCs23nqLw1rXJR_12novel_config21load_project_settingsNtNtCs1aoCESei0z2_3std4path7PathBufECsklAFRHNHkVo_19boundary_conditions
FN:28,_RINvCs23nqLw1rXJR_12novel_config21load_project_settingsRNtNtCs1aoCESei0z2_3std4path7PathBufECskOvt1kg1spG_10novel_core
FN:42,_RNvMCs23nqLw1rXJR_12novel_configNtNtB2_7project15ProjectSettings19apply_env_overrides
FN:70,_RNvMCs23nqLw1rXJR_12novel_configNtNtB2_7project15ProjectSettings8validate
FN:163,_RNvXs_NtCs7PdLUkh5Y1e_12novel_config5testsNtB4_8EnvGuardNtNtNtCs8icZUrvfcq9_4core3ops4drop4Drop4drop
FN:154,_RNvMNtCs7PdLUkh5Y1e_12novel_config5testsNtB2_8EnvGuard3set
FN:141,_RNvNtCs7PdLUkh5Y1e_12novel_config5testss_31env_overrides_max_output_tokens
FN:42,_RNvMCs7PdLUkh5Y1e_12novel_configNtNtB2_7project15ProjectSettings19apply_env_overrides
FN:70,_RNvMCs7PdLUkh5Y1e_12novel_configNtNtB2_7project15ProjectSettings8validate
FN:28,_RINvCs7PdLUkh5Y1e_12novel_config21load_project_settingsRNtNtCs1aoCESei0z2_3std4path4PathEB2_
FN:28,_RINvCs7PdLUkh5Y1e_12novel_config21load_project_settingsReEB2_
FN:28,_RINvCs23nqLw1rXJR_12novel_config21load_project_settingsRNtNtCs1aoCESei0z2_3std4path7PathBufECsgAl8xIys83E_10novel_core
FNDA:1,_RINvCs23nqLw1rXJR_12novel_config21load_project_settingsNtNtCs1aoCESei0z2_3std4path7PathBufECsklAFRHNHkVo_19boundary_conditions
FNDA:9,_RINvCs23nqLw1rXJR_12novel_config21load_project_settingsRNtNtCs1aoCESei0z2_3std4path7PathBufECskOvt1kg1spG_10novel_core
FNDA:0,_RNvMCs23nqLw1rXJR_12novel_configNtNtB2_7project15ProjectSettings19apply_env_overrides
FNDA:0,_RNvMCs23nqLw1rXJR_12novel_configNtNtB2_7project15ProjectSettings8validate
FNDA:1,_RNvXs_NtCs7PdLUkh5Y1e_12novel_config5testsNtB4_8EnvGuardNtNtNtCs8icZUrvfcq9_4core3ops4drop4Drop4drop
FNDA:1,_RNvMNtCs7PdLUkh5Y1e_12novel_config5testsNtB2_8EnvGuard3set
FNDA:1,_RNvNtCs7PdLUkh5Y1e_12novel_config5testss_31env_overrides_max_output_tokens
FNDA:1,_RNvMCs7PdLUkh5Y1e_12novel_configNtNtB2_7project15ProjectSettings19apply_env_overrides
FNDA:4,_RNvMCs7PdLUkh5Y1e_12novel_configNtNtB2_7project15ProjectSettings8validate
FNDA:1,_RINvCs7PdLUkh5Y1e_12novel_config21load_project_settingsRNtNtCs1aoCESei0z2_3std4path4PathEB2_
FNDA:1,_RINvCs7PdLUkh5Y1e_12novel_config21load_project_settingsReEB2_
FNDA:32,_RINvCs23nqLw1rXJR_12novel_config21load_project_settingsRNtNtCs1aoCESei0z2_3std4path7PathBufECsgAl8xIys83E_10novel_core
FNF:6
FNH:6
DA:28,44
DA:29,44
DA:30,44
DA:31,40
DA:32,4
DA:33,4
DA:34,0
DA:35,4
DA:36,0
DA:37,0
DA:38,0
DA:39,44
DA:42,1
DA:43,1
DA:44,1
DA:45,0
DA:46,1
DA:47,1
DA:48,0
DA:49,1
DA:50,1
DA:51,0
DA:52,1
DA:53,1
DA:54,0
DA:55,0
DA:56,0
DA:57,1
DA:58,1
DA:59,1
DA:60,1
DA:61,1
DA:62,0
DA:63,1
DA:64,0
DA:65,0
DA:66,0
DA:67,1
DA:68,1
DA:70,4
DA:71,4
DA:72,0
DA:73,0
DA:74,0
DA:75,4
DA:76,4
DA:77,1
DA:78,1
DA:79,1
DA:80,3
DA:81,3
DA:82,2
DA:83,2
DA:84,2
DA:85,1
DA:86,1
DA:87,4
DA:141,1
DA:142,1
DA:143,1
DA:144,1
DA:145,1
DA:146,1
DA:154,1
DA:155,1
DA:157,1
DA:158,1
DA:159,1
DA:163,1
DA:164,1
DA:165,0
DA:166,1
DA:168,1
BRF:0
BRH:0
LF:73
LH:55
end_of_record
SF:G:\orgin_claude_code\claude-code-main\deepseek_novel_agent\crates\novel-config\src\model.rs
FN:23,_RNvNtCs23nqLw1rXJR_12novel_config5model16default_thinking
FN:28,_RNvXNtCs23nqLw1rXJR_12novel_config5modelNtB2_11ModelConfigNtNtCs8icZUrvfcq9_4core7default7Default7default
FN:23,_RNvNtCs7PdLUkh5Y1e_12novel_config5model16default_thinking
FN:28,_RNvXNtCs7PdLUkh5Y1e_12novel_config5modelNtB2_11ModelConfigNtNtCs8icZUrvfcq9_4core7default7Default7default
FNDA:0,_RNvNtCs23nqLw1rXJR_12novel_config5model16default_thinking
FNDA:44,_RNvXNtCs23nqLw1rXJR_12novel_config5modelNtB2_11ModelConfigNtNtCs8icZUrvfcq9_4core7default7Default7default
FNDA:0,_RNvNtCs7PdLUkh5Y1e_12novel_config5model16default_thinking
FNDA:5,_RNvXNtCs7PdLUkh5Y1e_12novel_config5modelNtB2_11ModelConfigNtNtCs8icZUrvfcq9_4core7default7Default7default
FNF:2
FNH:1
DA:23,0
DA:24,0
DA:25,0
DA:28,49
DA:29,49
DA:30,49
DA:31,49
DA:32,49
DA:33,49
DA:34,49
DA:35,49
DA:36,49
DA:37,49
DA:38,49
DA:39,49
BRF:0
BRH:0
LF:15
LH:12
end_of_record
SF:G:\orgin_claude_code\claude-code-main\deepseek_novel_agent\crates\novel-config\src\paths.rs
FN:32,_RNCNvNtCs23nqLw1rXJR_12novel_config5paths18resolve_agent_root0B5_
FN:80,_RNCNvNtCs23nqLw1rXJR_12novel_config5paths23ensure_work_under_works0B5_
FN:87,_RNCNvNtCs23nqLw1rXJR_12novel_config5paths23ensure_work_under_workss_0B5_
FN:39,_RINvNtCs23nqLw1rXJR_12novel_config5paths10skills_dirRNtNtCs1aoCESei0z2_3std4path7PathBufECs5ts0mUYpT8u_12novel_server
FN:43,_RINvNtCs23nqLw1rXJR_12novel_config5paths13templates_dirRNtNtCs1aoCESei0z2_3std4path7PathBufECs5ts0mUYpT8u_12novel_server
FN:47,_RINvNtCs23nqLw1rXJR_12novel_config5paths17global_config_dirRNtNtCs1aoCESei0z2_3std4path7PathBufECs5ts0mUYpT8u_12novel_server
FN:51,_RINvNtCs23nqLw1rXJR_12novel_config5paths22global_api_config_pathRNtNtCs1aoCESei0z2_3std4path7PathBufECs5ts0mUYpT8u_12novel_server
FN:55,_RINvNtCs23nqLw1rXJR_12novel_config5paths9work_pathRNtNtCs1aoCESei0z2_3std4path7PathBufECs5ts0mUYpT8u_12novel_server
FN:35,_RINvNtCs23nqLw1rXJR_12novel_config5paths9works_dirRNtNtCs1aoCESei0z2_3std4path7PathBufECs5ts0mUYpT8u_12novel_server
FN:11,_RNvNtCs23nqLw1rXJR_12novel_config5paths18resolve_agent_root
FN:61,_RNvNtCs23nqLw1rXJR_12novel_config5paths18validate_work_name
FN:77,_RNvNtCs23nqLw1rXJR_12novel_config5paths23ensure_work_under_works
FN:55,_RINvNtCs7PdLUkh5Y1e_12novel_config5paths9work_pathRNtNtCs1aoCESei0z2_3std4path4PathEB4_
FN:35,_RINvNtCs7PdLUkh5Y1e_12novel_config5paths9works_dirRNtNtCs1aoCESei0z2_3std4path4PathEB4_
FN:32,_RNCNvNtCs7PdLUkh5Y1e_12novel_config5paths18resolve_agent_root0B5_
FN:80,_RNCNvNtCs7PdLUkh5Y1e_12novel_config5paths23ensure_work_under_works0B5_
FN:87,_RNCNvNtCs7PdLUkh5Y1e_12novel_config5paths23ensure_work_under_workss_0B5_
FN:118,_RNvNtNtCs7PdLUkh5Y1e_12novel_config5paths5testss_21work_path_under_works
FN:143,_RNvNtNtCs7PdLUkh5Y1e_12novel_config5paths5testss_35resolve_agent_root_finds_skills_dir
FN:125,_RNvNtNtCs7PdLUkh5Y1e_12novel_config5paths5testss_37ensure_work_under_works_accepts_child
FN:111,_RNvNtNtCs7PdLUkh5Y1e_12novel_config5paths5testss_37validate_work_name_rejects_separators
FN:133,_RNvNtNtCs7PdLUkh5Y1e_12novel_config5paths5testss_38ensure_work_under_works_rejects_escape
FN:39,_RINvNtCs7PdLUkh5Y1e_12novel_config5paths10skills_dirpEB4_
FN:43,_RINvNtCs7PdLUkh5Y1e_12novel_config5paths13templates_dirpEB4_
FN:47,_RINvNtCs7PdLUkh5Y1e_12novel_config5paths17global_config_dirpEB4_
FN:51,_RINvNtCs7PdLUkh5Y1e_12novel_config5paths22global_api_config_pathpEB4_
FN:11,_RNvNtCs7PdLUkh5Y1e_12novel_config5paths18resolve_agent_root
FN:61,_RNvNtCs7PdLUkh5Y1e_12novel_config5paths18validate_work_name
FN:77,_RNvNtCs7PdLUkh5Y1e_12novel_config5paths23ensure_work_under_works
FN:39,_RINvNtCs23nqLw1rXJR_12novel_config5paths10skills_dirRNtNtCs1aoCESei0z2_3std4path7PathBufECs4uMLwczbohT_12novel_server
FN:43,_RINvNtCs23nqLw1rXJR_12novel_config5paths13templates_dirRNtNtCs1aoCESei0z2_3std4path7PathBufECs4uMLwczbohT_12novel_server
FN:47,_RINvNtCs23nqLw1rXJR_12novel_config5paths17global_config_dirRNtNtCs1aoCESei0z2_3std4path7PathBufECs4uMLwczbohT_12novel_server
FN:51,_RINvNtCs23nqLw1rXJR_12novel_config5paths22global_api_config_pathRNtNtCs1aoCESei0z2_3std4path7PathBufECs4uMLwczbohT_12novel_server
FN:55,_RINvNtCs23nqLw1rXJR_12novel_config5paths9work_pathRNtNtCs1aoCESei0z2_3std4path7PathBufECs4uMLwczbohT_12novel_server
FN:35,_RINvNtCs23nqLw1rXJR_12novel_config5paths9works_dirRNtNtCs1aoCESei0z2_3std4path7PathBufECs4uMLwczbohT_12novel_server
FNDA:0,_RNCNvNtCs23nqLw1rXJR_12novel_config5paths18resolve_agent_root0B5_
FNDA:0,_RNCNvNtCs23nqLw1rXJR_12novel_config5paths23ensure_work_under_works0B5_
FNDA:0,_RNCNvNtCs23nqLw1rXJR_12novel_config5paths23ensure_work_under_workss_0B5_
FNDA:0,_RINvNtCs23nqLw1rXJR_12novel_config5paths10skills_dirRNtNtCs1aoCESei0z2_3std4path7PathBufECs5ts0mUYpT8u_12novel_server
FNDA:0,_RINvNtCs23nqLw1rXJR_12novel_config5paths13templates_dirRNtNtCs1aoCESei0z2_3std4path7PathBufECs5ts0mUYpT8u_12novel_server
FNDA:0,_RINvNtCs23nqLw1rXJR_12novel_config5paths17global_config_dirRNtNtCs1aoCESei0z2_3std4path7PathBufECs5ts0mUYpT8u_12novel_server
FNDA:0,_RINvNtCs23nqLw1rXJR_12novel_config5paths22global_api_config_pathRNtNtCs1aoCESei0z2_3std4path7PathBufECs5ts0mUYpT8u_12novel_server
FNDA:0,_RINvNtCs23nqLw1rXJR_12novel_config5paths9work_pathRNtNtCs1aoCESei0z2_3std4path7PathBufECs5ts0mUYpT8u_12novel_server
FNDA:0,_RINvNtCs23nqLw1rXJR_12novel_config5paths9works_dirRNtNtCs1aoCESei0z2_3std4path7PathBufECs5ts0mUYpT8u_12novel_server
FNDA:0,_RNvNtCs23nqLw1rXJR_12novel_config5paths18resolve_agent_root
FNDA:0,_RNvNtCs23nqLw1rXJR_12novel_config5paths18validate_work_name
FNDA:0,_RNvNtCs23nqLw1rXJR_12novel_config5paths23ensure_work_under_works
FNDA:1,_RINvNtCs7PdLUkh5Y1e_12novel_config5paths9work_pathRNtNtCs1aoCESei0z2_3std4path4PathEB4_
FNDA:1,_RINvNtCs7PdLUkh5Y1e_12novel_config5paths9works_dirRNtNtCs1aoCESei0z2_3std4path4PathEB4_
FNDA:0,_RNCNvNtCs7PdLUkh5Y1e_12novel_config5paths18resolve_agent_root0B5_
FNDA:0,_RNCNvNtCs7PdLUkh5Y1e_12novel_config5paths23ensure_work_under_works0B5_
FNDA:0,_RNCNvNtCs7PdLUkh5Y1e_12novel_config5paths23ensure_work_under_workss_0B5_
FNDA:1,_RNvNtNtCs7PdLUkh5Y1e_12novel_config5paths5testss_21work_path_under_works
FNDA:1,_RNvNtNtCs7PdLUkh5Y1e_12novel_config5paths5testss_35resolve_agent_root_finds_skills_dir
FNDA:1,_RNvNtNtCs7PdLUkh5Y1e_12novel_config5paths5testss_37ensure_work_under_works_accepts_child
FNDA:1,_RNvNtNtCs7PdLUkh5Y1e_12novel_config5paths5testss_37validate_work_name_rejects_separators
FNDA:1,_RNvNtNtCs7PdLUkh5Y1e_12novel_config5paths5testss_38ensure_work_under_works_rejects_escape
FNDA:0,_RINvNtCs7PdLUkh5Y1e_12novel_config5paths10skills_dirpEB4_
FNDA:0,_RINvNtCs7PdLUkh5Y1e_12novel_config5paths13templates_dirpEB4_
FNDA:0,_RINvNtCs7PdLUkh5Y1e_12novel_config5paths17global_config_dirpEB4_
FNDA:0,_RINvNtCs7PdLUkh5Y1e_12novel_config5paths22global_api_config_pathpEB4_
FNDA:1,_RNvNtCs7PdLUkh5Y1e_12novel_config5paths18resolve_agent_root
FNDA:4,_RNvNtCs7PdLUkh5Y1e_12novel_config5paths18validate_work_name
FNDA:2,_RNvNtCs7PdLUkh5Y1e_12novel_config5paths23ensure_work_under_works
FNDA:1,_RINvNtCs23nqLw1rXJR_12novel_config5paths10skills_dirRNtNtCs1aoCESei0z2_3std4path7PathBufECs4uMLwczbohT_12novel_server
FNDA:0,_RINvNtCs23nqLw1rXJR_12novel_config5paths13templates_dirRNtNtCs1aoCESei0z2_3std4path7PathBufECs4uMLwczbohT_12novel_server
FNDA:1,_RINvNtCs23nqLw1rXJR_12novel_config5paths17global_config_dirRNtNtCs1aoCESei0z2_3std4path7PathBufECs4uMLwczbohT_12novel_server
FNDA:1,_RINvNtCs23nqLw1rXJR_12novel_config5paths22global_api_config_pathRNtNtCs1aoCESei0z2_3std4path7PathBufECs4uMLwczbohT_12novel_server
FNDA:0,_RINvNtCs23nqLw1rXJR_12novel_config5paths9work_pathRNtNtCs1aoCESei0z2_3std4path7PathBufECs4uMLwczbohT_12novel_server
FNDA:2,_RINvNtCs23nqLw1rXJR_12novel_config5paths9works_dirRNtNtCs1aoCESei0z2_3std4path7PathBufECs4uMLwczbohT_12novel_server
FNF:17
FNH:13
DA:11,1
DA:12,1
DA:13,1
DA:14,1
DA:15,1
DA:16,1
DA:17,0
DA:18,1
DA:19,1
DA:20,1
DA:21,1
DA:22,1
DA:24,5
DA:25,1
DA:26,4
DA:27,4
DA:28,0
DA:29,4
DA:32,0
DA:33,1
DA:35,3
DA:36,3
DA:37,3
DA:39,1
DA:40,1
DA:41,1
DA:43,0
DA:44,0
DA:45,0
DA:47,1
DA:48,1
DA:49,1
DA:51,1
DA:52,1
DA:53,1
DA:55,1
DA:56,1
DA:57,1
DA:58,1
DA:61,4
DA:62,4
DA:63,4
DA:64,0
DA:65,0
DA:66,0
DA:67,4
DA:68,4
DA:69,2
DA:70,2
DA:71,2
DA:72,2
DA:73,2
DA:74,4
DA:77,2
DA:78,2
DA:79,2
DA:80,2
DA:81,2
DA:82,2
DA:83,0
DA:84,0
DA:85,0
DA:86,0
DA:87,0
DA:90,0
DA:93,0
DA:95,2
DA:96,1
DA:97,1
DA:98,1
DA:99,1
DA:100,1
DA:101,1
DA:102,1
DA:103,2
DA:111,1
DA:112,1
DA:113,1
DA:114,1
DA:115,1
DA:118,1
DA:119,1
DA:120,1
DA:121,1
DA:122,1
DA:125,1
DA:126,1
DA:127,1
DA:128,1
DA:129,1
DA:130,1
DA:133,1
DA:134,1
DA:135,1
DA:136,1
DA:137,1
DA:138,1
DA:139,1
DA:140,1
DA:143,1
DA:144,1
DA:145,1
DA:146,1
DA:147,1
DA:148,1
DA:149,1
DA:150,1
DA:151,1
DA:152,1
DA:153,1
BRF:0
BRH:0
LF:113
LH:94
end_of_record
SF:G:\orgin_claude_code\claude-code-main\deepseek_novel_agent\crates\novel-config\src\project.rs
FN:28,_RNvNtCs23nqLw1rXJR_12novel_config7project12default_lang
FN:56,_RNvNtCs23nqLw1rXJR_12novel_config7project28default_max_tool_concurrency
FN:42,_RNvXNtCs23nqLw1rXJR_12novel_config7projectNtB2_17PermissionsConfigNtNtCs8icZUrvfcq9_4core7default7Default7default
FN:68,_RNvXs_NtCs23nqLw1rXJR_12novel_config7projectNtB4_11AgentConfigNtNtCs8icZUrvfcq9_4core7default7Default7default
FN:28,_RNvNtCs7PdLUkh5Y1e_12novel_config7project12default_lang
FN:56,_RNvNtCs7PdLUkh5Y1e_12novel_config7project28default_max_tool_concurrency
FN:42,_RNvXNtCs7PdLUkh5Y1e_12novel_config7projectNtB2_17PermissionsConfigNtNtCs8icZUrvfcq9_4core7default7Default7default
FN:68,_RNvXs_NtCs7PdLUkh5Y1e_12novel_config7projectNtB4_11AgentConfigNtNtCs8icZUrvfcq9_4core7default7Default7default
FNDA:0,_RNvNtCs23nqLw1rXJR_12novel_config7project12default_lang
FNDA:42,_RNvNtCs23nqLw1rXJR_12novel_config7project28default_max_tool_concurrency
FNDA:41,_RNvXNtCs23nqLw1rXJR_12novel_config7projectNtB2_17PermissionsConfigNtNtCs8icZUrvfcq9_4core7default7Default7default
FNDA:42,_RNvXs_NtCs23nqLw1rXJR_12novel_config7projectNtB4_11AgentConfigNtNtCs8icZUrvfcq9_4core7default7Default7default
FNDA:0,_RNvNtCs7PdLUkh5Y1e_12novel_config7project12default_lang
FNDA:5,_RNvNtCs7PdLUkh5Y1e_12novel_config7project28default_max_tool_concurrency
FNDA:5,_RNvXNtCs7PdLUkh5Y1e_12novel_config7projectNtB2_17PermissionsConfigNtNtCs8icZUrvfcq9_4core7default7Default7default
FNDA:5,_RNvXs_NtCs7PdLUkh5Y1e_12novel_config7projectNtB4_11AgentConfigNtNtCs8icZUrvfcq9_4core7default7Default7default
FNF:4
FNH:3
DA:28,0
DA:29,0
DA:30,0
DA:42,46
DA:43,46
DA:44,46
DA:45,46
DA:46,46
DA:47,46
DA:48,46
DA:49,46
DA:50,46
DA:51,46
DA:52,46
DA:53,46
DA:56,47
DA:57,47
DA:58,47
DA:68,47
DA:69,47
DA:70,47
DA:71,47
DA:72,47
DA:73,47
BRF:0
BRH:0
LF:24
LH:21
end_of_record
SF:G:\orgin_claude_code\claude-code-main\deepseek_novel_agent\crates\novel-core\src\agent.rs
FN:32,_RNvMs_NtCskOvt1kg1spG_10novel_core5agentNtB4_9AgentType10definition
FN:95,_RNvMs_NtCskOvt1kg1spG_10novel_core5agentNtB4_9AgentType11is_forkable
FN:99,_RNvMs_NtCskOvt1kg1spG_10novel_core5agentNtB4_9AgentType15max_react_loops
FN:91,_RNvMs_NtCskOvt1kg1spG_10novel_core5agentNtB4_9AgentType18all_forkable_names
FN:104,_RNvMs_NtCskOvt1kg1spG_10novel_core5agentNtB4_9AgentType19max_react_loops_for
FN:123,_RNvMs_NtCskOvt1kg1spG_10novel_core5agentNtB4_9AgentType21union_fork_tool_names
FN:111,_RNvMs_NtCskOvt1kg1spG_10novel_core5agentNtB4_9AgentType5parse
FN:142,_RNvNtCskOvt1kg1spG_10novel_core5agent23merge_tool_always_allow
FN:16,_RNvXNtCskOvt1kg1spG_10novel_core5agentNtB2_9AgentTypeNtNtCs8icZUrvfcq9_4core3fmt7Display3fmt
FN:175,_RNvNtNtCsgAl8xIys83E_10novel_core5agent5testss_29max_react_loops_from_settings
FN:200,_RNvNtNtCsgAl8xIys83E_10novel_core5agent5testss_33removed_agent_types_not_parseable
FN:184,_RNvNtNtCsgAl8xIys83E_10novel_core5agent5testss_34general_purpose_has_write_not_fork
FN:167,_RNvNtNtCsgAl8xIys83E_10novel_core5agent5testss_35chapter_craft_analyzer_is_read_only
FN:216,_RNvNtNtCsgAl8xIys83E_10novel_core5agent5testss_39merge_tool_always_allow_adds_fork_tools
FN:192,_RNvNtNtCsgAl8xIys83E_10novel_core5agent5testss_40forkable_names_include_knowledge_auditor
FN:159,_RNvNtNtCsgAl8xIys83E_10novel_core5agent5testss_45knowledge_auditor_has_tracking_query_not_edit
FN:208,_RNvNtNtCsgAl8xIys83E_10novel_core5agent5testss_46union_fork_tool_names_includes_all_fork_agents
FN:32,_RNvMs_NtCsgAl8xIys83E_10novel_core5agentNtB4_9AgentType10definition
FN:95,_RNvMs_NtCsgAl8xIys83E_10novel_core5agentNtB4_9AgentType11is_forkable
FN:99,_RNvMs_NtCsgAl8xIys83E_10novel_core5agentNtB4_9AgentType15max_react_loops
FN:91,_RNvMs_NtCsgAl8xIys83E_10novel_core5agentNtB4_9AgentType18all_forkable_names
FN:104,_RNvMs_NtCsgAl8xIys83E_10novel_core5agentNtB4_9AgentType19max_react_loops_for
FN:123,_RNvMs_NtCsgAl8xIys83E_10novel_core5agentNtB4_9AgentType21union_fork_tool_names
FN:111,_RNvMs_NtCsgAl8xIys83E_10novel_core5agentNtB4_9AgentType5parse
FN:142,_RNvNtCsgAl8xIys83E_10novel_core5agent23merge_tool_always_allow
FN:16,_RNvXNtCsgAl8xIys83E_10novel_core5agentNtB2_9AgentTypeNtNtCs8icZUrvfcq9_4core3fmt7Display3fmt
FNDA:5,_RNvMs_NtCskOvt1kg1spG_10novel_core5agentNtB4_9AgentType10definition
FNDA:0,_RNvMs_NtCskOvt1kg1spG_10novel_core5agentNtB4_9AgentType11is_forkable
FNDA:1,_RNvMs_NtCskOvt1kg1spG_10novel_core5agentNtB4_9AgentType15max_react_loops
FNDA:0,_RNvMs_NtCskOvt1kg1spG_10novel_core5agentNtB4_9AgentType18all_forkable_names
FNDA:4,_RNvMs_NtCskOvt1kg1spG_10novel_core5agentNtB4_9AgentType19max_react_loops_for
FNDA:0,_RNvMs_NtCskOvt1kg1spG_10novel_core5agentNtB4_9AgentType21union_fork_tool_names
FNDA:2,_RNvMs_NtCskOvt1kg1spG_10novel_core5agentNtB4_9AgentType5parse
FNDA:0,_RNvNtCskOvt1kg1spG_10novel_core5agent23merge_tool_always_allow
FNDA:0,_RNvXNtCskOvt1kg1spG_10novel_core5agentNtB2_9AgentTypeNtNtCs8icZUrvfcq9_4core3fmt7Display3fmt
FNDA:1,_RNvNtNtCsgAl8xIys83E_10novel_core5agent5testss_29max_react_loops_from_settings
FNDA:1,_RNvNtNtCsgAl8xIys83E_10novel_core5agent5testss_33removed_agent_types_not_parseable
FNDA:1,_RNvNtNtCsgAl8xIys83E_10novel_core5agent5testss_34general_purpose_has_write_not_fork
FNDA:1,_RNvNtNtCsgAl8xIys83E_10novel_core5agent5testss_35chapter_craft_analyzer_is_read_only
FNDA:1,_RNvNtNtCsgAl8xIys83E_10novel_core5agent5testss_39merge_tool_always_allow_adds_fork_tools
FNDA:1,_RNvNtNtCsgAl8xIys83E_10novel_core5agent5testss_40forkable_names_include_knowledge_auditor
FNDA:1,_RNvNtNtCsgAl8xIys83E_10novel_core5agent5testss_45knowledge_auditor_has_tracking_query_not_edit
FNDA:1,_RNvNtNtCsgAl8xIys83E_10novel_core5agent5testss_46union_fork_tool_names_includes_all_fork_agents
FNDA:286,_RNvMs_NtCsgAl8xIys83E_10novel_core5agentNtB4_9AgentType10definition
FNDA:2,_RNvMs_NtCsgAl8xIys83E_10novel_core5agentNtB4_9AgentType11is_forkable
FNDA:1,_RNvMs_NtCsgAl8xIys83E_10novel_core5agentNtB4_9AgentType15max_react_loops
FNDA:2,_RNvMs_NtCsgAl8xIys83E_10novel_core5agentNtB4_9AgentType18all_forkable_names
FNDA:8,_RNvMs_NtCsgAl8xIys83E_10novel_core5agentNtB4_9AgentType19max_react_loops_for
FNDA:90,_RNvMs_NtCsgAl8xIys83E_10novel_core5agentNtB4_9AgentType21union_fork_tool_names
FNDA:10,_RNvMs_NtCsgAl8xIys83E_10novel_core5agentNtB4_9AgentType5parse
FNDA:89,_RNvNtCsgAl8xIys83E_10novel_core5agent23merge_tool_always_allow
FNDA:9,_RNvXNtCsgAl8xIys83E_10novel_core5agentNtB2_9AgentTypeNtNtCs8icZUrvfcq9_4core3fmt7Display3fmt
FNF:17
FNH:17
DA:16,9
DA:17,9
DA:18,9
DA:32,291
DA:33,291
DA:34,104
DA:35,104
DA:36,104
DA:37,104
DA:38,104
DA:39,104
DA:40,104
DA:41,104
DA:42,104
DA:43,104
DA:44,104
DA:45,104
DA:46,104
DA:47,104
DA:48,104
DA:49,104
DA:50,104
DA:51,93
DA:52,93
DA:53,93
DA:54,93
DA:55,93
DA:56,93
DA:57,93
DA:58,93
DA:59,93
DA:60,93
DA:61,93
DA:62,93
DA:63,93
DA:64,93
DA:65,93
DA:66,94
DA:67,94
DA:68,94
DA:69,94
DA:70,94
DA:71,94
DA:72,94
DA:73,94
DA:74,94
DA:75,94
DA:76,94
DA:77,94
DA:78,94
DA:79,94
DA:80,94
DA:81,94
DA:82,94
DA:83,94
DA:84,94
DA:85,94
DA:86,94
DA:87,94
DA:89,291
DA:91,2
DA:92,2
DA:93,2
DA:95,2
DA:96,2
DA:97,2
DA:99,2
DA:100,2
DA:101,2
DA:104,12
DA:105,12
DA:106,10
DA:107,2
DA:109,12
DA:111,12
DA:112,12
DA:113,12
DA:114,8
DA:115,2
DA:117,6
DA:118,4
DA:120,12
DA:123,90
DA:125,90
DA:126,270
DA:127,90
DA:128,90
DA:129,90
DA:130,90
DA:131,2340
DA:132,2340
DA:133,2340
DA:135,90
DA:136,90
DA:137,90
DA:138,90
DA:142,89
DA:144,89
DA:145,1424
DA:146,1424
DA:147,1424
DA:148,89
DA:149,89
DA:150,89
DA:151,89
DA:159,1
DA:160,1
DA:161,1
DA:162,1
DA:163,1
DA:164,1
DA:167,1
DA:168,1
DA:169,1
DA:170,1
DA:171,1
DA:172,1
DA:175,1
DA:176,1
DA:177,1
DA:178,1
DA:179,1
DA:180,1
DA:181,1
DA:184,1
DA:185,1
DA:186,1
DA:187,1
DA:188,1
DA:189,1
DA:192,1
DA:193,1
DA:194,1
DA:195,1
DA:196,1
DA:197,1
DA:200,1
DA:201,1
DA:202,1
DA:203,1
DA:204,1
DA:205,1
DA:208,1
DA:209,1
DA:210,1
DA:211,1
DA:212,1
DA:213,1
DA:216,1
DA:217,1
DA:218,1
DA:219,1
DA:220,1
BRF:0
BRH:0
LF:153
LH:153
end_of_record
SF:G:\orgin_claude_code\claude-code-main\deepseek_novel_agent\crates\novel-core\src\context.rs
FN:16,_RNvMNtCskOvt1kg1spG_10novel_core7contextNtB2_14ContextManager11window_size
FN:24,_RNvMNtCskOvt1kg1spG_10novel_core7contextNtB2_14ContextManager12check_budget
FN:10,_RNvMNtCskOvt1kg1spG_10novel_core7contextNtB2_14ContextManager3new
FN:20,_RNvMNtCskOvt1kg1spG_10novel_core7contextNtB2_14ContextManager9threshold
FN:34,_RNvNtNtCsgAl8xIys83E_10novel_core7context5testss_30context_manager_no_panic_empty
FN:16,_RNvMNtCsgAl8xIys83E_10novel_core7contextNtB2_14ContextManager11window_size
FN:24,_RNvMNtCsgAl8xIys83E_10novel_core7contextNtB2_14ContextManager12check_budget
FN:10,_RNvMNtCsgAl8xIys83E_10novel_core7contextNtB2_14ContextManager3new
FN:20,_RNvMNtCsgAl8xIys83E_10novel_core7contextNtB2_14ContextManager9threshold
FNDA:8,_RNvMNtCskOvt1kg1spG_10novel_core7contextNtB2_14ContextManager11window_size
FNDA:0,_RNvMNtCskOvt1kg1spG_10novel_core7contextNtB2_14ContextManager12check_budget
FNDA:9,_RNvMNtCskOvt1kg1spG_10novel_core7contextNtB2_14ContextManager3new
FNDA:8,_RNvMNtCskOvt1kg1spG_10novel_core7contextNtB2_14ContextManager9threshold
FNDA:1,_RNvNtNtCsgAl8xIys83E_10novel_core7context5testss_30context_manager_no_panic_empty
FNDA:89,_RNvMNtCsgAl8xIys83E_10novel_core7contextNtB2_14ContextManager11window_size
FNDA:1,_RNvMNtCsgAl8xIys83E_10novel_core7contextNtB2_14ContextManager12check_budget
FNDA:33,_RNvMNtCsgAl8xIys83E_10novel_core7contextNtB2_14ContextManager3new
FNDA:88,_RNvMNtCsgAl8xIys83E_10novel_core7contextNtB2_14ContextManager9threshold
FNF:5
FNH:5
DA:10,42
DA:11,42
DA:12,42
DA:13,42
DA:14,42
DA:16,97
DA:17,97
DA:18,97
DA:20,96
DA:21,96
DA:22,96
DA:24,1
DA:25,1
DA:26,1
DA:34,1
DA:35,1
DA:36,1
DA:37,1
BRF:0
BRH:0
LF:18
LH:18
end_of_record
SF:G:\orgin_claude_code\claude-code-main\deepseek_novel_agent\crates\novel-core\src\context_ext.rs
FN:5,_RNvMNtCskOvt1kg1spG_10novel_core11context_extNtNtB4_7context14ContextManager13retain_policy
FN:9,_RNvMNtCskOvt1kg1spG_10novel_core11context_extNtNtB4_7context14ContextManager8strategy
FN:5,_RNvMNtCsgAl8xIys83E_10novel_core11context_extNtNtB4_7context14ContextManager13retain_policy
FN:9,_RNvMNtCsgAl8xIys83E_10novel_core11context_extNtNtB4_7context14ContextManager8strategy
FNDA:0,_RNvMNtCskOvt1kg1spG_10novel_core11context_extNtNtB4_7context14ContextManager13retain_policy
FNDA:0,_RNvMNtCskOvt1kg1spG_10novel_core11context_extNtNtB4_7context14ContextManager8strategy
FNDA:1,_RNvMNtCsgAl8xIys83E_10novel_core11context_extNtNtB4_7context14ContextManager13retain_policy
FNDA:1,_RNvMNtCsgAl8xIys83E_10novel_core11context_extNtNtB4_7context14ContextManager8strategy
FNF:2
FNH:2
DA:5,1
DA:6,1
DA:7,1
DA:9,1
DA:10,1
DA:11,1
BRF:0
BRH:0
LF:6
LH:6
end_of_record
SF:G:\orgin_claude_code\claude-code-main\deepseek_novel_agent\crates\novel-core\src\dynamic_context.rs
FN:89,_RNvNtCskOvt1kg1spG_10novel_core15dynamic_context11load_memory
FN:116,_RNvNtCskOvt1kg1spG_10novel_core15dynamic_context12truncate_str
FN:190,_RNvNtCskOvt1kg1spG_10novel_core15dynamic_context13load_progress
FN:392,_RNvNtCskOvt1kg1spG_10novel_core15dynamic_context15load_skill_body
FN:398,_RNvNtCskOvt1kg1spG_10novel_core15dynamic_context16dedupe_skill_ids
FN:484,_RNvNtCskOvt1kg1spG_10novel_core15dynamic_context17resolve_skill_dir
FN:376,_RNvNtCskOvt1kg1spG_10novel_core15dynamic_context18resolve_skill_path
FN:129,_RNvNtCskOvt1kg1spG_10novel_core15dynamic_context19count_chapter_files
FN:265,_RNvNtCskOvt1kg1spG_10novel_core15dynamic_context21build_dynamic_context
FN:144,_RNvNtCskOvt1kg1spG_10novel_core15dynamic_context21outline_chapter_count
FN:218,_RNvNtCskOvt1kg1spG_10novel_core15dynamic_context22current_structure_unit
FN:419,_RNvNtCskOvt1kg1spG_10novel_core15dynamic_context22dedupe_reference_paths
FN:407,_RNvNtCskOvt1kg1spG_10novel_core15dynamic_context25filter_loadable_skill_ids
FN:367,_RNvNtCskOvt1kg1spG_10novel_core15dynamic_context25load_skill_reference_body
FN:16,_RNvNtCskOvt1kg1spG_10novel_core15dynamic_context26frozen_static_from_dynamic
FN:301,_RNvNtCskOvt1kg1spG_10novel_core15dynamic_context26match_reference_under_base
FN:322,_RNvNtCskOvt1kg1spG_10novel_core15dynamic_context26parse_skill_reference_path
FN:451,_RNvNtCskOvt1kg1spG_10novel_core15dynamic_context28format_activated_skill_block
FN:337,_RNvNtCskOvt1kg1spG_10novel_core15dynamic_context28resolve_skill_reference_path
FN:23,_RNvNtCskOvt1kg1spG_10novel_core15dynamic_context30persist_frozen_system_metadata
FN:64,_RNvNtCskOvt1kg1spG_10novel_core15dynamic_context30refresh_system_dynamic_context
FN:429,_RNvNtCskOvt1kg1spG_10novel_core15dynamic_context31filter_loadable_reference_paths
FN:39,_RNvNtCskOvt1kg1spG_10novel_core15dynamic_context32load_frozen_static_from_metadata
FN:138,_RNCNCNCNvNtCskOvt1kg1spG_10novel_core15dynamic_context19count_chapter_files0s_00B9_
FN:137,_RNCNCNvNtCskOvt1kg1spG_10novel_core15dynamic_context19count_chapter_files00B7_
FN:138,_RNCNCNvNtCskOvt1kg1spG_10novel_core15dynamic_context19count_chapter_files0s_0B7_
FN:443,_RNCNCNvNtCskOvt1kg1spG_10novel_core15dynamic_context31filter_loadable_reference_paths00B7_
FN:101,_RNCNvNtCskOvt1kg1spG_10novel_core15dynamic_context11load_memory0B5_
FN:199,_RNCNvNtCskOvt1kg1spG_10novel_core15dynamic_context13load_progress0B5_
FN:200,_RNCNvNtCskOvt1kg1spG_10novel_core15dynamic_context13load_progresss_0B5_
FN:401,_RNCNvNtCskOvt1kg1spG_10novel_core15dynamic_context16dedupe_skill_ids0B5_
FN:135,_RNCNvNtCskOvt1kg1spG_10novel_core15dynamic_context19count_chapter_files0B5_
FN:275,_RNCNvNtCskOvt1kg1spG_10novel_core15dynamic_context21build_dynamic_context0B5_
FN:295,_RNCNvNtCskOvt1kg1spG_10novel_core15dynamic_context21build_dynamic_contexts0_0B5_
FN:280,_RNCNvNtCskOvt1kg1spG_10novel_core15dynamic_context21build_dynamic_contexts_0B5_
FN:156,_RNCNvNtCskOvt1kg1spG_10novel_core15dynamic_context21outline_chapter_count0B5_
FN:160,_RNCNvNtCskOvt1kg1spG_10novel_core15dynamic_context21outline_chapter_counts_0B5_
FN:248,_RNCNvNtCskOvt1kg1spG_10novel_core15dynamic_context22current_structure_unit0B5_
FN:423,_RNCNvNtCskOvt1kg1spG_10novel_core15dynamic_context22dedupe_reference_paths0B5_
FN:414,_RNCNvNtCskOvt1kg1spG_10novel_core15dynamic_context25filter_loadable_skill_ids0B5_
FN:439,_RNCNvNtCskOvt1kg1spG_10novel_core15dynamic_context31filter_loadable_reference_paths0B5_
FN:44,_RNCNvNtCskOvt1kg1spG_10novel_core15dynamic_context32load_frozen_static_from_metadata0B5_
FN:54,_RNCNvNtCskOvt1kg1spG_10novel_core15dynamic_context32load_frozen_static_from_metadatas0_0B5_
FN:49,_RNCNvNtCskOvt1kg1spG_10novel_core15dynamic_context32load_frozen_static_from_metadatas_0B5_
FN:16,_RNvNtCsgAl8xIys83E_10novel_core15dynamic_context26frozen_static_from_dynamic
FN:691,_RNvNtNtCsgAl8xIys83E_10novel_core15dynamic_context5tests11write_skill
FN:685,_RNvNtNtCsgAl8xIys83E_10novel_core15dynamic_context5tests15write_reference
FN:562,_RNvNtNtCsgAl8xIys83E_10novel_core15dynamic_context5testss_29load_progress_counts_chapters
FN:519,_RNvNtNtCsgAl8xIys83E_10novel_core15dynamic_context5testss_30load_memory_empty_when_missing
FN:525,_RNvNtNtCsgAl8xIys83E_10novel_core15dynamic_context5testss_32load_memory_reads_index_and_body
FN:537,_RNvNtNtCsgAl8xIys83E_10novel_core15dynamic_context5testss_32outline_chapter_count_from_table
FN:804,_RNvNtNtCsgAl8xIys83E_10novel_core15dynamic_context5testss_38dedupe_reference_paths_preserves_order
FN:642,_RNvNtNtCsgAl8xIys83E_10novel_core15dynamic_context5testss_39build_dynamic_context_includes_progress
FN:627,_RNvNtNtCsgAl8xIys83E_10novel_core15dynamic_context5testss_39format_invoked_skill_bodies_dedupes_ids
FN:722,_RNvNtNtCsgAl8xIys83E_10novel_core15dynamic_context5testss_39parse_skill_reference_path_agent_bundle
FN:549,_RNvNtNtCsgAl8xIys83E_10novel_core15dynamic_context5testss_41current_structure_unit_reads_last_heading
FN:621,_RNvNtNtCsgAl8xIys83E_10novel_core15dynamic_context5testss_43dedupe_skill_ids_preserves_first_seen_order
FN:702,_RNvNtNtCsgAl8xIys83E_10novel_core15dynamic_context5testss_43parse_skill_reference_path_project_relative
FN:575,_RNvNtNtCsgAl8xIys83E_10novel_core15dynamic_context5testss_46filter_loadable_skill_ids_drops_deleted_skills
FN:604,_RNvNtNtCsgAl8xIys83E_10novel_core15dynamic_context5testss_47format_invoked_skill_bodies_from_project_skills
FN:737,_RNvNtNtCsgAl8xIys83E_10novel_core15dynamic_context5testss_48parse_skill_reference_path_rejects_non_reference
FN:784,_RNvNtNtCsgAl8xIys83E_10novel_core15dynamic_context5testss_55filter_loadable_reference_paths_requires_invoked_parent
FN:751,_RNvNtNtCsgAl8xIys83E_10novel_core15dynamic_context5testss_58format_activated_skill_block_groups_references_under_skill
FN:595,_RNvNtNtCsgAl8xIys83E_10novel_core15dynamic_context5testss_58format_invoked_skill_bodies_skips_missing_without_fallback
FN:656,_RNvNtNtCsgAl8xIys83E_10novel_core15dynamic_context5testss_64refresh_system_dynamic_context_reloads_skill_summaries_from_disk
FN:89,_RNvNtCsgAl8xIys83E_10novel_core15dynamic_context11load_memory
FN:116,_RNvNtCsgAl8xIys83E_10novel_core15dynamic_context12truncate_str
FN:190,_RNvNtCsgAl8xIys83E_10novel_core15dynamic_context13load_progress
FN:392,_RNvNtCsgAl8xIys83E_10novel_core15dynamic_context15load_skill_body
FN:398,_RNvNtCsgAl8xIys83E_10novel_core15dynamic_context16dedupe_skill_ids
FN:484,_RNvNtCsgAl8xIys83E_10novel_core15dynamic_context17resolve_skill_dir
FN:376,_RNvNtCsgAl8xIys83E_10novel_core15dynamic_context18resolve_skill_path
FN:129,_RNvNtCsgAl8xIys83E_10novel_core15dynamic_context19count_chapter_files
FN:265,_RNvNtCsgAl8xIys83E_10novel_core15dynamic_context21build_dynamic_context
FN:144,_RNvNtCsgAl8xIys83E_10novel_core15dynamic_context21outline_chapter_count
FN:218,_RNvNtCsgAl8xIys83E_10novel_core15dynamic_context22current_structure_unit
FN:419,_RNvNtCsgAl8xIys83E_10novel_core15dynamic_context22dedupe_reference_paths
FN:407,_RNvNtCsgAl8xIys83E_10novel_core15dynamic_context25filter_loadable_skill_ids
FN:367,_RNvNtCsgAl8xIys83E_10novel_core15dynamic_context25load_skill_reference_body
FN:301,_RNvNtCsgAl8xIys83E_10novel_core15dynamic_context26match_reference_under_base
FN:322,_RNvNtCsgAl8xIys83E_10novel_core15dynamic_context26parse_skill_reference_path
FN:505,_RNvNtCsgAl8xIys83E_10novel_core15dynamic_context27format_invoked_skill_bodies
FN:451,_RNvNtCsgAl8xIys83E_10novel_core15dynamic_context28format_activated_skill_block
FN:337,_RNvNtCsgAl8xIys83E_10novel_core15dynamic_context28resolve_skill_reference_path
FN:23,_RNvNtCsgAl8xIys83E_10novel_core15dynamic_context30persist_frozen_system_metadata
FN:64,_RNvNtCsgAl8xIys83E_10novel_core15dynamic_context30refresh_system_dynamic_context
FN:429,_RNvNtCsgAl8xIys83E_10novel_core15dynamic_context31filter_loadable_reference_paths
FN:39,_RNvNtCsgAl8xIys83E_10novel_core15dynamic_context32load_frozen_static_from_metadata
FN:670,_RNCNvNtNtCsgAl8xIys83E_10novel_core15dynamic_context5testss_64refresh_system_dynamic_context_reloads_skill_summaries_from_disk0B7_
FN:138,_RNCNCNCNvNtCsgAl8xIys83E_10novel_core15dynamic_context19count_chapter_files0s_00B9_
FN:137,_RNCNCNvNtCsgAl8xIys83E_10novel_core15dynamic_context19count_chapter_files00B7_
FN:138,_RNCNCNvNtCsgAl8xIys83E_10novel_core15dynamic_context19count_chapter_files0s_0B7_
FN:443,_RNCNCNvNtCsgAl8xIys83E_10novel_core15dynamic_context31filter_loadable_reference_paths00B7_
FN:101,_RNCNvNtCsgAl8xIys83E_10novel_core15dynamic_context11load_memory0B5_
FN:199,_RNCNvNtCsgAl8xIys83E_10novel_core15dynamic_context13load_progress0B5_
FN:200,_RNCNvNtCsgAl8xIys83E_10novel_core15dynamic_context13load_progresss_0B5_
FN:401,_RNCNvNtCsgAl8xIys83E_10novel_core15dynamic_context16dedupe_skill_ids0B5_
FN:135,_RNCNvNtCsgAl8xIys83E_10novel_core15dynamic_context19count_chapter_files0B5_
FN:275,_RNCNvNtCsgAl8xIys83E_10novel_core15dynamic_context21build_dynamic_context0B5_
FN:295,_RNCNvNtCsgAl8xIys83E_10novel_core15dynamic_context21build_dynamic_contexts0_0B5_
FN:280,_RNCNvNtCsgAl8xIys83E_10novel_core15dynamic_context21build_dynamic_contexts_0B5_
FN:156,_RNCNvNtCsgAl8xIys83E_10novel_core15dynamic_context21outline_chapter_count0B5_
FN:160,_RNCNvNtCsgAl8xIys83E_10novel_core15dynamic_context21outline_chapter_counts_0B5_
FN:248,_RNCNvNtCsgAl8xIys83E_10novel_core15dynamic_context22current_structure_unit0B5_
FN:423,_RNCNvNtCsgAl8xIys83E_10novel_core15dynamic_context22dedupe_reference_paths0B5_
FN:414,_RNCNvNtCsgAl8xIys83E_10novel_core15dynamic_context25filter_loadable_skill_ids0B5_
FN:439,_RNCNvNtCsgAl8xIys83E_10novel_core15dynamic_context31filter_loadable_reference_paths0B5_
FN:44,_RNCNvNtCsgAl8xIys83E_10novel_core15dynamic_context32load_frozen_static_from_metadata0B5_
FN:54,_RNCNvNtCsgAl8xIys83E_10novel_core15dynamic_context32load_frozen_static_from_metadatas0_0B5_
FN:49,_RNCNvNtCsgAl8xIys83E_10novel_core15dynamic_context32load_frozen_static_from_metadatas_0B5_
FNDA:8,_RNvNtCskOvt1kg1spG_10novel_core15dynamic_context11load_memory
FNDA:0,_RNvNtCskOvt1kg1spG_10novel_core15dynamic_context12truncate_str
FNDA:8,_RNvNtCskOvt1kg1spG_10novel_core15dynamic_context13load_progress
FNDA:0,_RNvNtCskOvt1kg1spG_10novel_core15dynamic_context15load_skill_body
FNDA:0,_RNvNtCskOvt1kg1spG_10novel_core15dynamic_context16dedupe_skill_ids
FNDA:0,_RNvNtCskOvt1kg1spG_10novel_core15dynamic_context17resolve_skill_dir
FNDA:0,_RNvNtCskOvt1kg1spG_10novel_core15dynamic_context18resolve_skill_path
FNDA:8,_RNvNtCskOvt1kg1spG_10novel_core15dynamic_context19count_chapter_files
FNDA:8,_RNvNtCskOvt1kg1spG_10novel_core15dynamic_context21build_dynamic_context
FNDA:8,_RNvNtCskOvt1kg1spG_10novel_core15dynamic_context21outline_chapter_count
FNDA:8,_RNvNtCskOvt1kg1spG_10novel_core15dynamic_context22current_structure_unit
FNDA:0,_RNvNtCskOvt1kg1spG_10novel_core15dynamic_context22dedupe_reference_paths
FNDA:0,_RNvNtCskOvt1kg1spG_10novel_core15dynamic_context25filter_loadable_skill_ids
FNDA:0,_RNvNtCskOvt1kg1spG_10novel_core15dynamic_context25load_skill_reference_body
FNDA:0,_RNvNtCskOvt1kg1spG_10novel_core15dynamic_context26frozen_static_from_dynamic
FNDA:0,_RNvNtCskOvt1kg1spG_10novel_core15dynamic_context26match_reference_under_base
FNDA:0,_RNvNtCskOvt1kg1spG_10novel_core15dynamic_context26parse_skill_reference_path
FNDA:0,_RNvNtCskOvt1kg1spG_10novel_core15dynamic_context28format_activated_skill_block
FNDA:0,_RNvNtCskOvt1kg1spG_10novel_core15dynamic_context28resolve_skill_reference_path
FNDA:8,_RNvNtCskOvt1kg1spG_10novel_core15dynamic_context30persist_frozen_system_metadata
FNDA:0,_RNvNtCskOvt1kg1spG_10novel_core15dynamic_context30refresh_system_dynamic_context
FNDA:0,_RNvNtCskOvt1kg1spG_10novel_core15dynamic_context31filter_loadable_reference_paths
FNDA:1,_RNvNtCskOvt1kg1spG_10novel_core15dynamic_context32load_frozen_static_from_metadata
FNDA:0,_RNCNCNCNvNtCskOvt1kg1spG_10novel_core15dynamic_context19count_chapter_files0s_00B9_
FNDA:0,_RNCNCNvNtCskOvt1kg1spG_10novel_core15dynamic_context19count_chapter_files00B7_
FNDA:0,_RNCNCNvNtCskOvt1kg1spG_10novel_core15dynamic_context19count_chapter_files0s_0B7_
FNDA:0,_RNCNCNvNtCskOvt1kg1spG_10novel_core15dynamic_context31filter_loadable_reference_paths00B7_
FNDA:0,_RNCNvNtCskOvt1kg1spG_10novel_core15dynamic_context11load_memory0B5_
FNDA:0,_RNCNvNtCskOvt1kg1spG_10novel_core15dynamic_context13load_progress0B5_
FNDA:0,_RNCNvNtCskOvt1kg1spG_10novel_core15dynamic_context13load_progresss_0B5_
FNDA:0,_RNCNvNtCskOvt1kg1spG_10novel_core15dynamic_context16dedupe_skill_ids0B5_
FNDA:0,_RNCNvNtCskOvt1kg1spG_10novel_core15dynamic_context19count_chapter_files0B5_
FNDA:8,_RNCNvNtCskOvt1kg1spG_10novel_core15dynamic_context21build_dynamic_context0B5_
FNDA:0,_RNCNvNtCskOvt1kg1spG_10novel_core15dynamic_context21build_dynamic_contexts0_0B5_
FNDA:0,_RNCNvNtCskOvt1kg1spG_10novel_core15dynamic_context21build_dynamic_contexts_0B5_
FNDA:0,_RNCNvNtCskOvt1kg1spG_10novel_core15dynamic_context21outline_chapter_count0B5_
FNDA:0,_RNCNvNtCskOvt1kg1spG_10novel_core15dynamic_context21outline_chapter_counts_0B5_
FNDA:0,_RNCNvNtCskOvt1kg1spG_10novel_core15dynamic_context22current_structure_unit0B5_
FNDA:0,_RNCNvNtCskOvt1kg1spG_10novel_core15dynamic_context22dedupe_reference_paths0B5_
FNDA:0,_RNCNvNtCskOvt1kg1spG_10novel_core15dynamic_context25filter_loadable_skill_ids0B5_
FNDA:0,_RNCNvNtCskOvt1kg1spG_10novel_core15dynamic_context31filter_loadable_reference_paths0B5_
FNDA:0,_RNCNvNtCskOvt1kg1spG_10novel_core15dynamic_context32load_frozen_static_from_metadata0B5_
FNDA:1,_RNCNvNtCskOvt1kg1spG_10novel_core15dynamic_context32load_frozen_static_from_metadatas0_0B5_
FNDA:1,_RNCNvNtCskOvt1kg1spG_10novel_core15dynamic_context32load_frozen_static_from_metadatas_0B5_
FNDA:0,_RNvNtCsgAl8xIys83E_10novel_core15dynamic_context26frozen_static_from_dynamic
FNDA:4,_RNvNtNtCsgAl8xIys83E_10novel_core15dynamic_context5tests11write_skill
FNDA:5,_RNvNtNtCsgAl8xIys83E_10novel_core15dynamic_context5tests15write_reference
FNDA:1,_RNvNtNtCsgAl8xIys83E_10novel_core15dynamic_context5testss_29load_progress_counts_chapters
FNDA:1,_RNvNtNtCsgAl8xIys83E_10novel_core15dynamic_context5testss_30load_memory_empty_when_missing
FNDA:1,_RNvNtNtCsgAl8xIys83E_10novel_core15dynamic_context5testss_32load_memory_reads_index_and_body
FNDA:1,_RNvNtNtCsgAl8xIys83E_10novel_core15dynamic_context5testss_32outline_chapter_count_from_table
FNDA:1,_RNvNtNtCsgAl8xIys83E_10novel_core15dynamic_context5testss_38dedupe_reference_paths_preserves_order
FNDA:1,_RNvNtNtCsgAl8xIys83E_10novel_core15dynamic_context5testss_39build_dynamic_context_includes_progress
FNDA:1,_RNvNtNtCsgAl8xIys83E_10novel_core15dynamic_context5testss_39format_invoked_skill_bodies_dedupes_ids
FNDA:1,_RNvNtNtCsgAl8xIys83E_10novel_core15dynamic_context5testss_39parse_skill_reference_path_agent_bundle
FNDA:1,_RNvNtNtCsgAl8xIys83E_10novel_core15dynamic_context5testss_41current_structure_unit_reads_last_heading
FNDA:1,_RNvNtNtCsgAl8xIys83E_10novel_core15dynamic_context5testss_43dedupe_skill_ids_preserves_first_seen_order
FNDA:1,_RNvNtNtCsgAl8xIys83E_10novel_core15dynamic_context5testss_43parse_skill_reference_path_project_relative
FNDA:1,_RNvNtNtCsgAl8xIys83E_10novel_core15dynamic_context5testss_46filter_loadable_skill_ids_drops_deleted_skills
FNDA:1,_RNvNtNtCsgAl8xIys83E_10novel_core15dynamic_context5testss_47format_invoked_skill_bodies_from_project_skills
FNDA:1,_RNvNtNtCsgAl8xIys83E_10novel_core15dynamic_context5testss_48parse_skill_reference_path_rejects_non_reference
FNDA:1,_RNvNtNtCsgAl8xIys83E_10novel_core15dynamic_context5testss_55filter_loadable_reference_paths_requires_invoked_parent
FNDA:1,_RNvNtNtCsgAl8xIys83E_10novel_core15dynamic_context5testss_58format_activated_skill_block_groups_references_under_skill
FNDA:1,_RNvNtNtCsgAl8xIys83E_10novel_core15dynamic_context5testss_58format_invoked_skill_bodies_skips_missing_without_fallback
FNDA:1,_RNvNtNtCsgAl8xIys83E_10novel_core15dynamic_context5testss_64refresh_system_dynamic_context_reloads_skill_summaries_from_disk
FNDA:37,_RNvNtCsgAl8xIys83E_10novel_core15dynamic_context11load_memory
FNDA:1,_RNvNtCsgAl8xIys83E_10novel_core15dynamic_context12truncate_str
FNDA:36,_RNvNtCsgAl8xIys83E_10novel_core15dynamic_context13load_progress
FNDA:5,_RNvNtCsgAl8xIys83E_10novel_core15dynamic_context15load_skill_body
FNDA:5,_RNvNtCsgAl8xIys83E_10novel_core15dynamic_context16dedupe_skill_ids
FNDA:4,_RNvNtCsgAl8xIys83E_10novel_core15dynamic_context17resolve_skill_dir
FNDA:7,_RNvNtCsgAl8xIys83E_10novel_core15dynamic_context18resolve_skill_path
FNDA:36,_RNvNtCsgAl8xIys83E_10novel_core15dynamic_context19count_chapter_files
FNDA:35,_RNvNtCsgAl8xIys83E_10novel_core15dynamic_context21build_dynamic_context
FNDA:37,_RNvNtCsgAl8xIys83E_10novel_core15dynamic_context21outline_chapter_count
FNDA:37,_RNvNtCsgAl8xIys83E_10novel_core15dynamic_context22current_structure_unit
FNDA:3,_RNvNtCsgAl8xIys83E_10novel_core15dynamic_context22dedupe_reference_paths
FNDA:2,_RNvNtCsgAl8xIys83E_10novel_core15dynamic_context25filter_loadable_skill_ids
FNDA:2,_RNvNtCsgAl8xIys83E_10novel_core15dynamic_context25load_skill_reference_body
FNDA:167,_RNvNtCsgAl8xIys83E_10novel_core15dynamic_context26match_reference_under_base
FNDA:84,_RNvNtCsgAl8xIys83E_10novel_core15dynamic_context26parse_skill_reference_path
FNDA:3,_RNvNtCsgAl8xIys83E_10novel_core15dynamic_context27format_invoked_skill_bodies
FNDA:5,_RNvNtCsgAl8xIys83E_10novel_core15dynamic_context28format_activated_skill_block
FNDA:3,_RNvNtCsgAl8xIys83E_10novel_core15dynamic_context28resolve_skill_reference_path
FNDA:31,_RNvNtCsgAl8xIys83E_10novel_core15dynamic_context30persist_frozen_system_metadata
FNDA:3,_RNvNtCsgAl8xIys83E_10novel_core15dynamic_context30refresh_system_dynamic_context
FNDA:2,_RNvNtCsgAl8xIys83E_10novel_core15dynamic_context31filter_loadable_reference_paths
FNDA:2,_RNvNtCsgAl8xIys83E_10novel_core15dynamic_context32load_frozen_static_from_metadata
FNDA:0,_RNCNvNtNtCsgAl8xIys83E_10novel_core15dynamic_context5testss_64refresh_system_dynamic_context_reloads_skill_summaries_from_disk0B7_
FNDA:1,_RNCNCNCNvNtCsgAl8xIys83E_10novel_core15dynamic_context19count_chapter_files0s_00B9_
FNDA:1,_RNCNCNvNtCsgAl8xIys83E_10novel_core15dynamic_context19count_chapter_files00B7_
FNDA:1,_RNCNCNvNtCsgAl8xIys83E_10novel_core15dynamic_context19count_chapter_files0s_0B7_
FNDA:2,_RNCNCNvNtCsgAl8xIys83E_10novel_core15dynamic_context31filter_loadable_reference_paths00B7_
FNDA:1,_RNCNvNtCsgAl8xIys83E_10novel_core15dynamic_context11load_memory0B5_
FNDA:0,_RNCNvNtCsgAl8xIys83E_10novel_core15dynamic_context13load_progress0B5_
FNDA:0,_RNCNvNtCsgAl8xIys83E_10novel_core15dynamic_context13load_progresss_0B5_
FNDA:9,_RNCNvNtCsgAl8xIys83E_10novel_core15dynamic_context16dedupe_skill_ids0B5_
FNDA:4,_RNCNvNtCsgAl8xIys83E_10novel_core15dynamic_context19count_chapter_files0B5_
FNDA:35,_RNCNvNtCsgAl8xIys83E_10novel_core15dynamic_context21build_dynamic_context0B5_
FNDA:0,_RNCNvNtCsgAl8xIys83E_10novel_core15dynamic_context21build_dynamic_contexts0_0B5_
FNDA:1,_RNCNvNtCsgAl8xIys83E_10novel_core15dynamic_context21build_dynamic_contexts_0B5_
FNDA:12,_RNCNvNtCsgAl8xIys83E_10novel_core15dynamic_context21outline_chapter_count0B5_
FNDA:3,_RNCNvNtCsgAl8xIys83E_10novel_core15dynamic_context21outline_chapter_counts_0B5_
FNDA:0,_RNCNvNtCsgAl8xIys83E_10novel_core15dynamic_context22current_structure_unit0B5_
FNDA:5,_RNCNvNtCsgAl8xIys83E_10novel_core15dynamic_context22dedupe_reference_paths0B5_
FNDA:2,_RNCNvNtCsgAl8xIys83E_10novel_core15dynamic_context25filter_loadable_skill_ids0B5_
FNDA:2,_RNCNvNtCsgAl8xIys83E_10novel_core15dynamic_context31filter_loadable_reference_paths0B5_
FNDA:0,_RNCNvNtCsgAl8xIys83E_10novel_core15dynamic_context32load_frozen_static_from_metadata0B5_
FNDA:2,_RNCNvNtCsgAl8xIys83E_10novel_core15dynamic_context32load_frozen_static_from_metadatas0_0B5_
FNDA:2,_RNCNvNtCsgAl8xIys83E_10novel_core15dynamic_context32load_frozen_static_from_metadatas_0B5_
FNF:66
FNH:59
DA:16,0
DA:17,0
DA:18,0
DA:19,0
DA:20,0
DA:21,0
DA:23,39
DA:24,39
DA:25,39
DA:26,39
DA:27,39
DA:29,39
DA:30,39
DA:31,39
DA:32,39
DA:33,39
DA:34,39
DA:36,39
DA:37,39
DA:39,3
DA:40,3
DA:41,3
DA:42,3
DA:43,3
DA:44,3
DA:45,0
DA:46,0
DA:47,3
DA:48,3
DA:49,3
DA:50,3
DA:51,3
DA:52,3
DA:53,3
DA:54,3
DA:55,3
DA:56,3
DA:57,3
DA:58,3
DA:59,3
DA:60,3
DA:61,3
DA:64,3
DA:65,3
DA:66,3
DA:67,3
DA:68,3
DA:69,3
DA:70,3
DA:71,3
DA:72,3
DA:73,3
DA:74,3
DA:75,3
DA:76,3
DA:78,3
DA:79,3
DA:80,3
DA:81,3
DA:82,3
DA:83,3
DA:84,3
DA:85,3
DA:86,3
DA:89,45
DA:90,45
DA:91,45
DA:92,45
DA:93,45
DA:94,44
DA:95,1
DA:96,1
DA:97,1
DA:98,0
DA:99,1
DA:100,1
DA:101,1
DA:102,1
DA:103,1
DA:104,1
DA:105,1
DA:106,1
DA:107,0
DA:108,1
DA:109,0
DA:110,0
DA:111,0
DA:113,1
DA:114,45
DA:116,1
DA:117,1
DA:118,1
DA:120,0
DA:122,0
DA:123,0
DA:127,1
DA:129,44
DA:130,44
DA:131,40
DA:132,4
DA:133,4
DA:134,4
DA:135,4
DA:136,4
DA:137,4
DA:138,4
DA:139,4
DA:140,4
DA:141,4
DA:142,44
DA:144,45
DA:145,45
DA:146,45
DA:147,1
DA:148,1
DA:149,4
DA:150,4
DA:151,0
DA:152,4
DA:153,4
DA:154,1
DA:155,3
DA:156,12
DA:157,3
DA:158,0
DA:159,3
DA:160,3
DA:161,3
DA:162,3
DA:163,3
DA:165,3
DA:166,0
DA:167,0
DA:168,0
DA:169,0
DA:170,0
DA:171,0
DA:173,0
DA:174,3
DA:175,3
DA:176,3
DA:177,3
DA:178,2
DA:179,2
DA:180,0
DA:182,1
DA:183,1
DA:185,0
DA:187,45
DA:190,44
DA:191,44
DA:192,44
DA:193,44
DA:194,44
DA:195,44
DA:196,44
DA:197,44
DA:198,44
DA:199,44
DA:200,44
DA:201,44
DA:202,44
DA:203,44
DA:204,44
DA:206,44
DA:207,0
DA:208,44
DA:209,44
DA:210,0
DA:211,44
DA:212,44
DA:213,0
DA:214,44
DA:215,44
DA:216,44
DA:218,45
DA:219,45
DA:220,45
DA:221,1
DA:222,44
DA:224,1
DA:225,1
DA:226,1
DA:227,1
DA:228,1
DA:229,1
DA:230,0
DA:232,1
DA:233,0
DA:234,1
DA:235,1
DA:236,1
DA:237,1
DA:238,4
DA:239,4
DA:240,4
DA:241,2
DA:242,2
DA:243,2
DA:244,2
DA:245,2
DA:246,2
DA:247,0
DA:248,0
DA:249,0
DA:250,0
DA:251,0
DA:252,0
DA:253,0
DA:254,0
DA:255,0
DA:257,1
DA:258,0
DA:260,1
DA:262,45
DA:265,43
DA:266,43
DA:267,43
DA:268,43
DA:269,43
DA:270,43
DA:271,43
DA:272,43
DA:273,43
DA:274,43
DA:275,43
DA:276,43
DA:277,43
DA:278,43
DA:279,43
DA:280,43
DA:281,1
DA:282,1
DA:283,1
DA:284,1
DA:285,1
DA:286,43
DA:288,43
DA:289,43
DA:290,43
DA:291,43
DA:292,43
DA:293,43
DA:294,43
DA:295,43
DA:296,43
DA:297,43
DA:299,43
DA:301,167
DA:302,167
DA:303,3
DA:304,3
DA:305,3
DA:306,1
DA:307,2
DA:308,2
DA:309,2
DA:310,0
DA:311,2
DA:312,2
DA:313,2
DA:314,0
DA:315,2
DA:316,2
DA:317,2
DA:318,167
DA:322,84
DA:323,84
DA:324,84
DA:325,84
DA:326,84
DA:327,84
DA:328,84
DA:329,167
DA:330,167
DA:331,2
DA:332,165
DA:334,82
DA:335,84
DA:337,3
DA:338,3
DA:339,3
DA:340,3
DA:341,3
DA:342,3
DA:343,3
DA:344,0
DA:345,3
DA:346,3
DA:347,3
DA:348,3
DA:349,3
DA:350,3
DA:351,3
DA:352,3
DA:353,3
DA:354,3
DA:355,0
DA:356,0
DA:357,0
DA:358,0
DA:359,0
DA:360,0
DA:361,0
DA:362,0
DA:363,0
DA:364,3
DA:367,2
DA:368,2
DA:369,2
DA:370,2
DA:371,2
DA:372,2
DA:373,2
DA:374,2
DA:376,7
DA:377,7
DA:378,7
DA:379,7
DA:380,7
DA:381,7
DA:382,7
DA:383,4
DA:384,3
DA:385,3
DA:386,3
DA:387,1
DA:388,2
DA:389,2
DA:390,7
DA:392,5
DA:393,5
DA:394,4
DA:395,5
DA:398,5
DA:399,5
DA:400,5
DA:401,9
DA:402,5
DA:403,5
DA:404,5
DA:407,2
DA:408,2
DA:409,2
DA:410,2
DA:411,2
DA:412,2
DA:413,2
DA:414,2
DA:415,2
DA:416,2
DA:419,3
DA:420,3
DA:421,3
DA:422,3
DA:423,5
DA:424,3
DA:425,3
DA:426,3
DA:429,2
DA:430,2
DA:431,2
DA:432,2
DA:433,2
DA:434,2
DA:435,2
DA:436,2
DA:437,2
DA:438,2
DA:439,2
DA:440,2
DA:441,2
DA:442,2
DA:443,2
DA:444,1
DA:445,2
DA:446,2
DA:447,2
DA:451,5
DA:452,5
DA:453,5
DA:454,5
DA:455,5
DA:456,5
DA:457,5
DA:458,5
DA:459,5
DA:461,4
DA:462,4
DA:463,4
DA:464,4
DA:465,4
DA:466,4
DA:467,4
DA:468,1
DA:469,5
DA:470,5
DA:471,4
DA:472,2
DA:473,2
DA:474,2
DA:475,2
DA:476,2
DA:477,2
DA:480,5
DA:481,5
DA:484,4
DA:485,4
DA:486,4
DA:487,4
DA:488,4
DA:490,4
DA:491,4
DA:492,3
DA:493,1
DA:495,1
DA:496,1
DA:497,1
DA:498,0
DA:499,0
DA:500,4
DA:505,3
DA:506,3
DA:507,3
DA:508,3
DA:509,3
DA:510,3
DA:511,3
DA:519,1
DA:520,1
DA:521,1
DA:522,1
DA:525,1
DA:526,1
DA:527,1
DA:528,1
DA:529,1
DA:530,1
DA:531,1
DA:532,1
DA:533,1
DA:534,1
DA:537,1
DA:538,1
DA:539,1
DA:540,1
DA:541,1
DA:544,1
DA:545,1
DA:546,1
DA:549,1
DA:550,1
DA:551,1
DA:552,1
DA:553,1
DA:556,1
DA:557,1
DA:558,1
DA:559,1
DA:562,1
DA:563,1
DA:564,1
DA:565,1
DA:566,1
DA:567,1
DA:568,1
DA:569,1
DA:570,1
DA:571,1
DA:572,1
DA:575,1
DA:576,1
DA:577,1
DA:578,1
DA:579,1
DA:580,1
DA:583,1
DA:584,1
DA:585,1
DA:586,1
DA:587,1
DA:588,1
DA:589,1
DA:591,1
DA:592,1
DA:595,1
DA:596,1
DA:597,1
DA:598,1
DA:599,1
DA:600,1
DA:601,1
DA:604,1
DA:605,1
DA:606,1
DA:607,1
DA:608,1
DA:609,1
DA:610,1
DA:611,1
DA:613,1
DA:614,1
DA:615,1
DA:616,1
DA:617,1
DA:618,1
DA:621,1
DA:622,1
DA:623,1
DA:624,1
DA:627,1
DA:628,1
DA:629,1
DA:630,1
DA:631,1
DA:632,1
DA:633,1
DA:636,1
DA:637,1
DA:638,1
DA:639,1
DA:642,1
DA:643,1
DA:644,1
DA:645,1
DA:646,1
DA:647,1
DA:648,1
DA:649,1
DA:650,1
DA:651,1
DA:652,1
DA:653,1
DA:656,1
DA:657,1
DA:658,1
DA:659,1
DA:660,1
DA:661,1
DA:662,1
DA:663,1
DA:664,1
DA:665,1
DA:666,1
DA:667,1
DA:668,1
DA:669,1
DA:670,1
DA:671,1
DA:672,1
DA:675,1
DA:676,1
DA:678,1
DA:680,1
DA:681,1
DA:682,1
DA:683,1
DA:685,5
DA:686,5
DA:687,5
DA:688,5
DA:689,5
DA:691,4
DA:692,4
DA:693,4
DA:694,4
DA:695,4
DA:696,4
DA:698,4
DA:699,4
DA:702,1
DA:703,1
DA:704,1
DA:705,1
DA:706,1
DA:707,1
DA:708,1
DA:709,1
DA:710,1
DA:712,1
DA:714,1
DA:715,1
DA:716,1
DA:717,1
DA:719,1
DA:722,1
DA:723,1
DA:724,1
DA:725,1
DA:726,1
DA:727,1
DA:728,1
DA:729,1
DA:730,1
DA:732,1
DA:734,1
DA:737,1
DA:738,1
DA:739,1
DA:740,1
DA:741,1
DA:742,1
DA:743,1
DA:744,1
DA:745,1
DA:746,1
DA:747,1
DA:748,1
DA:751,1
DA:752,1
DA:753,1
DA:754,1
DA:755,1
DA:756,1
DA:757,1
DA:758,1
DA:759,1
DA:760,1
DA:761,1
DA:763,1
DA:764,1
DA:765,1
DA:766,1
DA:767,1
DA:769,1
DA:770,1
DA:771,1
DA:772,1
DA:773,1
DA:774,1
DA:775,1
DA:776,1
DA:777,1
DA:778,1
DA:779,1
DA:780,1
DA:781,1
DA:784,1
DA:785,1
DA:786,1
DA:787,1
DA:788,1
DA:789,1
DA:790,1
DA:791,1
DA:792,1
DA:794,1
DA:795,1
DA:796,1
DA:797,1
DA:798,1
DA:800,1
DA:801,1
DA:804,1
DA:805,1
DA:806,1
DA:807,1
DA:808,1
DA:809,1
DA:810,1
DA:811,1
BRF:0
BRH:0
LF:684
LH:621
end_of_record
SF:G:\orgin_claude_code\claude-code-main\deepseek_novel_agent\crates\novel-core\src\engine.rs
FN:519,_RNCNvMs1_NtCskOvt1kg1spG_10novel_core6engineNtB7_11AgentEngine4fork0CsklAFRHNHkVo_19boundary_conditions
FN:116,_RNvMNtCskOvt1kg1spG_10novel_core6engineNtB2_12EngineShared21clear_read_file_cache
FN:107,_RNvMNtCskOvt1kg1spG_10novel_core6engineNtB2_12EngineShared9audit_log
FN:189,_RNvMs0_NtCskOvt1kg1spG_10novel_core6engineNtB5_11AgentEngine12abort_reason
FN:193,_RNvMs0_NtCskOvt1kg1spG_10novel_core6engineNtB5_11AgentEngine15clear_interrupt
FN:185,_RNvMs0_NtCskOvt1kg1spG_10novel_core6engineNtB5_11AgentEngine19interrupt_requested
FN:197,_RNvMs0_NtCskOvt1kg1spG_10novel_core6engineNtB5_11AgentEngine9audit_log
FN:539,_RNvMs1_NtCskOvt1kg1spG_10novel_core6engineNtB5_11AgentEngine12tool_context
FN:577,_RNvMs1_NtCskOvt1kg1spG_10novel_core6engineNtB5_11AgentEngine13sub_agent_dec
FN:572,_RNvMs1_NtCskOvt1kg1spG_10novel_core6engineNtB5_11AgentEngine13sub_agent_inc
FN:508,_RNvMs1_NtCskOvt1kg1spG_10novel_core6engineNtB5_11AgentEngine14handle_message
FN:214,_RNvMs1_NtCskOvt1kg1spG_10novel_core6engineNtB5_11AgentEngine14new_with_abort
FN:489,_RNvMs1_NtCskOvt1kg1spG_10novel_core6engineNtB5_11AgentEngine15status_snapshot
FN:304,_RNvMs1_NtCskOvt1kg1spG_10novel_core6engineNtB5_11AgentEngine17resume_with_abort
FN:436,_RNvMs1_NtCskOvt1kg1spG_10novel_core6engineNtB5_11AgentEngine20build_initial_prompt
FN:559,_RNvMs1_NtCskOvt1kg1spG_10novel_core6engineNtB5_11AgentEngine21tool_context_dont_ask
FN:450,_RNvMs1_NtCskOvt1kg1spG_10novel_core6engineNtB5_11AgentEngine22assemble_system_prompt
FN:502,_RNvMs1_NtCskOvt1kg1spG_10novel_core6engineNtB5_11AgentEngine28set_permission_mode_override
FN:467,_RNvMs1_NtCskOvt1kg1spG_10novel_core6engineNtB5_11AgentEngine31refresh_system_dynamic_sections
FN:210,_RNvMs1_NtCskOvt1kg1spG_10novel_core6engineNtB5_11AgentEngine3new
FN:583,_RNvMs1_NtCskOvt1kg1spG_10novel_core6engineNtB5_11AgentEngine3run
FN:515,_RNvMs1_NtCskOvt1kg1spG_10novel_core6engineNtB5_11AgentEngine4fork
FN:300,_RNvMs1_NtCskOvt1kg1spG_10novel_core6engineNtB5_11AgentEngine6resume
FN:171,_RNvMs_NtCskOvt1kg1spG_10novel_core6engineNtB4_11AgentEngine25sync_session_llm_from_llm
FN:121,_RNvNtCskOvt1kg1spG_10novel_core6engine17open_audit_logger
FN:51,_RNvNtCskOvt1kg1spG_10novel_core6engine21permission_mode_label
FN:60,_RNvNtCskOvt1kg1spG_10novel_core6engine24permission_mode_from_str
FN:201,_RINvMs0_NtCskOvt1kg1spG_10novel_core6engineNtB6_11AgentEngine11audit_errorNtNtCs1f2BdUxKfgg_5alloc6string6StringEB8_
FN:374,_RNCNCNvMs1_NtCskOvt1kg1spG_10novel_core6engineNtB9_11AgentEngine17resume_with_aborts2_00Bb_
FN:375,_RNCNCNvMs1_NtCskOvt1kg1spG_10novel_core6engineNtB9_11AgentEngine17resume_with_aborts2_0s_0Bb_
FN:350,_RNCNvMs1_NtCskOvt1kg1spG_10novel_core6engineNtB7_11AgentEngine17resume_with_abort0B9_
FN:352,_RNCNvMs1_NtCskOvt1kg1spG_10novel_core6engineNtB7_11AgentEngine17resume_with_aborts0_0B9_
FN:369,_RNCNvMs1_NtCskOvt1kg1spG_10novel_core6engineNtB7_11AgentEngine17resume_with_aborts2_0B9_
FN:351,_RNCNvMs1_NtCskOvt1kg1spG_10novel_core6engineNtB7_11AgentEngine17resume_with_aborts_0B9_
FN:444,_RNCNvMs1_NtCskOvt1kg1spG_10novel_core6engineNtB7_11AgentEngine20build_initial_prompt0B9_
FN:508,_RNCNvMs1_NtCskOvt1kg1spG_10novel_core6engineNtB7_11AgentEngine14handle_message0B9_
FN:587,_RNCNvMs1_NtCskOvt1kg1spG_10novel_core6engineNtB7_11AgentEngine3run0B9_
FN:519,_RNCNvMs1_NtCskOvt1kg1spG_10novel_core6engineNtB7_11AgentEngine4fork0B9_
FN:201,_RINvMs0_NtCskOvt1kg1spG_10novel_core6engineNtB6_11AgentEngine11audit_errorReECsja0mJncq2tx_10fork_agent
FN:508,_RNCNvMs1_NtCskOvt1kg1spG_10novel_core6engineNtB7_11AgentEngine14handle_message0Csja0mJncq2tx_10fork_agent
FN:519,_RNCNvMs1_NtCskOvt1kg1spG_10novel_core6engineNtB7_11AgentEngine4fork0Csja0mJncq2tx_10fork_agent
FN:201,_RINvMs0_NtCskOvt1kg1spG_10novel_core6engineNtB6_11AgentEngine11audit_errorReECs90uylq1XzCH_22live_invoke_skill_turn
FN:508,_RNCNvMs1_NtCskOvt1kg1spG_10novel_core6engineNtB7_11AgentEngine14handle_message0Cs90uylq1XzCH_22live_invoke_skill_turn
FN:201,_RINvMs0_NtCskOvt1kg1spG_10novel_core6engineNtB6_11AgentEngine11audit_errorReECs5ts0mUYpT8u_12novel_server
FN:577,_RNvMs1_NtCsgAl8xIys83E_10novel_core6engineNtB5_11AgentEngine13sub_agent_dec
FN:489,_RNvMs1_NtCsgAl8xIys83E_10novel_core6engineNtB5_11AgentEngine15status_snapshot
FN:559,_RNvMs1_NtCsgAl8xIys83E_10novel_core6engineNtB5_11AgentEngine21tool_context_dont_ask
FN:502,_RNvMs1_NtCsgAl8xIys83E_10novel_core6engineNtB5_11AgentEngine28set_permission_mode_override
FN:710,_RNCNCNvNCNvNtNtCsgAl8xIys83E_10novel_core6engine5testss_26engine_run_handles_message026engine_run_handles_message00Bd_
FN:201,_RINvMs0_NtCsgAl8xIys83E_10novel_core6engineNtB6_11AgentEngine11audit_errorNtNtCs1f2BdUxKfgg_5alloc6string6StringEB8_
FN:201,_RINvMs0_NtCsgAl8xIys83E_10novel_core6engineNtB6_11AgentEngine11audit_errorReEB8_
FN:374,_RNCNCNvMs1_NtCsgAl8xIys83E_10novel_core6engineNtB9_11AgentEngine17resume_with_aborts2_00Bb_
FN:375,_RNCNCNvMs1_NtCsgAl8xIys83E_10novel_core6engineNtB9_11AgentEngine17resume_with_aborts2_0s_0Bb_
FN:508,_RNCNvMs1_NtCsgAl8xIys83E_10novel_core6engineNtB7_11AgentEngine14handle_message0B9_
FN:350,_RNCNvMs1_NtCsgAl8xIys83E_10novel_core6engineNtB7_11AgentEngine17resume_with_abort0B9_
FN:352,_RNCNvMs1_NtCsgAl8xIys83E_10novel_core6engineNtB7_11AgentEngine17resume_with_aborts0_0B9_
FN:369,_RNCNvMs1_NtCsgAl8xIys83E_10novel_core6engineNtB7_11AgentEngine17resume_with_aborts2_0B9_
FN:351,_RNCNvMs1_NtCsgAl8xIys83E_10novel_core6engineNtB7_11AgentEngine17resume_with_aborts_0B9_
FN:444,_RNCNvMs1_NtCsgAl8xIys83E_10novel_core6engineNtB7_11AgentEngine20build_initial_prompt0B9_
FN:587,_RNCNvMs1_NtCsgAl8xIys83E_10novel_core6engineNtB7_11AgentEngine3run0B9_
FN:519,_RNCNvMs1_NtCsgAl8xIys83E_10novel_core6engineNtB7_11AgentEngine4fork0B9_
FN:116,_RNvMNtCsgAl8xIys83E_10novel_core6engineNtB2_12EngineShared21clear_read_file_cache
FN:107,_RNvMNtCsgAl8xIys83E_10novel_core6engineNtB2_12EngineShared9audit_log
FN:189,_RNvMs0_NtCsgAl8xIys83E_10novel_core6engineNtB5_11AgentEngine12abort_reason
FN:193,_RNvMs0_NtCsgAl8xIys83E_10novel_core6engineNtB5_11AgentEngine15clear_interrupt
FN:185,_RNvMs0_NtCsgAl8xIys83E_10novel_core6engineNtB5_11AgentEngine19interrupt_requested
FN:197,_RNvMs0_NtCsgAl8xIys83E_10novel_core6engineNtB5_11AgentEngine9audit_log
FN:539,_RNvMs1_NtCsgAl8xIys83E_10novel_core6engineNtB5_11AgentEngine12tool_context
FN:572,_RNvMs1_NtCsgAl8xIys83E_10novel_core6engineNtB5_11AgentEngine13sub_agent_inc
FN:508,_RNvMs1_NtCsgAl8xIys83E_10novel_core6engineNtB5_11AgentEngine14handle_message
FN:214,_RNvMs1_NtCsgAl8xIys83E_10novel_core6engineNtB5_11AgentEngine14new_with_abort
FN:304,_RNvMs1_NtCsgAl8xIys83E_10novel_core6engineNtB5_11AgentEngine17resume_with_abort
FN:436,_RNvMs1_NtCsgAl8xIys83E_10novel_core6engineNtB5_11AgentEngine20build_initial_prompt
FN:450,_RNvMs1_NtCsgAl8xIys83E_10novel_core6engineNtB5_11AgentEngine22assemble_system_prompt
FN:467,_RNvMs1_NtCsgAl8xIys83E_10novel_core6engineNtB5_11AgentEngine31refresh_system_dynamic_sections
FN:210,_RNvMs1_NtCsgAl8xIys83E_10novel_core6engineNtB5_11AgentEngine3new
FN:583,_RNvMs1_NtCsgAl8xIys83E_10novel_core6engineNtB5_11AgentEngine3run
FN:515,_RNvMs1_NtCsgAl8xIys83E_10novel_core6engineNtB5_11AgentEngine4fork
FN:300,_RNvMs1_NtCsgAl8xIys83E_10novel_core6engineNtB5_11AgentEngine6resume
FN:171,_RNvMs_NtCsgAl8xIys83E_10novel_core6engineNtB4_11AgentEngine25sync_session_llm_from_llm
FN:121,_RNvNtCsgAl8xIys83E_10novel_core6engine17open_audit_logger
FN:51,_RNvNtCsgAl8xIys83E_10novel_core6engine21permission_mode_label
FN:60,_RNvNtCsgAl8xIys83E_10novel_core6engine24permission_mode_from_str
FN:634,_RNvNtNtCsgAl8xIys83E_10novel_core6engine5tests11test_config
FN:763,_RNvNtNtCsgAl8xIys83E_10novel_core6engine5testss_36permission_mode_label_maps_all_modes
FN:775,_RNvNtNtCsgAl8xIys83E_10novel_core6engine5testss_41clear_read_file_cache_removes_all_entries
FN:201,_RINvMs0_NtCskOvt1kg1spG_10novel_core6engineNtB6_11AgentEngine11audit_errorReECs4uMLwczbohT_12novel_server
FN:508,_RNCNvMs1_NtCskOvt1kg1spG_10novel_core6engineNtB7_11AgentEngine14handle_message0Cs4uMLwczbohT_12novel_server
FNDA:1,_RNCNvMs1_NtCskOvt1kg1spG_10novel_core6engineNtB7_11AgentEngine4fork0CsklAFRHNHkVo_19boundary_conditions
FNDA:0,_RNvMNtCskOvt1kg1spG_10novel_core6engineNtB2_12EngineShared21clear_read_file_cache
FNDA:16,_RNvMNtCskOvt1kg1spG_10novel_core6engineNtB2_12EngineShared9audit_log
FNDA:0,_RNvMs0_NtCskOvt1kg1spG_10novel_core6engineNtB5_11AgentEngine12abort_reason
FNDA:16,_RNvMs0_NtCskOvt1kg1spG_10novel_core6engineNtB5_11AgentEngine15clear_interrupt
FNDA:16,_RNvMs0_NtCskOvt1kg1spG_10novel_core6engineNtB5_11AgentEngine19interrupt_requested
FNDA:16,_RNvMs0_NtCskOvt1kg1spG_10novel_core6engineNtB5_11AgentEngine9audit_log
FNDA:0,_RNvMs1_NtCskOvt1kg1spG_10novel_core6engineNtB5_11AgentEngine12tool_context
FNDA:0,_RNvMs1_NtCskOvt1kg1spG_10novel_core6engineNtB5_11AgentEngine13sub_agent_dec
FNDA:0,_RNvMs1_NtCskOvt1kg1spG_10novel_core6engineNtB5_11AgentEngine13sub_agent_inc
FNDA:8,_RNvMs1_NtCskOvt1kg1spG_10novel_core6engineNtB5_11AgentEngine14handle_message
FNDA:8,_RNvMs1_NtCskOvt1kg1spG_10novel_core6engineNtB5_11AgentEngine14new_with_abort
FNDA:0,_RNvMs1_NtCskOvt1kg1spG_10novel_core6engineNtB5_11AgentEngine15status_snapshot
FNDA:1,_RNvMs1_NtCskOvt1kg1spG_10novel_core6engineNtB5_11AgentEngine17resume_with_abort
FNDA:8,_RNvMs1_NtCskOvt1kg1spG_10novel_core6engineNtB5_11AgentEngine20build_initial_prompt
FNDA:0,_RNvMs1_NtCskOvt1kg1spG_10novel_core6engineNtB5_11AgentEngine21tool_context_dont_ask
FNDA:8,_RNvMs1_NtCskOvt1kg1spG_10novel_core6engineNtB5_11AgentEngine22assemble_system_prompt
FNDA:0,_RNvMs1_NtCskOvt1kg1spG_10novel_core6engineNtB5_11AgentEngine28set_permission_mode_override
FNDA:0,_RNvMs1_NtCskOvt1kg1spG_10novel_core6engineNtB5_11AgentEngine31refresh_system_dynamic_sections
FNDA:8,_RNvMs1_NtCskOvt1kg1spG_10novel_core6engineNtB5_11AgentEngine3new
FNDA:0,_RNvMs1_NtCskOvt1kg1spG_10novel_core6engineNtB5_11AgentEngine3run
FNDA:5,_RNvMs1_NtCskOvt1kg1spG_10novel_core6engineNtB5_11AgentEngine4fork
FNDA:1,_RNvMs1_NtCskOvt1kg1spG_10novel_core6engineNtB5_11AgentEngine6resume
FNDA:8,_RNvMs_NtCskOvt1kg1spG_10novel_core6engineNtB4_11AgentEngine25sync_session_llm_from_llm
FNDA:9,_RNvNtCskOvt1kg1spG_10novel_core6engine17open_audit_logger
FNDA:0,_RNvNtCskOvt1kg1spG_10novel_core6engine21permission_mode_label
FNDA:9,_RNvNtCskOvt1kg1spG_10novel_core6engine24permission_mode_from_str
FNDA:0,_RINvMs0_NtCskOvt1kg1spG_10novel_core6engineNtB6_11AgentEngine11audit_errorNtNtCs1f2BdUxKfgg_5alloc6string6StringEB8_
FNDA:0,_RNCNCNvMs1_NtCskOvt1kg1spG_10novel_core6engineNtB9_11AgentEngine17resume_with_aborts2_00Bb_
FNDA:0,_RNCNCNvMs1_NtCskOvt1kg1spG_10novel_core6engineNtB9_11AgentEngine17resume_with_aborts2_0s_0Bb_
FNDA:1,_RNCNvMs1_NtCskOvt1kg1spG_10novel_core6engineNtB7_11AgentEngine17resume_with_abort0B9_
FNDA:0,_RNCNvMs1_NtCskOvt1kg1spG_10novel_core6engineNtB7_11AgentEngine17resume_with_aborts0_0B9_
FNDA:1,_RNCNvMs1_NtCskOvt1kg1spG_10novel_core6engineNtB7_11AgentEngine17resume_with_aborts2_0B9_
FNDA:1,_RNCNvMs1_NtCskOvt1kg1spG_10novel_core6engineNtB7_11AgentEngine17resume_with_aborts_0B9_
FNDA:6,_RNCNvMs1_NtCskOvt1kg1spG_10novel_core6engineNtB7_11AgentEngine20build_initial_prompt0B9_
FNDA:0,_RNCNvMs1_NtCskOvt1kg1spG_10novel_core6engineNtB7_11AgentEngine14handle_message0B9_
FNDA:0,_RNCNvMs1_NtCskOvt1kg1spG_10novel_core6engineNtB7_11AgentEngine3run0B9_
FNDA:0,_RNCNvMs1_NtCskOvt1kg1spG_10novel_core6engineNtB7_11AgentEngine4fork0B9_
FNDA:0,_RINvMs0_NtCskOvt1kg1spG_10novel_core6engineNtB6_11AgentEngine11audit_errorReECsja0mJncq2tx_10fork_agent
FNDA:7,_RNCNvMs1_NtCskOvt1kg1spG_10novel_core6engineNtB7_11AgentEngine14handle_message0Csja0mJncq2tx_10fork_agent
FNDA:4,_RNCNvMs1_NtCskOvt1kg1spG_10novel_core6engineNtB7_11AgentEngine4fork0Csja0mJncq2tx_10fork_agent
FNDA:0,_RINvMs0_NtCskOvt1kg1spG_10novel_core6engineNtB6_11AgentEngine11audit_errorReECs90uylq1XzCH_22live_invoke_skill_turn
FNDA:0,_RNCNvMs1_NtCskOvt1kg1spG_10novel_core6engineNtB7_11AgentEngine14handle_message0Cs90uylq1XzCH_22live_invoke_skill_turn
FNDA:0,_RINvMs0_NtCskOvt1kg1spG_10novel_core6engineNtB6_11AgentEngine11audit_errorReECs5ts0mUYpT8u_12novel_server
FNDA:0,_RNvMs1_NtCsgAl8xIys83E_10novel_core6engineNtB5_11AgentEngine13sub_agent_dec
FNDA:0,_RNvMs1_NtCsgAl8xIys83E_10novel_core6engineNtB5_11AgentEngine15status_snapshot
FNDA:0,_RNvMs1_NtCsgAl8xIys83E_10novel_core6engineNtB5_11AgentEngine21tool_context_dont_ask
FNDA:0,_RNvMs1_NtCsgAl8xIys83E_10novel_core6engineNtB5_11AgentEngine28set_permission_mode_override
FNDA:1,_RNCNCNvNCNvNtNtCsgAl8xIys83E_10novel_core6engine5testss_26engine_run_handles_message026engine_run_handles_message00Bd_
FNDA:0,_RINvMs0_NtCsgAl8xIys83E_10novel_core6engineNtB6_11AgentEngine11audit_errorNtNtCs1f2BdUxKfgg_5alloc6string6StringEB8_
FNDA:0,_RINvMs0_NtCsgAl8xIys83E_10novel_core6engineNtB6_11AgentEngine11audit_errorReEB8_
FNDA:1,_RNCNCNvMs1_NtCsgAl8xIys83E_10novel_core6engineNtB9_11AgentEngine17resume_with_aborts2_00Bb_
FNDA:1,_RNCNCNvMs1_NtCsgAl8xIys83E_10novel_core6engineNtB9_11AgentEngine17resume_with_aborts2_0s_0Bb_
FNDA:6,_RNCNvMs1_NtCsgAl8xIys83E_10novel_core6engineNtB7_11AgentEngine14handle_message0B9_
FNDA:1,_RNCNvMs1_NtCsgAl8xIys83E_10novel_core6engineNtB7_11AgentEngine17resume_with_abort0B9_
FNDA:0,_RNCNvMs1_NtCsgAl8xIys83E_10novel_core6engineNtB7_11AgentEngine17resume_with_aborts0_0B9_
FNDA:3,_RNCNvMs1_NtCsgAl8xIys83E_10novel_core6engineNtB7_11AgentEngine17resume_with_aborts2_0B9_
FNDA:1,_RNCNvMs1_NtCsgAl8xIys83E_10novel_core6engineNtB7_11AgentEngine17resume_with_aborts_0B9_
FNDA:31,_RNCNvMs1_NtCsgAl8xIys83E_10novel_core6engineNtB7_11AgentEngine20build_initial_prompt0B9_
FNDA:2,_RNCNvMs1_NtCsgAl8xIys83E_10novel_core6engineNtB7_11AgentEngine3run0B9_
FNDA:3,_RNCNvMs1_NtCsgAl8xIys83E_10novel_core6engineNtB7_11AgentEngine4fork0B9_
FNDA:2,_RNvMNtCsgAl8xIys83E_10novel_core6engineNtB2_12EngineShared21clear_read_file_cache
FNDA:267,_RNvMNtCsgAl8xIys83E_10novel_core6engineNtB2_12EngineShared9audit_log
FNDA:81,_RNvMs0_NtCsgAl8xIys83E_10novel_core6engineNtB5_11AgentEngine12abort_reason
FNDA:12,_RNvMs0_NtCsgAl8xIys83E_10novel_core6engineNtB5_11AgentEngine15clear_interrupt
FNDA:256,_RNvMs0_NtCsgAl8xIys83E_10novel_core6engineNtB5_11AgentEngine19interrupt_requested
FNDA:182,_RNvMs0_NtCsgAl8xIys83E_10novel_core6engineNtB5_11AgentEngine9audit_log
FNDA:83,_RNvMs1_NtCsgAl8xIys83E_10novel_core6engineNtB5_11AgentEngine12tool_context
FNDA:4,_RNvMs1_NtCsgAl8xIys83E_10novel_core6engineNtB5_11AgentEngine13sub_agent_inc
FNDA:6,_RNvMs1_NtCsgAl8xIys83E_10novel_core6engineNtB5_11AgentEngine14handle_message
FNDA:31,_RNvMs1_NtCsgAl8xIys83E_10novel_core6engineNtB5_11AgentEngine14new_with_abort
FNDA:1,_RNvMs1_NtCsgAl8xIys83E_10novel_core6engineNtB5_11AgentEngine17resume_with_abort
FNDA:31,_RNvMs1_NtCsgAl8xIys83E_10novel_core6engineNtB5_11AgentEngine20build_initial_prompt
FNDA:31,_RNvMs1_NtCsgAl8xIys83E_10novel_core6engineNtB5_11AgentEngine22assemble_system_prompt
FNDA:1,_RNvMs1_NtCsgAl8xIys83E_10novel_core6engineNtB5_11AgentEngine31refresh_system_dynamic_sections
FNDA:31,_RNvMs1_NtCsgAl8xIys83E_10novel_core6engineNtB5_11AgentEngine3new
FNDA:2,_RNvMs1_NtCsgAl8xIys83E_10novel_core6engineNtB5_11AgentEngine3run
FNDA:3,_RNvMs1_NtCsgAl8xIys83E_10novel_core6engineNtB5_11AgentEngine4fork
FNDA:1,_RNvMs1_NtCsgAl8xIys83E_10novel_core6engineNtB5_11AgentEngine6resume
FNDA:89,_RNvMs_NtCsgAl8xIys83E_10novel_core6engineNtB4_11AgentEngine25sync_session_llm_from_llm
FNDA:32,_RNvNtCsgAl8xIys83E_10novel_core6engine17open_audit_logger
FNDA:4,_RNvNtCsgAl8xIys83E_10novel_core6engine21permission_mode_label
FNDA:115,_RNvNtCsgAl8xIys83E_10novel_core6engine24permission_mode_from_str
FNDA:8,_RNvNtNtCsgAl8xIys83E_10novel_core6engine5tests11test_config
FNDA:1,_RNvNtNtCsgAl8xIys83E_10novel_core6engine5testss_36permission_mode_label_maps_all_modes
FNDA:1,_RNvNtNtCsgAl8xIys83E_10novel_core6engine5testss_41clear_read_file_cache_removes_all_entries
FNDA:0,_RINvMs0_NtCskOvt1kg1spG_10novel_core6engineNtB6_11AgentEngine11audit_errorReECs4uMLwczbohT_12novel_server
FNDA:1,_RNCNvMs1_NtCskOvt1kg1spG_10novel_core6engineNtB7_11AgentEngine14handle_message0Cs4uMLwczbohT_12novel_server
FNF:41
FNH:35
DA:51,4
DA:52,4
DA:53,1
DA:54,1
DA:55,1
DA:56,1
DA:58,4
DA:60,124
DA:61,124
DA:62,124
DA:63,124
DA:64,124
DA:65,124
DA:67,124
DA:107,283
DA:108,283
DA:109,283
DA:110,0
DA:111,283
DA:112,0
DA:113,283
DA:116,2
DA:117,2
DA:118,2
DA:121,41
DA:122,41
DA:123,41
DA:124,41
DA:125,41
DA:126,41
DA:127,41
DA:128,41
DA:129,41
DA:130,41
DA:131,41
DA:132,41
DA:133,41
DA:134,0
DA:135,41
DA:136,41
DA:138,0
DA:139,0
DA:140,0
DA:143,41
DA:171,97
DA:172,97
DA:173,83
DA:174,83
DA:175,83
DA:176,83
DA:177,83
DA:178,83
DA:179,83
DA:180,83
DA:181,97
DA:185,272
DA:186,272
DA:187,272
DA:189,81
DA:190,81
DA:191,81
DA:193,28
DA:194,28
DA:195,28
DA:197,198
DA:198,198
DA:199,198
DA:201,0
DA:202,0
DA:203,0
DA:204,0
DA:205,0
DA:206,0
DA:210,39
DA:211,39
DA:212,39
DA:214,39
DA:215,39
DA:216,39
DA:217,39
DA:218,39
DA:219,39
DA:220,39
DA:221,39
DA:223,39
DA:224,39
DA:225,39
DA:226,39
DA:227,0
DA:229,39
DA:230,39
DA:231,39
DA:232,39
DA:234,39
DA:235,39
DA:236,39
DA:237,39
DA:238,39
DA:239,39
DA:240,39
DA:242,39
DA:243,39
DA:244,39
DA:245,39
DA:248,39
DA:249,39
DA:250,39
DA:252,39
DA:253,39
DA:254,39
DA:256,39
DA:258,39
DA:260,39
DA:261,39
DA:262,39
DA:263,39
DA:264,39
DA:265,39
DA:266,39
DA:267,39
DA:268,39
DA:269,39
DA:270,39
DA:271,39
DA:272,39
DA:273,39
DA:274,39
DA:275,39
DA:276,39
DA:277,39
DA:278,39
DA:279,39
DA:281,39
DA:282,39
DA:283,39
DA:284,39
DA:285,39
DA:286,39
DA:287,39
DA:288,39
DA:289,39
DA:290,39
DA:291,39
DA:292,39
DA:293,39
DA:294,39
DA:295,39
DA:296,39
DA:297,39
DA:298,39
DA:300,2
DA:301,2
DA:302,2
DA:304,2
DA:305,2
DA:306,2
DA:307,2
DA:308,2
DA:309,2
DA:310,2
DA:311,2
DA:312,2
DA:314,2
DA:315,2
DA:316,2
DA:317,2
DA:318,0
DA:320,2
DA:321,2
DA:322,2
DA:324,2
DA:325,0
DA:326,0
DA:327,0
DA:328,0
DA:329,0
DA:330,0
DA:331,0
DA:332,0
DA:333,0
DA:334,0
DA:335,0
DA:336,0
DA:337,0
DA:338,0
DA:339,0
DA:340,0
DA:342,2
DA:343,2
DA:344,2
DA:345,2
DA:346,2
DA:347,2
DA:348,2
DA:349,2
DA:350,2
DA:351,2
DA:352,2
DA:353,0
DA:354,0
DA:355,0
DA:356,0
DA:357,0
DA:358,2
DA:359,2
DA:361,2
DA:364,2
DA:366,2
DA:367,2
DA:368,2
DA:369,4
DA:370,4
DA:371,1
DA:372,1
DA:373,1
DA:374,1
DA:375,1
DA:376,4
DA:377,2
DA:378,2
DA:379,2
DA:380,2
DA:382,2
DA:383,2
DA:384,2
DA:385,2
DA:387,2
DA:388,2
DA:389,2
DA:390,2
DA:392,2
DA:394,2
DA:396,2
DA:397,2
DA:398,2
DA:399,2
DA:400,2
DA:401,2
DA:402,2
DA:403,2
DA:404,2
DA:405,2
DA:406,2
DA:407,2
DA:408,2
DA:409,2
DA:410,2
DA:411,2
DA:412,2
DA:413,2
DA:414,2
DA:415,2
DA:417,2
DA:418,2
DA:419,2
DA:420,2
DA:421,2
DA:422,2
DA:423,2
DA:424,2
DA:425,2
DA:426,2
DA:427,2
DA:428,2
DA:429,2
DA:430,2
DA:431,2
DA:432,2
DA:433,2
DA:434,2
DA:436,39
DA:437,39
DA:438,39
DA:439,39
DA:440,39
DA:441,39
DA:442,39
DA:443,39
DA:444,39
DA:445,39
DA:446,39
DA:447,39
DA:450,39
DA:451,39
DA:452,39
DA:453,39
DA:454,39
DA:455,39
DA:456,39
DA:457,39
DA:458,39
DA:459,39
DA:460,39
DA:462,39
DA:463,39
DA:464,39
DA:467,1
DA:468,1
DA:469,1
DA:470,1
DA:471,1
DA:472,1
DA:473,1
DA:474,1
DA:475,1
DA:476,1
DA:478,1
DA:479,1
DA:480,1
DA:481,1
DA:482,1
DA:483,1
DA:484,0
DA:485,1
DA:486,1
DA:489,0
DA:490,0
DA:491,0
DA:492,0
DA:493,0
DA:494,0
DA:495,0
DA:496,0
DA:497,0
DA:498,0
DA:499,0
DA:500,0
DA:502,0
DA:503,0
DA:504,0
DA:505,0
DA:506,0
DA:508,14
DA:509,14
DA:510,14
DA:515,8
DA:516,8
DA:517,8
DA:518,8
DA:519,8
DA:520,8
DA:523,0
DA:526,8
DA:527,0
DA:528,0
DA:529,8
DA:530,8
DA:531,2
DA:532,6
DA:534,6
DA:535,8
DA:539,83
DA:540,83
DA:541,83
DA:542,83
DA:543,83
DA:544,83
DA:545,83
DA:546,83
DA:547,83
DA:548,83
DA:549,83
DA:550,83
DA:551,83
DA:552,83
DA:553,83
DA:554,83
DA:555,83
DA:556,83
DA:557,83
DA:559,0
DA:560,0
DA:561,0
DA:562,0
DA:563,0
DA:564,0
DA:565,0
DA:566,0
DA:567,0
DA:572,4
DA:573,4
DA:574,4
DA:577,0
DA:578,0
DA:579,0
DA:583,2
DA:584,2
DA:585,2
DA:586,2
DA:587,2
DA:588,4
DA:589,2
DA:590,1
DA:591,1
DA:592,1
DA:593,1
DA:594,1
DA:595,0
DA:596,1
DA:599,0
DA:600,0
DA:601,0
DA:602,0
DA:604,1
DA:605,1
DA:608,0
DA:609,0
DA:611,0
DA:612,0
DA:614,0
DA:615,0
DA:616,0
DA:617,0
DA:618,0
DA:619,0
DA:623,2
DA:624,2
DA:634,8
DA:635,8
DA:636,8
DA:637,8
DA:638,8
DA:639,8
DA:640,8
DA:641,8
DA:642,8
DA:710,1
DA:763,1
DA:765,1
DA:766,1
DA:767,1
DA:768,1
DA:769,1
DA:772,1
DA:775,1
DA:779,1
DA:780,1
DA:781,1
DA:782,1
DA:783,1
DA:784,1
DA:785,1
DA:786,1
DA:787,1
DA:788,1
DA:789,1
DA:790,1
DA:791,1
DA:792,1
DA:793,1
DA:794,1
DA:795,1
DA:796,1
BRF:0
BRH:0
LF:464
LH:379
end_of_record
SF:G:\orgin_claude_code\claude-code-main\deepseek_novel_agent\crates\novel-core\src\fork.rs
FN:28,_RNvMNtCskOvt1kg1spG_10novel_core4forkNtB2_16ConversationFork14build_messages
FN:32,_RNvMNtCskOvt1kg1spG_10novel_core4forkNtB2_16ConversationFork8validate
FN:97,_RNvMs_NtCskOvt1kg1spG_10novel_core4forkNtB4_18ForkedAgentContext20increment_react_loop
FN:93,_RNvMs_NtCskOvt1kg1spG_10novel_core4forkNtB4_18ForkedAgentContext22build_request_messages
FN:52,_RNvMs_NtCskOvt1kg1spG_10novel_core4forkNtB4_18ForkedAgentContext4fork
FN:97,_RNvMs_NtCsgAl8xIys83E_10novel_core4forkNtB4_18ForkedAgentContext20increment_react_loop
FN:93,_RNvMs_NtCsgAl8xIys83E_10novel_core4forkNtB4_18ForkedAgentContext22build_request_messages
FN:28,_RNvMNtCsgAl8xIys83E_10novel_core4forkNtB2_16ConversationFork14build_messages
FN:32,_RNvMNtCsgAl8xIys83E_10novel_core4forkNtB2_16ConversationFork8validate
FN:52,_RNvMs_NtCsgAl8xIys83E_10novel_core4forkNtB4_18ForkedAgentContext4fork
FN:111,_RNvNtNtCsgAl8xIys83E_10novel_core4fork5tests3msg
FNDA:3,_RNvMNtCskOvt1kg1spG_10novel_core4forkNtB2_16ConversationFork14build_messages
FNDA:3,_RNvMNtCskOvt1kg1spG_10novel_core4forkNtB2_16ConversationFork8validate
FNDA:0,_RNvMs_NtCskOvt1kg1spG_10novel_core4forkNtB4_18ForkedAgentContext20increment_react_loop
FNDA:0,_RNvMs_NtCskOvt1kg1spG_10novel_core4forkNtB4_18ForkedAgentContext22build_request_messages
FNDA:4,_RNvMs_NtCskOvt1kg1spG_10novel_core4forkNtB4_18ForkedAgentContext4fork
FNDA:0,_RNvMs_NtCsgAl8xIys83E_10novel_core4forkNtB4_18ForkedAgentContext20increment_react_loop
FNDA:0,_RNvMs_NtCsgAl8xIys83E_10novel_core4forkNtB4_18ForkedAgentContext22build_request_messages
FNDA:7,_RNvMNtCsgAl8xIys83E_10novel_core4forkNtB2_16ConversationFork14build_messages
FNDA:10,_RNvMNtCsgAl8xIys83E_10novel_core4forkNtB2_16ConversationFork8validate
FNDA:8,_RNvMs_NtCsgAl8xIys83E_10novel_core4forkNtB4_18ForkedAgentContext4fork
FNDA:5,_RNvNtNtCsgAl8xIys83E_10novel_core4fork5tests3msg
FNF:6
FNH:4
DA:28,10
DA:29,10
DA:30,10
DA:32,13
DA:33,13
DA:34,2
DA:35,11
DA:36,11
DA:37,1
DA:38,10
DA:39,10
DA:40,13
DA:52,12
DA:53,12
DA:54,12
DA:55,12
DA:56,12
DA:57,12
DA:58,12
DA:59,12
DA:60,12
DA:61,12
DA:62,1
DA:63,11
DA:64,11
DA:65,11
DA:66,0
DA:67,11
DA:68,11
DA:69,11
DA:70,9
DA:71,9
DA:72,9
DA:73,9
DA:74,9
DA:75,9
DA:76,9
DA:77,9
DA:78,9
DA:79,9
DA:80,9
DA:81,9
DA:82,9
DA:83,9
DA:84,9
DA:85,9
DA:86,9
DA:87,9
DA:88,9
DA:89,9
DA:90,9
DA:91,12
DA:93,0
DA:94,0
DA:95,0
DA:97,0
DA:98,0
DA:99,0
DA:100,0
DA:101,0
DA:102,0
DA:103,0
DA:111,5
DA:112,5
DA:113,5
DA:114,5
DA:115,5
DA:116,5
DA:117,5
DA:118,5
DA:119,5
BRF:0
BRH:0
LF:71
LH:60
end_of_record
SF:G:\orgin_claude_code\claude-code-main\deepseek_novel_agent\crates\novel-core\src\fork_transcript.rs
FN:15,_RNvNtCskOvt1kg1spG_10novel_core15fork_transcript15create_fork_run
FN:37,_RNvNtCskOvt1kg1spG_10novel_core15fork_transcript15finish_fork_run
FN:11,_RNvNtCskOvt1kg1spG_10novel_core15fork_transcript15new_fork_run_id
FN:27,_RNvNtCskOvt1kg1spG_10novel_core15fork_transcript20persist_fork_message
FN:11,_RNvNtCsgAl8xIys83E_10novel_core15fork_transcript15new_fork_run_id
FN:15,_RNvNtCsgAl8xIys83E_10novel_core15fork_transcript15create_fork_run
FN:37,_RNvNtCsgAl8xIys83E_10novel_core15fork_transcript15finish_fork_run
FN:27,_RNvNtCsgAl8xIys83E_10novel_core15fork_transcript20persist_fork_message
FNDA:0,_RNvNtCskOvt1kg1spG_10novel_core15fork_transcript15create_fork_run
FNDA:0,_RNvNtCskOvt1kg1spG_10novel_core15fork_transcript15finish_fork_run
FNDA:0,_RNvNtCskOvt1kg1spG_10novel_core15fork_transcript15new_fork_run_id
FNDA:0,_RNvNtCskOvt1kg1spG_10novel_core15fork_transcript20persist_fork_message
FNDA:0,_RNvNtCsgAl8xIys83E_10novel_core15fork_transcript15new_fork_run_id
FNDA:4,_RNvNtCsgAl8xIys83E_10novel_core15fork_transcript15create_fork_run
FNDA:4,_RNvNtCsgAl8xIys83E_10novel_core15fork_transcript15finish_fork_run
FNDA:12,_RNvNtCsgAl8xIys83E_10novel_core15fork_transcript20persist_fork_message
FNF:4
FNH:3
DA:11,0
DA:12,0
DA:13,0
DA:15,4
DA:16,4
DA:17,4
DA:18,4
DA:19,4
DA:20,4
DA:21,4
DA:22,4
DA:23,4
DA:24,4
DA:25,4
DA:27,12
DA:28,12
DA:29,12
DA:30,12
DA:31,12
DA:32,12
DA:33,12
DA:34,12
DA:35,12
DA:37,4
DA:38,4
DA:39,4
DA:40,4
DA:41,4
DA:42,4
DA:43,4
DA:44,4
DA:45,4
BRF:0
BRH:0
LF:32
LH:29
end_of_record
SF:G:\orgin_claude_code\claude-code-main\deepseek_novel_agent\crates\novel-core\src\hooks.rs
FN:80,_RNvNtCskOvt1kg1spG_10novel_core5hooks15matcher_matches
FN:9,_RNvNtCskOvt1kg1spG_10novel_core5hooks19default_hook_config
FN:60,_RNvNtCskOvt1kg1spG_10novel_core5hooks22tool_schemas_for_agent
FN:16,_RNvNtCskOvt1kg1spG_10novel_core5hooks23run_post_tool_use_hooks
FN:44,_RNvNtCskOvt1kg1spG_10novel_core5hooks27knowledge_auditor_hook_task
FN:99,_RNvNtCskOvt1kg1spG_10novel_core5hooks8truncate
FN:67,_RNCNCNvNtCskOvt1kg1spG_10novel_core5hooks22tool_schemas_for_agent00B7_
FN:91,_RNCNvNtCskOvt1kg1spG_10novel_core5hooks15matcher_matches0B5_
FN:66,_RNCNvNtCskOvt1kg1spG_10novel_core5hooks22tool_schemas_for_agent0B5_
FN:143,_RNvNtNtCsgAl8xIys83E_10novel_core5hooks5testss_21tool_schemas_filtered
FN:112,_RNvNtNtCsgAl8xIys83E_10novel_core5hooks5testss_28default_hook_config_is_empty
FN:136,_RNvNtNtCsgAl8xIys83E_10novel_core5hooks5testss_42knowledge_auditor_hook_skips_when_no_hooks
FN:80,_RNvNtCsgAl8xIys83E_10novel_core5hooks15matcher_matches
FN:9,_RNvNtCsgAl8xIys83E_10novel_core5hooks19default_hook_config
FN:60,_RNvNtCsgAl8xIys83E_10novel_core5hooks22tool_schemas_for_agent
FN:16,_RNvNtCsgAl8xIys83E_10novel_core5hooks23run_post_tool_use_hooks
FN:44,_RNvNtCsgAl8xIys83E_10novel_core5hooks27knowledge_auditor_hook_task
FN:99,_RNvNtCsgAl8xIys83E_10novel_core5hooks8truncate
FN:67,_RNCNCNvNtCsgAl8xIys83E_10novel_core5hooks22tool_schemas_for_agent00B7_
FN:91,_RNCNvNtCsgAl8xIys83E_10novel_core5hooks15matcher_matches0B5_
FN:66,_RNCNvNtCsgAl8xIys83E_10novel_core5hooks22tool_schemas_for_agent0B5_
FNDA:0,_RNvNtCskOvt1kg1spG_10novel_core5hooks15matcher_matches
FNDA:9,_RNvNtCskOvt1kg1spG_10novel_core5hooks19default_hook_config
FNDA:8,_RNvNtCskOvt1kg1spG_10novel_core5hooks22tool_schemas_for_agent
FNDA:0,_RNvNtCskOvt1kg1spG_10novel_core5hooks23run_post_tool_use_hooks
FNDA:0,_RNvNtCskOvt1kg1spG_10novel_core5hooks27knowledge_auditor_hook_task
FNDA:0,_RNvNtCskOvt1kg1spG_10novel_core5hooks8truncate
FNDA:184,_RNCNCNvNtCskOvt1kg1spG_10novel_core5hooks22tool_schemas_for_agent00B7_
FNDA:0,_RNCNvNtCskOvt1kg1spG_10novel_core5hooks15matcher_matches0B5_
FNDA:184,_RNCNvNtCskOvt1kg1spG_10novel_core5hooks22tool_schemas_for_agent0B5_
FNDA:1,_RNvNtNtCsgAl8xIys83E_10novel_core5hooks5testss_21tool_schemas_filtered
FNDA:1,_RNvNtNtCsgAl8xIys83E_10novel_core5hooks5testss_28default_hook_config_is_empty
FNDA:1,_RNvNtNtCsgAl8xIys83E_10novel_core5hooks5testss_42knowledge_auditor_hook_skips_when_no_hooks
FNDA:6,_RNvNtCsgAl8xIys83E_10novel_core5hooks15matcher_matches
FNDA:35,_RNvNtCsgAl8xIys83E_10novel_core5hooks19default_hook_config
FNDA:92,_RNvNtCsgAl8xIys83E_10novel_core5hooks22tool_schemas_for_agent
FNDA:2,_RNvNtCsgAl8xIys83E_10novel_core5hooks23run_post_tool_use_hooks
FNDA:2,_RNvNtCsgAl8xIys83E_10novel_core5hooks27knowledge_auditor_hook_task
FNDA:0,_RNvNtCsgAl8xIys83E_10novel_core5hooks8truncate
FNDA:2031,_RNCNCNvNtCsgAl8xIys83E_10novel_core5hooks22tool_schemas_for_agent00B7_
FNDA:0,_RNCNvNtCsgAl8xIys83E_10novel_core5hooks15matcher_matches0B5_
FNDA:2032,_RNCNvNtCsgAl8xIys83E_10novel_core5hooks22tool_schemas_for_agent0B5_
FNF:12
FNH:10
DA:9,44
DA:10,44
DA:11,44
DA:12,44
DA:13,44
DA:16,2
DA:17,2
DA:18,2
DA:19,2
DA:20,2
DA:21,2
DA:22,2
DA:24,0
DA:25,0
DA:26,2
DA:28,0
DA:29,0
DA:30,0
DA:31,0
DA:32,0
DA:33,0
DA:34,0
DA:35,0
DA:36,0
DA:38,0
DA:40,2
DA:41,2
DA:44,2
DA:45,2
DA:46,2
DA:47,2
DA:48,2
DA:49,2
DA:50,2
DA:51,2
DA:52,2
DA:53,0
DA:54,0
DA:55,0
DA:56,0
DA:57,0
DA:58,2
DA:60,100
DA:61,100
DA:62,100
DA:63,100
DA:64,100
DA:65,100
DA:66,2216
DA:67,2216
DA:68,2215
DA:69,2215
DA:70,2215
DA:71,682
DA:72,682
DA:73,1533
DA:74,2215
DA:75,2215
DA:76,2216
DA:77,100
DA:78,100
DA:80,6
DA:81,6
DA:82,2
DA:83,4
DA:84,4
DA:85,0
DA:86,0
DA:87,0
DA:88,0
DA:89,0
DA:91,0
DA:92,4
DA:93,4
DA:94,2
DA:95,2
DA:96,2
DA:97,6
DA:99,0
DA:100,0
DA:101,0
DA:103,0
DA:105,0
DA:112,1
DA:113,1
DA:114,1
DA:115,1
DA:136,1
DA:137,1
DA:138,1
DA:139,1
DA:140,1
DA:143,1
DA:144,1
DA:145,1
DA:146,1
DA:147,1
DA:148,1
BRF:0
BRH:0
LF:101
LH:72
end_of_record
SF:G:\orgin_claude_code\claude-code-main\deepseek_novel_agent\crates\novel-core\src\interrupt.rs
FN:15,_RNvMNtCskOvt1kg1spG_10novel_core9interruptNtB2_15InterruptReason12parse_reason
FN:68,_RNvMs0_NtCskOvt1kg1spG_10novel_core9interruptNtB5_15AbortController10is_aborted
FN:80,_RNvMs0_NtCskOvt1kg1spG_10novel_core9interruptNtB5_15AbortController11cancel_flag
FN:45,_RNvMs0_NtCskOvt1kg1spG_10novel_core9interruptNtB5_15AbortController3new
FN:63,_RNvMs0_NtCskOvt1kg1spG_10novel_core9interruptNtB5_15AbortController5clear
FN:72,_RNvMs0_NtCskOvt1kg1spG_10novel_core9interruptNtB5_15AbortController6reason
FN:54,_RNvMs0_NtCskOvt1kg1spG_10novel_core9interruptNtB5_15AbortController6shared
FN:58,_RNvMs0_NtCskOvt1kg1spG_10novel_core9interruptNtB5_15AbortController7request
FN:76,_RNvMs0_NtCskOvt1kg1spG_10novel_core9interruptNtB5_15AbortController9subscribe
FN:86,_RNvXs1_NtCskOvt1kg1spG_10novel_core9interruptNtB5_15AbortControllerNtNtCs8icZUrvfcq9_4core7default7Default7default
FN:28,_RNvXs_NtCskOvt1kg1spG_10novel_core9interruptNtB4_15InterruptReasonNtNtNtCs8icZUrvfcq9_4core3str6traits7FromStr8from_str
FN:86,_RNvXs1_NtCsgAl8xIys83E_10novel_core9interruptNtB5_15AbortControllerNtNtCs8icZUrvfcq9_4core7default7Default7default
FN:15,_RNvMNtCsgAl8xIys83E_10novel_core9interruptNtB2_15InterruptReason12parse_reason
FN:68,_RNvMs0_NtCsgAl8xIys83E_10novel_core9interruptNtB5_15AbortController10is_aborted
FN:80,_RNvMs0_NtCsgAl8xIys83E_10novel_core9interruptNtB5_15AbortController11cancel_flag
FN:45,_RNvMs0_NtCsgAl8xIys83E_10novel_core9interruptNtB5_15AbortController3new
FN:63,_RNvMs0_NtCsgAl8xIys83E_10novel_core9interruptNtB5_15AbortController5clear
FN:72,_RNvMs0_NtCsgAl8xIys83E_10novel_core9interruptNtB5_15AbortController6reason
FN:54,_RNvMs0_NtCsgAl8xIys83E_10novel_core9interruptNtB5_15AbortController6shared
FN:58,_RNvMs0_NtCsgAl8xIys83E_10novel_core9interruptNtB5_15AbortController7request
FN:76,_RNvMs0_NtCsgAl8xIys83E_10novel_core9interruptNtB5_15AbortController9subscribe
FN:28,_RNvXs_NtCsgAl8xIys83E_10novel_core9interruptNtB4_15InterruptReasonNtNtNtCs8icZUrvfcq9_4core3str6traits7FromStr8from_str
FN:96,_RNvNtNtCsgAl8xIys83E_10novel_core9interrupt5testss_17request_and_clear
FN:107,_RNvNtNtCsgAl8xIys83E_10novel_core9interrupt5testss_20parse_reason_strings
FNDA:0,_RNvMNtCskOvt1kg1spG_10novel_core9interruptNtB2_15InterruptReason12parse_reason
FNDA:16,_RNvMs0_NtCskOvt1kg1spG_10novel_core9interruptNtB5_15AbortController10is_aborted
FNDA:0,_RNvMs0_NtCskOvt1kg1spG_10novel_core9interruptNtB5_15AbortController11cancel_flag
FNDA:9,_RNvMs0_NtCskOvt1kg1spG_10novel_core9interruptNtB5_15AbortController3new
FNDA:16,_RNvMs0_NtCskOvt1kg1spG_10novel_core9interruptNtB5_15AbortController5clear
FNDA:0,_RNvMs0_NtCskOvt1kg1spG_10novel_core9interruptNtB5_15AbortController6reason
FNDA:9,_RNvMs0_NtCskOvt1kg1spG_10novel_core9interruptNtB5_15AbortController6shared
FNDA:0,_RNvMs0_NtCskOvt1kg1spG_10novel_core9interruptNtB5_15AbortController7request
FNDA:0,_RNvMs0_NtCskOvt1kg1spG_10novel_core9interruptNtB5_15AbortController9subscribe
FNDA:0,_RNvXs1_NtCskOvt1kg1spG_10novel_core9interruptNtB5_15AbortControllerNtNtCs8icZUrvfcq9_4core7default7Default7default
FNDA:0,_RNvXs_NtCskOvt1kg1spG_10novel_core9interruptNtB4_15InterruptReasonNtNtNtCs8icZUrvfcq9_4core3str6traits7FromStr8from_str
FNDA:0,_RNvXs1_NtCsgAl8xIys83E_10novel_core9interruptNtB5_15AbortControllerNtNtCs8icZUrvfcq9_4core7default7Default7default
FNDA:2,_RNvMNtCsgAl8xIys83E_10novel_core9interruptNtB2_15InterruptReason12parse_reason
FNDA:263,_RNvMs0_NtCsgAl8xIys83E_10novel_core9interruptNtB5_15AbortController10is_aborted
FNDA:82,_RNvMs0_NtCsgAl8xIys83E_10novel_core9interruptNtB5_15AbortController11cancel_flag
FNDA:33,_RNvMs0_NtCsgAl8xIys83E_10novel_core9interruptNtB5_15AbortController3new
FNDA:13,_RNvMs0_NtCsgAl8xIys83E_10novel_core9interruptNtB5_15AbortController5clear
FNDA:82,_RNvMs0_NtCsgAl8xIys83E_10novel_core9interruptNtB5_15AbortController6reason
FNDA:32,_RNvMs0_NtCsgAl8xIys83E_10novel_core9interruptNtB5_15AbortController6shared
FNDA:1,_RNvMs0_NtCsgAl8xIys83E_10novel_core9interruptNtB5_15AbortController7request
FNDA:81,_RNvMs0_NtCsgAl8xIys83E_10novel_core9interruptNtB5_15AbortController9subscribe
FNDA:2,_RNvXs_NtCsgAl8xIys83E_10novel_core9interruptNtB4_15InterruptReasonNtNtNtCs8icZUrvfcq9_4core3str6traits7FromStr8from_str
FNDA:1,_RNvNtNtCsgAl8xIys83E_10novel_core9interrupt5testss_17request_and_clear
FNDA:1,_RNvNtNtCsgAl8xIys83E_10novel_core9interrupt5testss_20parse_reason_strings
FNF:13
FNH:12
DA:15,2
DA:16,2
DA:17,2
DA:18,1
DA:19,1
DA:20,1
DA:22,2
DA:28,2
DA:29,2
DA:30,2
DA:45,42
DA:46,42
DA:47,42
DA:48,42
DA:49,42
DA:50,42
DA:51,42
DA:52,42
DA:54,41
DA:55,41
DA:56,41
DA:58,1
DA:59,1
DA:60,1
DA:61,1
DA:63,29
DA:64,29
DA:65,29
DA:66,29
DA:68,279
DA:69,279
DA:70,279
DA:72,82
DA:73,82
DA:74,82
DA:76,81
DA:77,81
DA:78,81
DA:80,82
DA:81,82
DA:82,82
DA:86,0
DA:87,0
DA:88,0
DA:96,1
DA:97,1
DA:98,1
DA:99,1
DA:100,1
DA:101,1
DA:102,1
DA:103,1
DA:104,1
DA:107,1
DA:108,1
DA:109,1
DA:112,1
DA:113,1
DA:116,1
BRF:0
BRH:0
LF:59
LH:56
end_of_record
SF:G:\orgin_claude_code\claude-code-main\deepseek_novel_agent\crates\novel-core\src\interrupt_finalize.rs
FN:100,_RNCNCNvNtCskOvt1kg1spG_10novel_core18interrupt_finalize22finalize_stream_cancel00B7_
FN:111,_RNCNCNvNtCskOvt1kg1spG_10novel_core18interrupt_finalize22finalize_stream_cancel0s_0B7_
FN:141,_RNCNCNvNtCskOvt1kg1spG_10novel_core18interrupt_finalize29append_interrupted_tool_stubs00B7_
FN:81,_RNCNvNtCskOvt1kg1spG_10novel_core18interrupt_finalize21measure_context_usage0B5_
FN:88,_RNCNvNtCskOvt1kg1spG_10novel_core18interrupt_finalize22finalize_stream_cancel0B5_
FN:141,_RNCNvNtCskOvt1kg1spG_10novel_core18interrupt_finalize29append_interrupted_tool_stubs0B5_
FN:142,_RNCNvNtCskOvt1kg1spG_10novel_core18interrupt_finalize29append_interrupted_tool_stubss_0B5_
FN:75,_RNvNtCskOvt1kg1spG_10novel_core18interrupt_finalize21measure_context_usage
FN:86,_RNvNtCskOvt1kg1spG_10novel_core18interrupt_finalize22finalize_stream_cancel
FN:134,_RNvNtCskOvt1kg1spG_10novel_core18interrupt_finalize29append_interrupted_tool_stubs
FN:33,_RNvXNtCskOvt1kg1spG_10novel_core18interrupt_finalizeNtB2_15MainSessionSinkNtB2_16TurnFinalizeSink14push_tool_stub
FN:23,_RNvXNtCskOvt1kg1spG_10novel_core18interrupt_finalizeNtB2_15MainSessionSinkNtB2_16TurnFinalizeSink25persist_partial_assistant
FN:57,_RNvXs_NtCskOvt1kg1spG_10novel_core18interrupt_finalizeNtB4_18ForkTranscriptSinkNtB4_16TurnFinalizeSink14push_tool_stub
FN:47,_RNvXs_NtCskOvt1kg1spG_10novel_core18interrupt_finalizeNtB4_18ForkTranscriptSinkNtB4_16TurnFinalizeSink25persist_partial_assistant
FN:209,_RNCNCNvNtNtCsgAl8xIys83E_10novel_core18interrupt_finalize5testss_49finalize_stream_cancel_persists_partial_and_stubs00B9_
FN:210,_RNCNCNvNtNtCsgAl8xIys83E_10novel_core18interrupt_finalize5testss_49finalize_stream_cancel_persists_partial_and_stubs0s_0B9_
FN:156,_RNCNvNtNtCsgAl8xIys83E_10novel_core18interrupt_finalize5testss_49finalize_stream_cancel_persists_partial_and_stubs0B7_
FN:100,_RNCNCNvNtCsgAl8xIys83E_10novel_core18interrupt_finalize22finalize_stream_cancel00B7_
FN:111,_RNCNCNvNtCsgAl8xIys83E_10novel_core18interrupt_finalize22finalize_stream_cancel0s_0B7_
FN:141,_RNCNCNvNtCsgAl8xIys83E_10novel_core18interrupt_finalize29append_interrupted_tool_stubs00B7_
FN:81,_RNCNvNtCsgAl8xIys83E_10novel_core18interrupt_finalize21measure_context_usage0B5_
FN:88,_RNCNvNtCsgAl8xIys83E_10novel_core18interrupt_finalize22finalize_stream_cancel0B5_
FN:141,_RNCNvNtCsgAl8xIys83E_10novel_core18interrupt_finalize29append_interrupted_tool_stubs0B5_
FN:142,_RNCNvNtCsgAl8xIys83E_10novel_core18interrupt_finalize29append_interrupted_tool_stubss_0B5_
FN:156,_RNvNtNtCsgAl8xIys83E_10novel_core18interrupt_finalize5testss_49finalize_stream_cancel_persists_partial_and_stubs
FN:214,_RNvNtNtCsgAl8xIys83E_10novel_core18interrupt_finalize5testss_51append_interrupted_tool_stubs_fills_missing_results
FN:75,_RNvNtCsgAl8xIys83E_10novel_core18interrupt_finalize21measure_context_usage
FN:86,_RNvNtCsgAl8xIys83E_10novel_core18interrupt_finalize22finalize_stream_cancel
FN:134,_RNvNtCsgAl8xIys83E_10novel_core18interrupt_finalize29append_interrupted_tool_stubs
FN:33,_RNvXNtCsgAl8xIys83E_10novel_core18interrupt_finalizeNtB2_15MainSessionSinkNtB2_16TurnFinalizeSink14push_tool_stub
FN:23,_RNvXNtCsgAl8xIys83E_10novel_core18interrupt_finalizeNtB2_15MainSessionSinkNtB2_16TurnFinalizeSink25persist_partial_assistant
FN:57,_RNvXs_NtCsgAl8xIys83E_10novel_core18interrupt_finalizeNtB4_18ForkTranscriptSinkNtB4_16TurnFinalizeSink14push_tool_stub
FN:47,_RNvXs_NtCsgAl8xIys83E_10novel_core18interrupt_finalizeNtB4_18ForkTranscriptSinkNtB4_16TurnFinalizeSink25persist_partial_assistant
FNDA:0,_RNCNCNvNtCskOvt1kg1spG_10novel_core18interrupt_finalize22finalize_stream_cancel00B7_
FNDA:0,_RNCNCNvNtCskOvt1kg1spG_10novel_core18interrupt_finalize22finalize_stream_cancel0s_0B7_
FNDA:0,_RNCNCNvNtCskOvt1kg1spG_10novel_core18interrupt_finalize29append_interrupted_tool_stubs00B7_
FNDA:0,_RNCNvNtCskOvt1kg1spG_10novel_core18interrupt_finalize21measure_context_usage0B5_
FNDA:0,_RNCNvNtCskOvt1kg1spG_10novel_core18interrupt_finalize22finalize_stream_cancel0B5_
FNDA:0,_RNCNvNtCskOvt1kg1spG_10novel_core18interrupt_finalize29append_interrupted_tool_stubs0B5_
FNDA:0,_RNCNvNtCskOvt1kg1spG_10novel_core18interrupt_finalize29append_interrupted_tool_stubss_0B5_
FNDA:0,_RNvNtCskOvt1kg1spG_10novel_core18interrupt_finalize21measure_context_usage
FNDA:0,_RNvNtCskOvt1kg1spG_10novel_core18interrupt_finalize22finalize_stream_cancel
FNDA:0,_RNvNtCskOvt1kg1spG_10novel_core18interrupt_finalize29append_interrupted_tool_stubs
FNDA:0,_RNvXNtCskOvt1kg1spG_10novel_core18interrupt_finalizeNtB2_15MainSessionSinkNtB2_16TurnFinalizeSink14push_tool_stub
FNDA:0,_RNvXNtCskOvt1kg1spG_10novel_core18interrupt_finalizeNtB2_15MainSessionSinkNtB2_16TurnFinalizeSink25persist_partial_assistant
FNDA:0,_RNvXs_NtCskOvt1kg1spG_10novel_core18interrupt_finalizeNtB4_18ForkTranscriptSinkNtB4_16TurnFinalizeSink14push_tool_stub
FNDA:0,_RNvXs_NtCskOvt1kg1spG_10novel_core18interrupt_finalizeNtB4_18ForkTranscriptSinkNtB4_16TurnFinalizeSink25persist_partial_assistant
FNDA:2,_RNCNCNvNtNtCsgAl8xIys83E_10novel_core18interrupt_finalize5testss_49finalize_stream_cancel_persists_partial_and_stubs00B9_
FNDA:3,_RNCNCNvNtNtCsgAl8xIys83E_10novel_core18interrupt_finalize5testss_49finalize_stream_cancel_persists_partial_and_stubs0s_0B9_
FNDA:1,_RNCNvNtNtCsgAl8xIys83E_10novel_core18interrupt_finalize5testss_49finalize_stream_cancel_persists_partial_and_stubs0B7_
FNDA:0,_RNCNCNvNtCsgAl8xIys83E_10novel_core18interrupt_finalize22finalize_stream_cancel00B7_
FNDA:1,_RNCNCNvNtCsgAl8xIys83E_10novel_core18interrupt_finalize22finalize_stream_cancel0s_0B7_
FNDA:2,_RNCNCNvNtCsgAl8xIys83E_10novel_core18interrupt_finalize29append_interrupted_tool_stubs00B7_
FNDA:1,_RNCNvNtCsgAl8xIys83E_10novel_core18interrupt_finalize21measure_context_usage0B5_
FNDA:1,_RNCNvNtCsgAl8xIys83E_10novel_core18interrupt_finalize22finalize_stream_cancel0B5_
FNDA:2,_RNCNvNtCsgAl8xIys83E_10novel_core18interrupt_finalize29append_interrupted_tool_stubs0B5_
FNDA:2,_RNCNvNtCsgAl8xIys83E_10novel_core18interrupt_finalize29append_interrupted_tool_stubss_0B5_
FNDA:1,_RNvNtNtCsgAl8xIys83E_10novel_core18interrupt_finalize5testss_49finalize_stream_cancel_persists_partial_and_stubs
FNDA:1,_RNvNtNtCsgAl8xIys83E_10novel_core18interrupt_finalize5testss_51append_interrupted_tool_stubs_fills_missing_results
FNDA:1,_RNvNtCsgAl8xIys83E_10novel_core18interrupt_finalize21measure_context_usage
FNDA:1,_RNvNtCsgAl8xIys83E_10novel_core18interrupt_finalize22finalize_stream_cancel
FNDA:2,_RNvNtCsgAl8xIys83E_10novel_core18interrupt_finalize29append_interrupted_tool_stubs
FNDA:1,_RNvXNtCsgAl8xIys83E_10novel_core18interrupt_finalizeNtB2_15MainSessionSinkNtB2_16TurnFinalizeSink14push_tool_stub
FNDA:1,_RNvXNtCsgAl8xIys83E_10novel_core18interrupt_finalizeNtB2_15MainSessionSinkNtB2_16TurnFinalizeSink25persist_partial_assistant
FNDA:0,_RNvXs_NtCsgAl8xIys83E_10novel_core18interrupt_finalizeNtB4_18ForkTranscriptSinkNtB4_16TurnFinalizeSink14push_tool_stub
FNDA:0,_RNvXs_NtCsgAl8xIys83E_10novel_core18interrupt_finalizeNtB4_18ForkTranscriptSinkNtB4_16TurnFinalizeSink25persist_partial_assistant
FNF:19
FNH:16
DA:23,1
DA:24,1
DA:25,1
DA:26,0
DA:27,1
DA:28,1
DA:29,1
DA:30,1
DA:31,1
DA:33,1
DA:34,1
DA:35,1
DA:36,1
DA:37,1
DA:47,0
DA:48,0
DA:49,0
DA:50,0
DA:51,0
DA:52,0
DA:53,0
DA:54,0
DA:55,0
DA:57,0
DA:58,0
DA:59,0
DA:60,0
DA:61,0
DA:75,1
DA:76,1
DA:77,1
DA:78,1
DA:79,1
DA:80,1
DA:81,1
DA:82,1
DA:83,0
DA:84,1
DA:86,1
DA:87,1
DA:88,1
DA:89,1
DA:90,0
DA:91,0
DA:92,0
DA:93,0
DA:94,0
DA:95,0
DA:96,0
DA:97,0
DA:98,0
DA:99,0
DA:100,0
DA:103,1
DA:104,1
DA:105,1
DA:106,1
DA:107,1
DA:108,1
DA:109,1
DA:110,1
DA:111,1
DA:114,1
DA:115,0
DA:116,1
DA:117,1
DA:118,1
DA:119,1
DA:120,1
DA:121,1
DA:122,1
DA:124,1
DA:126,1
DA:127,1
DA:128,1
DA:131,1
DA:132,1
DA:134,2
DA:135,2
DA:136,2
DA:137,2
DA:138,2
DA:139,2
DA:140,2
DA:141,2
DA:142,2
DA:143,2
DA:144,2
DA:145,0
DA:147,2
DA:148,2
DA:156,1
DA:162,1
DA:163,1
DA:164,1
DA:165,1
DA:166,1
DA:167,1
DA:168,1
DA:169,1
DA:170,1
DA:171,1
DA:172,1
DA:173,1
DA:174,1
DA:175,1
DA:176,1
DA:177,1
DA:178,1
DA:179,1
DA:180,1
DA:181,1
DA:182,1
DA:183,1
DA:184,1
DA:185,1
DA:186,1
DA:187,1
DA:188,1
DA:189,1
DA:190,1
DA:191,1
DA:192,1
DA:193,1
DA:194,1
DA:195,1
DA:196,1
DA:197,1
DA:198,1
DA:199,1
DA:200,1
DA:201,1
DA:202,1
DA:203,1
DA:204,1
DA:205,1
DA:206,1
DA:207,1
DA:208,1
DA:209,2
DA:210,3
DA:211,1
DA:214,1
DA:215,1
DA:216,1
DA:217,1
DA:218,1
DA:219,1
DA:220,1
DA:221,1
DA:222,1
DA:223,1
DA:224,1
DA:225,1
DA:226,1
DA:227,1
DA:228,1
DA:229,1
DA:230,1
BRF:0
BRH:0
LF:170
LH:140
end_of_record
SF:G:\orgin_claude_code\claude-code-main\deepseek_novel_agent\crates\novel-core\src\llm_abort.rs
FN:6,_RNvNtCskOvt1kg1spG_10novel_core9llm_abort16map_abort_signal
FN:6,_RNvNtCsgAl8xIys83E_10novel_core9llm_abort16map_abort_signal
FNDA:0,_RNvNtCskOvt1kg1spG_10novel_core9llm_abort16map_abort_signal
FNDA:167,_RNvNtCsgAl8xIys83E_10novel_core9llm_abort16map_abort_signal
FNF:1
FNH:1
DA:6,167
DA:7,4
DA:8,1
DA:9,1
DA:10,1
DA:11,1
DA:12,163
DA:14,167
BRF:0
BRH:0
LF:8
LH:8
end_of_record
SF:G:\orgin_claude_code\claude-code-main\deepseek_novel_agent\crates\novel-core\src\llm_stream_turn.rs
FN:68,_RNvMNtCskOvt1kg1spG_10novel_core15llm_stream_turnNtNtB4_6engine11AgentEngine20call_llm_and_execute
FN:179,_RNvMNtCskOvt1kg1spG_10novel_core15llm_stream_turnNtNtB4_6engine11AgentEngine20run_offline_llm_turn
FN:61,_RNvMNtCskOvt1kg1spG_10novel_core15llm_stream_turnNtNtB4_6engine11AgentEngine24append_interrupt_message
FN:203,_RNvMNtCskOvt1kg1spG_10novel_core15llm_stream_turnNtNtB4_6engine11AgentEngine24run_live_llm_stream_turn
FN:91,_RNvMNtCskOvt1kg1spG_10novel_core15llm_stream_turnNtNtB4_6engine11AgentEngine29finish_live_stream_tool_batch
FN:249,_RNCNCNvMNtCskOvt1kg1spG_10novel_core15llm_stream_turnNtNtB8_6engine11AgentEngine24run_live_llm_stream_turn00B8_
FN:274,_RNCNCNvMNtCskOvt1kg1spG_10novel_core15llm_stream_turnNtNtB8_6engine11AgentEngine24run_live_llm_stream_turn0s0_0B8_
FN:262,_RNCNCNvMNtCskOvt1kg1spG_10novel_core15llm_stream_turnNtNtB8_6engine11AgentEngine24run_live_llm_stream_turn0s_0B8_
FN:100,_RNCNCNvMNtCskOvt1kg1spG_10novel_core15llm_stream_turnNtNtB8_6engine11AgentEngine29finish_live_stream_tool_batch00B8_
FN:147,_RNCNCNvMNtCskOvt1kg1spG_10novel_core15llm_stream_turnNtNtB8_6engine11AgentEngine29finish_live_stream_tool_batch0s_0B8_
FN:75,_RNCNvMNtCskOvt1kg1spG_10novel_core15llm_stream_turnNtNtB6_6engine11AgentEngine20call_llm_and_execute0B6_
FN:184,_RNCNvMNtCskOvt1kg1spG_10novel_core15llm_stream_turnNtNtB6_6engine11AgentEngine20run_offline_llm_turn0B6_
FN:210,_RNCNvMNtCskOvt1kg1spG_10novel_core15llm_stream_turnNtNtB6_6engine11AgentEngine24run_live_llm_stream_turn0B6_
FN:98,_RNCNvMNtCskOvt1kg1spG_10novel_core15llm_stream_turnNtNtB6_6engine11AgentEngine29finish_live_stream_tool_batch0B6_
FN:43,_RNCNvNtCskOvt1kg1spG_10novel_core15llm_stream_turn16run_abort_bridge0B5_
FN:33,_RNCNvNtCskOvt1kg1spG_10novel_core15llm_stream_turn38should_continue_inner_after_completion0B5_
FN:38,_RNCNvNtCskOvt1kg1spG_10novel_core15llm_stream_turn38should_continue_inner_after_completions_0B5_
FN:43,_RNvNtCskOvt1kg1spG_10novel_core15llm_stream_turn16run_abort_bridge
FN:370,_RNvNtCskOvt1kg1spG_10novel_core15llm_stream_turn25forward_main_stream_event
FN:23,_RNvNtCskOvt1kg1spG_10novel_core15llm_stream_turn38should_continue_inner_after_completion
FN:249,_RNCNCNvMNtCskOvt1kg1spG_10novel_core15llm_stream_turnNtNtB8_6engine11AgentEngine24run_live_llm_stream_turn00Csja0mJncq2tx_10fork_agent
FN:274,_RNCNCNvMNtCskOvt1kg1spG_10novel_core15llm_stream_turnNtNtB8_6engine11AgentEngine24run_live_llm_stream_turn0s0_0Csja0mJncq2tx_10fork_agent
FN:262,_RNCNCNvMNtCskOvt1kg1spG_10novel_core15llm_stream_turnNtNtB8_6engine11AgentEngine24run_live_llm_stream_turn0s_0Csja0mJncq2tx_10fork_agent
FN:100,_RNCNCNvMNtCskOvt1kg1spG_10novel_core15llm_stream_turnNtNtB8_6engine11AgentEngine29finish_live_stream_tool_batch00Csja0mJncq2tx_10fork_agent
FN:147,_RNCNCNvMNtCskOvt1kg1spG_10novel_core15llm_stream_turnNtNtB8_6engine11AgentEngine29finish_live_stream_tool_batch0s_0Csja0mJncq2tx_10fork_agent
FN:75,_RNCNvMNtCskOvt1kg1spG_10novel_core15llm_stream_turnNtNtB6_6engine11AgentEngine20call_llm_and_execute0Csja0mJncq2tx_10fork_agent
FN:184,_RNCNvMNtCskOvt1kg1spG_10novel_core15llm_stream_turnNtNtB6_6engine11AgentEngine20run_offline_llm_turn0Csja0mJncq2tx_10fork_agent
FN:210,_RNCNvMNtCskOvt1kg1spG_10novel_core15llm_stream_turnNtNtB6_6engine11AgentEngine24run_live_llm_stream_turn0Csja0mJncq2tx_10fork_agent
FN:98,_RNCNvMNtCskOvt1kg1spG_10novel_core15llm_stream_turnNtNtB6_6engine11AgentEngine29finish_live_stream_tool_batch0Csja0mJncq2tx_10fork_agent
FN:43,_RNCNvNtCskOvt1kg1spG_10novel_core15llm_stream_turn16run_abort_bridge0Csja0mJncq2tx_10fork_agent
FN:249,_RNCNCNvMNtCskOvt1kg1spG_10novel_core15llm_stream_turnNtNtB8_6engine11AgentEngine24run_live_llm_stream_turn00Cs90uylq1XzCH_22live_invoke_skill_turn
FN:274,_RNCNCNvMNtCskOvt1kg1spG_10novel_core15llm_stream_turnNtNtB8_6engine11AgentEngine24run_live_llm_stream_turn0s0_0Cs90uylq1XzCH_22live_invoke_skill_turn
FN:262,_RNCNCNvMNtCskOvt1kg1spG_10novel_core15llm_stream_turnNtNtB8_6engine11AgentEngine24run_live_llm_stream_turn0s_0Cs90uylq1XzCH_22live_invoke_skill_turn
FN:100,_RNCNCNvMNtCskOvt1kg1spG_10novel_core15llm_stream_turnNtNtB8_6engine11AgentEngine29finish_live_stream_tool_batch00Cs90uylq1XzCH_22live_invoke_skill_turn
FN:147,_RNCNCNvMNtCskOvt1kg1spG_10novel_core15llm_stream_turnNtNtB8_6engine11AgentEngine29finish_live_stream_tool_batch0s_0Cs90uylq1XzCH_22live_invoke_skill_turn
FN:75,_RNCNvMNtCskOvt1kg1spG_10novel_core15llm_stream_turnNtNtB6_6engine11AgentEngine20call_llm_and_execute0Cs90uylq1XzCH_22live_invoke_skill_turn
FN:184,_RNCNvMNtCskOvt1kg1spG_10novel_core15llm_stream_turnNtNtB6_6engine11AgentEngine20run_offline_llm_turn0Cs90uylq1XzCH_22live_invoke_skill_turn
FN:210,_RNCNvMNtCskOvt1kg1spG_10novel_core15llm_stream_turnNtNtB6_6engine11AgentEngine24run_live_llm_stream_turn0Cs90uylq1XzCH_22live_invoke_skill_turn
FN:98,_RNCNvMNtCskOvt1kg1spG_10novel_core15llm_stream_turnNtNtB6_6engine11AgentEngine29finish_live_stream_tool_batch0Cs90uylq1XzCH_22live_invoke_skill_turn
FN:43,_RNCNvNtCskOvt1kg1spG_10novel_core15llm_stream_turn16run_abort_bridge0Cs90uylq1XzCH_22live_invoke_skill_turn
FN:249,_RNCNCNvMNtCskOvt1kg1spG_10novel_core15llm_stream_turnNtNtB8_6engine11AgentEngine24run_live_llm_stream_turn00Cs5ts0mUYpT8u_12novel_server
FN:274,_RNCNCNvMNtCskOvt1kg1spG_10novel_core15llm_stream_turnNtNtB8_6engine11AgentEngine24run_live_llm_stream_turn0s0_0Cs5ts0mUYpT8u_12novel_server
FN:262,_RNCNCNvMNtCskOvt1kg1spG_10novel_core15llm_stream_turnNtNtB8_6engine11AgentEngine24run_live_llm_stream_turn0s_0Cs5ts0mUYpT8u_12novel_server
FN:100,_RNCNCNvMNtCskOvt1kg1spG_10novel_core15llm_stream_turnNtNtB8_6engine11AgentEngine29finish_live_stream_tool_batch00Cs5ts0mUYpT8u_12novel_server
FN:147,_RNCNCNvMNtCskOvt1kg1spG_10novel_core15llm_stream_turnNtNtB8_6engine11AgentEngine29finish_live_stream_tool_batch0s_0Cs5ts0mUYpT8u_12novel_server
FN:75,_RNCNvMNtCskOvt1kg1spG_10novel_core15llm_stream_turnNtNtB6_6engine11AgentEngine20call_llm_and_execute0Cs5ts0mUYpT8u_12novel_server
FN:184,_RNCNvMNtCskOvt1kg1spG_10novel_core15llm_stream_turnNtNtB6_6engine11AgentEngine20run_offline_llm_turn0Cs5ts0mUYpT8u_12novel_server
FN:210,_RNCNvMNtCskOvt1kg1spG_10novel_core15llm_stream_turnNtNtB6_6engine11AgentEngine24run_live_llm_stream_turn0Cs5ts0mUYpT8u_12novel_server
FN:98,_RNCNvMNtCskOvt1kg1spG_10novel_core15llm_stream_turnNtNtB6_6engine11AgentEngine29finish_live_stream_tool_batch0Cs5ts0mUYpT8u_12novel_server
FN:43,_RNCNvNtCskOvt1kg1spG_10novel_core15llm_stream_turn16run_abort_bridge0Cs5ts0mUYpT8u_12novel_server
FN:249,_RNCNCNvMNtCsgAl8xIys83E_10novel_core15llm_stream_turnNtNtB8_6engine11AgentEngine24run_live_llm_stream_turn00B8_
FN:274,_RNCNCNvMNtCsgAl8xIys83E_10novel_core15llm_stream_turnNtNtB8_6engine11AgentEngine24run_live_llm_stream_turn0s0_0B8_
FN:262,_RNCNCNvMNtCsgAl8xIys83E_10novel_core15llm_stream_turnNtNtB8_6engine11AgentEngine24run_live_llm_stream_turn0s_0B8_
FN:100,_RNCNCNvMNtCsgAl8xIys83E_10novel_core15llm_stream_turnNtNtB8_6engine11AgentEngine29finish_live_stream_tool_batch00B8_
FN:147,_RNCNCNvMNtCsgAl8xIys83E_10novel_core15llm_stream_turnNtNtB8_6engine11AgentEngine29finish_live_stream_tool_batch0s_0B8_
FN:75,_RNCNvMNtCsgAl8xIys83E_10novel_core15llm_stream_turnNtNtB6_6engine11AgentEngine20call_llm_and_execute0B6_
FN:184,_RNCNvMNtCsgAl8xIys83E_10novel_core15llm_stream_turnNtNtB6_6engine11AgentEngine20run_offline_llm_turn0B6_
FN:210,_RNCNvMNtCsgAl8xIys83E_10novel_core15llm_stream_turnNtNtB6_6engine11AgentEngine24run_live_llm_stream_turn0B6_
FN:98,_RNCNvMNtCsgAl8xIys83E_10novel_core15llm_stream_turnNtNtB6_6engine11AgentEngine29finish_live_stream_tool_batch0B6_
FN:43,_RNCNvNtCsgAl8xIys83E_10novel_core15llm_stream_turn16run_abort_bridge0B5_
FN:33,_RNCNvNtCsgAl8xIys83E_10novel_core15llm_stream_turn38should_continue_inner_after_completion0B5_
FN:38,_RNCNvNtCsgAl8xIys83E_10novel_core15llm_stream_turn38should_continue_inner_after_completions_0B5_
FN:43,_RNvNtCsgAl8xIys83E_10novel_core15llm_stream_turn16run_abort_bridge
FN:370,_RNvNtCsgAl8xIys83E_10novel_core15llm_stream_turn25forward_main_stream_event
FN:23,_RNvNtCsgAl8xIys83E_10novel_core15llm_stream_turn38should_continue_inner_after_completion
FN:512,_RNCNCNvNtNtCsgAl8xIys83E_10novel_core15llm_stream_turn5testss_41streaming_turn_hits_call_llm_via_wiremock00B9_
FN:564,_RNCNCNvNtNtCsgAl8xIys83E_10novel_core15llm_stream_turn5testss_48streaming_turn_with_tool_calls_hits_finish_batch00B9_
FN:468,_RNCNvNtNtCsgAl8xIys83E_10novel_core15llm_stream_turn5testss_41streaming_turn_hits_call_llm_via_wiremock0B7_
FN:517,_RNCNvNtNtCsgAl8xIys83E_10novel_core15llm_stream_turn5testss_48streaming_turn_with_tool_calls_hits_finish_batch0B7_
FN:68,_RNvMNtCsgAl8xIys83E_10novel_core15llm_stream_turnNtNtB4_6engine11AgentEngine20call_llm_and_execute
FN:179,_RNvMNtCsgAl8xIys83E_10novel_core15llm_stream_turnNtNtB4_6engine11AgentEngine20run_offline_llm_turn
FN:61,_RNvMNtCsgAl8xIys83E_10novel_core15llm_stream_turnNtNtB4_6engine11AgentEngine24append_interrupt_message
FN:203,_RNvMNtCsgAl8xIys83E_10novel_core15llm_stream_turnNtNtB4_6engine11AgentEngine24run_live_llm_stream_turn
FN:91,_RNvMNtCsgAl8xIys83E_10novel_core15llm_stream_turnNtNtB4_6engine11AgentEngine29finish_live_stream_tool_batch
FN:425,_RNvNtNtCsgAl8xIys83E_10novel_core15llm_stream_turn5tests11test_config
FN:436,_RNvNtNtCsgAl8xIys83E_10novel_core15llm_stream_turn5testss_41forward_main_stream_event_emits_ui_events
FN:468,_RNvNtNtCsgAl8xIys83E_10novel_core15llm_stream_turn5testss_41streaming_turn_hits_call_llm_via_wiremock
FN:517,_RNvNtNtCsgAl8xIys83E_10novel_core15llm_stream_turn5testss_48streaming_turn_with_tool_calls_hits_finish_batch
FN:249,_RNCNCNvMNtCskOvt1kg1spG_10novel_core15llm_stream_turnNtNtB8_6engine11AgentEngine24run_live_llm_stream_turn00Cs4uMLwczbohT_12novel_server
FN:274,_RNCNCNvMNtCskOvt1kg1spG_10novel_core15llm_stream_turnNtNtB8_6engine11AgentEngine24run_live_llm_stream_turn0s0_0Cs4uMLwczbohT_12novel_server
FN:262,_RNCNCNvMNtCskOvt1kg1spG_10novel_core15llm_stream_turnNtNtB8_6engine11AgentEngine24run_live_llm_stream_turn0s_0Cs4uMLwczbohT_12novel_server
FN:100,_RNCNCNvMNtCskOvt1kg1spG_10novel_core15llm_stream_turnNtNtB8_6engine11AgentEngine29finish_live_stream_tool_batch00Cs4uMLwczbohT_12novel_server
FN:147,_RNCNCNvMNtCskOvt1kg1spG_10novel_core15llm_stream_turnNtNtB8_6engine11AgentEngine29finish_live_stream_tool_batch0s_0Cs4uMLwczbohT_12novel_server
FN:75,_RNCNvMNtCskOvt1kg1spG_10novel_core15llm_stream_turnNtNtB6_6engine11AgentEngine20call_llm_and_execute0Cs4uMLwczbohT_12novel_server
FN:184,_RNCNvMNtCskOvt1kg1spG_10novel_core15llm_stream_turnNtNtB6_6engine11AgentEngine20run_offline_llm_turn0Cs4uMLwczbohT_12novel_server
FN:210,_RNCNvMNtCskOvt1kg1spG_10novel_core15llm_stream_turnNtNtB6_6engine11AgentEngine24run_live_llm_stream_turn0Cs4uMLwczbohT_12novel_server
FN:98,_RNCNvMNtCskOvt1kg1spG_10novel_core15llm_stream_turnNtNtB6_6engine11AgentEngine29finish_live_stream_tool_batch0Cs4uMLwczbohT_12novel_server
FN:43,_RNCNvNtCskOvt1kg1spG_10novel_core15llm_stream_turn16run_abort_bridge0Cs4uMLwczbohT_12novel_server
FNDA:8,_RNvMNtCskOvt1kg1spG_10novel_core15llm_stream_turnNtNtB4_6engine11AgentEngine20call_llm_and_execute
FNDA:8,_RNvMNtCskOvt1kg1spG_10novel_core15llm_stream_turnNtNtB4_6engine11AgentEngine20run_offline_llm_turn
FNDA:0,_RNvMNtCskOvt1kg1spG_10novel_core15llm_stream_turnNtNtB4_6engine11AgentEngine24append_interrupt_message
FNDA:0,_RNvMNtCskOvt1kg1spG_10novel_core15llm_stream_turnNtNtB4_6engine11AgentEngine24run_live_llm_stream_turn
FNDA:0,_RNvMNtCskOvt1kg1spG_10novel_core15llm_stream_turnNtNtB4_6engine11AgentEngine29finish_live_stream_tool_batch
FNDA:0,_RNCNCNvMNtCskOvt1kg1spG_10novel_core15llm_stream_turnNtNtB8_6engine11AgentEngine24run_live_llm_stream_turn00B8_
FNDA:0,_RNCNCNvMNtCskOvt1kg1spG_10novel_core15llm_stream_turnNtNtB8_6engine11AgentEngine24run_live_llm_stream_turn0s0_0B8_
FNDA:0,_RNCNCNvMNtCskOvt1kg1spG_10novel_core15llm_stream_turnNtNtB8_6engine11AgentEngine24run_live_llm_stream_turn0s_0B8_
FNDA:0,_RNCNCNvMNtCskOvt1kg1spG_10novel_core15llm_stream_turnNtNtB8_6engine11AgentEngine29finish_live_stream_tool_batch00B8_
FNDA:0,_RNCNCNvMNtCskOvt1kg1spG_10novel_core15llm_stream_turnNtNtB8_6engine11AgentEngine29finish_live_stream_tool_batch0s_0B8_
FNDA:0,_RNCNvMNtCskOvt1kg1spG_10novel_core15llm_stream_turnNtNtB6_6engine11AgentEngine20call_llm_and_execute0B6_
FNDA:0,_RNCNvMNtCskOvt1kg1spG_10novel_core15llm_stream_turnNtNtB6_6engine11AgentEngine20run_offline_llm_turn0B6_
FNDA:0,_RNCNvMNtCskOvt1kg1spG_10novel_core15llm_stream_turnNtNtB6_6engine11AgentEngine24run_live_llm_stream_turn0B6_
FNDA:0,_RNCNvMNtCskOvt1kg1spG_10novel_core15llm_stream_turnNtNtB6_6engine11AgentEngine29finish_live_stream_tool_batch0B6_
FNDA:0,_RNCNvNtCskOvt1kg1spG_10novel_core15llm_stream_turn16run_abort_bridge0B5_
FNDA:8,_RNCNvNtCskOvt1kg1spG_10novel_core15llm_stream_turn38should_continue_inner_after_completion0B5_
FNDA:0,_RNCNvNtCskOvt1kg1spG_10novel_core15llm_stream_turn38should_continue_inner_after_completions_0B5_
FNDA:0,_RNvNtCskOvt1kg1spG_10novel_core15llm_stream_turn16run_abort_bridge
FNDA:0,_RNvNtCskOvt1kg1spG_10novel_core15llm_stream_turn25forward_main_stream_event
FNDA:8,_RNvNtCskOvt1kg1spG_10novel_core15llm_stream_turn38should_continue_inner_after_completion
FNDA:0,_RNCNCNvMNtCskOvt1kg1spG_10novel_core15llm_stream_turnNtNtB8_6engine11AgentEngine24run_live_llm_stream_turn00Csja0mJncq2tx_10fork_agent
FNDA:0,_RNCNCNvMNtCskOvt1kg1spG_10novel_core15llm_stream_turnNtNtB8_6engine11AgentEngine24run_live_llm_stream_turn0s0_0Csja0mJncq2tx_10fork_agent
FNDA:0,_RNCNCNvMNtCskOvt1kg1spG_10novel_core15llm_stream_turnNtNtB8_6engine11AgentEngine24run_live_llm_stream_turn0s_0Csja0mJncq2tx_10fork_agent
FNDA:0,_RNCNCNvMNtCskOvt1kg1spG_10novel_core15llm_stream_turnNtNtB8_6engine11AgentEngine29finish_live_stream_tool_batch00Csja0mJncq2tx_10fork_agent
FNDA:0,_RNCNCNvMNtCskOvt1kg1spG_10novel_core15llm_stream_turnNtNtB8_6engine11AgentEngine29finish_live_stream_tool_batch0s_0Csja0mJncq2tx_10fork_agent
FNDA:7,_RNCNvMNtCskOvt1kg1spG_10novel_core15llm_stream_turnNtNtB6_6engine11AgentEngine20call_llm_and_execute0Csja0mJncq2tx_10fork_agent
FNDA:7,_RNCNvMNtCskOvt1kg1spG_10novel_core15llm_stream_turnNtNtB6_6engine11AgentEngine20run_offline_llm_turn0Csja0mJncq2tx_10fork_agent
FNDA:0,_RNCNvMNtCskOvt1kg1spG_10novel_core15llm_stream_turnNtNtB6_6engine11AgentEngine24run_live_llm_stream_turn0Csja0mJncq2tx_10fork_agent
FNDA:0,_RNCNvMNtCskOvt1kg1spG_10novel_core15llm_stream_turnNtNtB6_6engine11AgentEngine29finish_live_stream_tool_batch0Csja0mJncq2tx_10fork_agent
FNDA:0,_RNCNvNtCskOvt1kg1spG_10novel_core15llm_stream_turn16run_abort_bridge0Csja0mJncq2tx_10fork_agent
FNDA:0,_RNCNCNvMNtCskOvt1kg1spG_10novel_core15llm_stream_turnNtNtB8_6engine11AgentEngine24run_live_llm_stream_turn00Cs90uylq1XzCH_22live_invoke_skill_turn
FNDA:0,_RNCNCNvMNtCskOvt1kg1spG_10novel_core15llm_stream_turnNtNtB8_6engine11AgentEngine24run_live_llm_stream_turn0s0_0Cs90uylq1XzCH_22live_invoke_skill_turn
FNDA:0,_RNCNCNvMNtCskOvt1kg1spG_10novel_core15llm_stream_turnNtNtB8_6engine11AgentEngine24run_live_llm_stream_turn0s_0Cs90uylq1XzCH_22live_invoke_skill_turn
FNDA:0,_RNCNCNvMNtCskOvt1kg1spG_10novel_core15llm_stream_turnNtNtB8_6engine11AgentEngine29finish_live_stream_tool_batch00Cs90uylq1XzCH_22live_invoke_skill_turn
FNDA:0,_RNCNCNvMNtCskOvt1kg1spG_10novel_core15llm_stream_turnNtNtB8_6engine11AgentEngine29finish_live_stream_tool_batch0s_0Cs90uylq1XzCH_22live_invoke_skill_turn
FNDA:0,_RNCNvMNtCskOvt1kg1spG_10novel_core15llm_stream_turnNtNtB6_6engine11AgentEngine20call_llm_and_execute0Cs90uylq1XzCH_22live_invoke_skill_turn
FNDA:0,_RNCNvMNtCskOvt1kg1spG_10novel_core15llm_stream_turnNtNtB6_6engine11AgentEngine20run_offline_llm_turn0Cs90uylq1XzCH_22live_invoke_skill_turn
FNDA:0,_RNCNvMNtCskOvt1kg1spG_10novel_core15llm_stream_turnNtNtB6_6engine11AgentEngine24run_live_llm_stream_turn0Cs90uylq1XzCH_22live_invoke_skill_turn
FNDA:0,_RNCNvMNtCskOvt1kg1spG_10novel_core15llm_stream_turnNtNtB6_6engine11AgentEngine29finish_live_stream_tool_batch0Cs90uylq1XzCH_22live_invoke_skill_turn
FNDA:0,_RNCNvNtCskOvt1kg1spG_10novel_core15llm_stream_turn16run_abort_bridge0Cs90uylq1XzCH_22live_invoke_skill_turn
FNDA:0,_RNCNCNvMNtCskOvt1kg1spG_10novel_core15llm_stream_turnNtNtB8_6engine11AgentEngine24run_live_llm_stream_turn00Cs5ts0mUYpT8u_12novel_server
FNDA:0,_RNCNCNvMNtCskOvt1kg1spG_10novel_core15llm_stream_turnNtNtB8_6engine11AgentEngine24run_live_llm_stream_turn0s0_0Cs5ts0mUYpT8u_12novel_server
FNDA:0,_RNCNCNvMNtCskOvt1kg1spG_10novel_core15llm_stream_turnNtNtB8_6engine11AgentEngine24run_live_llm_stream_turn0s_0Cs5ts0mUYpT8u_12novel_server
FNDA:0,_RNCNCNvMNtCskOvt1kg1spG_10novel_core15llm_stream_turnNtNtB8_6engine11AgentEngine29finish_live_stream_tool_batch00Cs5ts0mUYpT8u_12novel_server
FNDA:0,_RNCNCNvMNtCskOvt1kg1spG_10novel_core15llm_stream_turnNtNtB8_6engine11AgentEngine29finish_live_stream_tool_batch0s_0Cs5ts0mUYpT8u_12novel_server
FNDA:0,_RNCNvMNtCskOvt1kg1spG_10novel_core15llm_stream_turnNtNtB6_6engine11AgentEngine20call_llm_and_execute0Cs5ts0mUYpT8u_12novel_server
FNDA:0,_RNCNvMNtCskOvt1kg1spG_10novel_core15llm_stream_turnNtNtB6_6engine11AgentEngine20run_offline_llm_turn0Cs5ts0mUYpT8u_12novel_server
FNDA:0,_RNCNvMNtCskOvt1kg1spG_10novel_core15llm_stream_turnNtNtB6_6engine11AgentEngine24run_live_llm_stream_turn0Cs5ts0mUYpT8u_12novel_server
FNDA:0,_RNCNvMNtCskOvt1kg1spG_10novel_core15llm_stream_turnNtNtB6_6engine11AgentEngine29finish_live_stream_tool_batch0Cs5ts0mUYpT8u_12novel_server
FNDA:0,_RNCNvNtCskOvt1kg1spG_10novel_core15llm_stream_turn16run_abort_bridge0Cs5ts0mUYpT8u_12novel_server
FNDA:81,_RNCNCNvMNtCsgAl8xIys83E_10novel_core15llm_stream_turnNtNtB8_6engine11AgentEngine24run_live_llm_stream_turn00B8_
FNDA:242,_RNCNCNvMNtCsgAl8xIys83E_10novel_core15llm_stream_turnNtNtB8_6engine11AgentEngine24run_live_llm_stream_turn0s0_0B8_
FNDA:80,_RNCNCNvMNtCsgAl8xIys83E_10novel_core15llm_stream_turnNtNtB8_6engine11AgentEngine24run_live_llm_stream_turn0s_0B8_
FNDA:0,_RNCNCNvMNtCsgAl8xIys83E_10novel_core15llm_stream_turnNtNtB8_6engine11AgentEngine29finish_live_stream_tool_batch00B8_
FNDA:80,_RNCNCNvMNtCsgAl8xIys83E_10novel_core15llm_stream_turnNtNtB8_6engine11AgentEngine29finish_live_stream_tool_batch0s_0B8_
FNDA:87,_RNCNvMNtCsgAl8xIys83E_10novel_core15llm_stream_turnNtNtB6_6engine11AgentEngine20call_llm_and_execute0B6_
FNDA:6,_RNCNvMNtCsgAl8xIys83E_10novel_core15llm_stream_turnNtNtB6_6engine11AgentEngine20run_offline_llm_turn0B6_
FNDA:81,_RNCNvMNtCsgAl8xIys83E_10novel_core15llm_stream_turnNtNtB6_6engine11AgentEngine24run_live_llm_stream_turn0B6_
FNDA:80,_RNCNvMNtCsgAl8xIys83E_10novel_core15llm_stream_turnNtNtB6_6engine11AgentEngine29finish_live_stream_tool_batch0B6_
FNDA:81,_RNCNvNtCsgAl8xIys83E_10novel_core15llm_stream_turn16run_abort_bridge0B5_
FNDA:8,_RNCNvNtCsgAl8xIys83E_10novel_core15llm_stream_turn38should_continue_inner_after_completion0B5_
FNDA:2,_RNCNvNtCsgAl8xIys83E_10novel_core15llm_stream_turn38should_continue_inner_after_completions_0B5_
FNDA:81,_RNvNtCsgAl8xIys83E_10novel_core15llm_stream_turn16run_abort_bridge
FNDA:3,_RNvNtCsgAl8xIys83E_10novel_core15llm_stream_turn25forward_main_stream_event
FNDA:10,_RNvNtCsgAl8xIys83E_10novel_core15llm_stream_turn38should_continue_inner_after_completion
FNDA:3,_RNCNCNvNtNtCsgAl8xIys83E_10novel_core15llm_stream_turn5testss_41streaming_turn_hits_call_llm_via_wiremock00B9_
FNDA:4,_RNCNCNvNtNtCsgAl8xIys83E_10novel_core15llm_stream_turn5testss_48streaming_turn_with_tool_calls_hits_finish_batch00B9_
FNDA:1,_RNCNvNtNtCsgAl8xIys83E_10novel_core15llm_stream_turn5testss_41streaming_turn_hits_call_llm_via_wiremock0B7_
FNDA:1,_RNCNvNtNtCsgAl8xIys83E_10novel_core15llm_stream_turn5testss_48streaming_turn_with_tool_calls_hits_finish_batch0B7_
FNDA:87,_RNvMNtCsgAl8xIys83E_10novel_core15llm_stream_turnNtNtB4_6engine11AgentEngine20call_llm_and_execute
FNDA:6,_RNvMNtCsgAl8xIys83E_10novel_core15llm_stream_turnNtNtB4_6engine11AgentEngine20run_offline_llm_turn
FNDA:0,_RNvMNtCsgAl8xIys83E_10novel_core15llm_stream_turnNtNtB4_6engine11AgentEngine24append_interrupt_message
FNDA:81,_RNvMNtCsgAl8xIys83E_10novel_core15llm_stream_turnNtNtB4_6engine11AgentEngine24run_live_llm_stream_turn
FNDA:80,_RNvMNtCsgAl8xIys83E_10novel_core15llm_stream_turnNtNtB4_6engine11AgentEngine29finish_live_stream_tool_batch
FNDA:2,_RNvNtNtCsgAl8xIys83E_10novel_core15llm_stream_turn5tests11test_config
FNDA:1,_RNvNtNtCsgAl8xIys83E_10novel_core15llm_stream_turn5testss_41forward_main_stream_event_emits_ui_events
FNDA:1,_RNvNtNtCsgAl8xIys83E_10novel_core15llm_stream_turn5testss_41streaming_turn_hits_call_llm_via_wiremock
FNDA:1,_RNvNtNtCsgAl8xIys83E_10novel_core15llm_stream_turn5testss_48streaming_turn_with_tool_calls_hits_finish_batch
FNDA:0,_RNCNCNvMNtCskOvt1kg1spG_10novel_core15llm_stream_turnNtNtB8_6engine11AgentEngine24run_live_llm_stream_turn00Cs4uMLwczbohT_12novel_server
FNDA:0,_RNCNCNvMNtCskOvt1kg1spG_10novel_core15llm_stream_turnNtNtB8_6engine11AgentEngine24run_live_llm_stream_turn0s0_0Cs4uMLwczbohT_12novel_server
FNDA:0,_RNCNCNvMNtCskOvt1kg1spG_10novel_core15llm_stream_turnNtNtB8_6engine11AgentEngine24run_live_llm_stream_turn0s_0Cs4uMLwczbohT_12novel_server
FNDA:0,_RNCNCNvMNtCskOvt1kg1spG_10novel_core15llm_stream_turnNtNtB8_6engine11AgentEngine29finish_live_stream_tool_batch00Cs4uMLwczbohT_12novel_server
FNDA:0,_RNCNCNvMNtCskOvt1kg1spG_10novel_core15llm_stream_turnNtNtB8_6engine11AgentEngine29finish_live_stream_tool_batch0s_0Cs4uMLwczbohT_12novel_server
FNDA:1,_RNCNvMNtCskOvt1kg1spG_10novel_core15llm_stream_turnNtNtB6_6engine11AgentEngine20call_llm_and_execute0Cs4uMLwczbohT_12novel_server
FNDA:1,_RNCNvMNtCskOvt1kg1spG_10novel_core15llm_stream_turnNtNtB6_6engine11AgentEngine20run_offline_llm_turn0Cs4uMLwczbohT_12novel_server
FNDA:0,_RNCNvMNtCskOvt1kg1spG_10novel_core15llm_stream_turnNtNtB6_6engine11AgentEngine24run_live_llm_stream_turn0Cs4uMLwczbohT_12novel_server
FNDA:0,_RNCNvMNtCskOvt1kg1spG_10novel_core15llm_stream_turnNtNtB6_6engine11AgentEngine29finish_live_stream_tool_batch0Cs4uMLwczbohT_12novel_server
FNDA:0,_RNCNvNtCskOvt1kg1spG_10novel_core15llm_stream_turn16run_abort_bridge0Cs4uMLwczbohT_12novel_server
FNF:28
FNH:26
DA:23,18
DA:24,18
DA:25,1
DA:26,17
DA:27,17
DA:28,0
DA:29,17
DA:30,17
DA:31,17
DA:32,17
DA:33,17
DA:34,17
DA:35,17
DA:36,17
DA:37,17
DA:38,17
DA:39,17
DA:40,17
DA:41,18
DA:43,81
DA:44,81
DA:46,162
DA:47,0
DA:48,81
DA:49,81
DA:51,0
DA:61,0
DA:65,0
DA:66,0
DA:68,95
DA:69,95
DA:70,95
DA:71,95
DA:72,95
DA:73,95
DA:74,95
DA:75,95
DA:76,95
DA:77,81
DA:78,81
DA:79,81
DA:80,81
DA:81,81
DA:82,81
DA:83,81
DA:84,81
DA:86,14
DA:87,14
DA:89,95
DA:91,80
DA:92,80
DA:93,80
DA:94,80
DA:95,80
DA:96,80
DA:97,80
DA:98,80
DA:99,80
DA:100,80
DA:101,0
DA:102,0
DA:103,80
DA:104,80
DA:105,0
DA:106,80
DA:107,0
DA:108,0
DA:109,0
DA:110,0
DA:111,0
DA:112,0
DA:113,0
DA:114,0
DA:115,0
DA:116,80
DA:118,80
DA:119,0
DA:120,0
DA:121,80
DA:122,80
DA:123,80
DA:124,80
DA:125,80
DA:126,80
DA:127,80
DA:128,80
DA:131,80
DA:132,80
DA:133,0
DA:134,0
DA:135,80
DA:136,80
DA:137,80
DA:138,80
DA:140,80
DA:141,80
DA:142,80
DA:144,80
DA:145,80
DA:146,80
DA:147,80
DA:148,80
DA:150,80
DA:151,0
DA:152,0
DA:153,0
DA:154,0
DA:155,0
DA:156,0
DA:157,0
DA:158,0
DA:159,0
DA:160,0
DA:161,0
DA:162,0
DA:163,80
DA:165,80
DA:166,80
DA:167,80
DA:168,80
DA:169,80
DA:170,80
DA:171,80
DA:172,80
DA:173,80
DA:174,80
DA:176,80
DA:177,80
DA:179,14
DA:180,14
DA:181,14
DA:182,14
DA:183,14
DA:184,14
DA:185,14
DA:186,14
DA:187,2
DA:188,2
DA:189,2
DA:190,2
DA:191,2
DA:192,2
DA:193,2
DA:194,2
DA:195,2
DA:196,2
DA:197,2
DA:198,2
DA:199,12
DA:200,14
DA:201,14
DA:203,81
DA:204,81
DA:205,81
DA:206,81
DA:207,81
DA:208,81
DA:209,81
DA:210,81
DA:211,81
DA:212,81
DA:213,81
DA:214,81
DA:217,0
DA:218,0
DA:221,81
DA:222,81
DA:223,81
DA:224,81
DA:225,81
DA:226,81
DA:227,81
DA:228,81
DA:229,81
DA:230,81
DA:231,81
DA:232,81
DA:233,81
DA:234,81
DA:237,81
DA:238,81
DA:239,81
DA:240,81
DA:241,81
DA:242,81
DA:245,81
DA:246,81
DA:247,81
DA:248,81
DA:249,81
DA:250,162
DA:251,81
DA:252,81
DA:253,81
DA:254,81
DA:256,81
DA:258,81
DA:259,81
DA:260,81
DA:261,81
DA:262,81
DA:263,80
DA:264,80
DA:265,80
DA:266,80
DA:268,81
DA:269,81
DA:270,81
DA:271,81
DA:272,81
DA:273,81
DA:274,242
DA:275,242
DA:276,0
DA:277,242
DA:278,242
DA:279,81
DA:280,81
DA:282,81
DA:284,81
DA:285,81
DA:286,81
DA:288,81
DA:289,0
DA:290,0
DA:291,0
DA:292,0
DA:294,81
DA:296,0
DA:297,0
DA:298,0
DA:301,81
DA:302,0
DA:303,0
DA:304,0
DA:305,0
DA:306,0
DA:307,0
DA:308,0
DA:309,0
DA:310,0
DA:311,0
DA:312,0
DA:313,0
DA:314,0
DA:315,0
DA:316,0
DA:317,0
DA:318,0
DA:319,0
DA:320,0
DA:321,0
DA:322,0
DA:323,0
DA:329,0
DA:330,0
DA:331,0
DA:332,81
DA:334,81
DA:336,0
DA:337,0
DA:342,81
DA:344,81
DA:345,0
DA:346,0
DA:347,0
DA:348,0
DA:349,81
DA:351,81
DA:352,1
DA:353,1
DA:354,1
DA:355,1
DA:356,80
DA:358,80
DA:359,80
DA:360,80
DA:361,80
DA:362,80
DA:363,80
DA:364,80
DA:365,80
DA:366,80
DA:367,81
DA:370,3
DA:371,3
DA:372,3
DA:373,3
DA:374,3
DA:375,3
DA:376,1
DA:377,1
DA:378,1
DA:379,1
DA:380,1
DA:381,1
DA:382,1
DA:383,1
DA:385,1
DA:386,1
DA:387,1
DA:388,1
DA:390,0
DA:391,0
DA:392,0
DA:393,0
DA:394,0
DA:395,0
DA:396,0
DA:397,0
DA:398,0
DA:399,1
DA:400,1
DA:401,1
DA:402,0
DA:403,0
DA:404,0
DA:405,0
DA:406,1
DA:407,1
DA:408,1
DA:409,1
DA:410,1
DA:413,3
DA:425,2
DA:426,2
DA:427,2
DA:428,2
DA:429,2
DA:430,2
DA:431,2
DA:432,2
DA:433,2
DA:436,1
DA:437,1
DA:438,1
DA:439,1
DA:440,1
DA:441,1
DA:442,1
DA:443,1
DA:444,1
DA:445,1
DA:447,1
DA:448,1
DA:449,1
DA:450,1
DA:451,1
DA:452,1
DA:453,1
DA:454,1
DA:456,1
DA:457,1
DA:458,1
DA:459,1
DA:460,1
DA:461,1
DA:462,1
DA:464,1
DA:465,1
DA:468,1
DA:469,1
DA:470,1
DA:471,1
DA:472,1
DA:474,1
DA:479,1
DA:480,1
DA:481,1
DA:482,1
DA:483,1
DA:484,1
DA:485,1
DA:486,1
DA:487,1
DA:489,1
DA:490,1
DA:491,1
DA:492,1
DA:493,1
DA:494,1
DA:495,1
DA:496,1
DA:497,1
DA:498,1
DA:500,1
DA:501,1
DA:502,1
DA:505,1
DA:507,1
DA:508,1
DA:509,1
DA:510,1
DA:511,1
DA:512,3
DA:513,1
DA:514,1
DA:517,1
DA:518,1
DA:519,1
DA:520,1
DA:521,1
DA:523,1
DA:530,1
DA:531,1
DA:532,1
DA:533,1
DA:534,1
DA:535,1
DA:536,1
DA:537,1
DA:538,1
DA:540,1
DA:541,1
DA:542,1
DA:543,1
DA:544,1
DA:545,1
DA:546,1
DA:547,1
DA:548,1
DA:549,1
DA:550,1
DA:552,1
DA:553,1
DA:554,1
DA:557,1
DA:559,1
DA:560,1
DA:561,1
DA:562,1
DA:563,1
DA:564,4
DA:565,1
DA:566,1
BRF:0
BRH:0
LF:453
LH:363
end_of_record
SF:G:\orgin_claude_code\claude-code-main\deepseek_novel_agent\crates\novel-core\src\message_bridge.rs
FN:350,_RNvNtCskOvt1kg1spG_10novel_core14message_bridge12chat_to_json
FN:310,_RNvNtCskOvt1kg1spG_10novel_core14message_bridge14stored_to_chat
FN:258,_RNvNtCskOvt1kg1spG_10novel_core14message_bridge15to_llm_messages
FN:25,_RNvNtCskOvt1kg1spG_10novel_core14message_bridge18chat_to_compaction
FN:43,_RNvNtCskOvt1kg1spG_10novel_core14message_bridge18compaction_to_chat
FN:404,_RNvNtCskOvt1kg1spG_10novel_core14message_bridge19tool_result_message
FN:377,_RNvNtCskOvt1kg1spG_10novel_core14message_bridge20assistant_with_tools
FN:85,_RNvNtCskOvt1kg1spG_10novel_core14message_bridge20scan_tool_chain_gaps
FN:170,_RNvNtCskOvt1kg1spG_10novel_core14message_bridge21is_tool_call_valid_at
FN:9,_RNvNtCskOvt1kg1spG_10novel_core14message_bridge21parse_tool_call_input
FN:125,_RNvNtCskOvt1kg1spG_10novel_core14message_bridge21repair_tool_use_chain
FN:262,_RNvNtCskOvt1kg1spG_10novel_core14message_bridge22to_llm_messages_traced
FN:61,_RNvNtCskOvt1kg1spG_10novel_core14message_bridge24chat_slice_to_compaction
FN:65,_RNvNtCskOvt1kg1spG_10novel_core14message_bridge24compaction_slice_to_chat
FN:369,_RNvNtCskOvt1kg1spG_10novel_core14message_bridge25assistant_from_completion
FN:191,_RNvNtCskOvt1kg1spG_10novel_core14message_bridge25fill_missing_tool_results
FN:147,_RNvNtCskOvt1kg1spG_10novel_core14message_bridge27remove_orphan_tool_messages
FN:129,_RNvNtCskOvt1kg1spG_10novel_core14message_bridge28repair_tool_use_chain_traced
FN:300,_RNCNCNCNvNtCskOvt1kg1spG_10novel_core14message_bridge22to_llm_messages_traced000B9_
FN:317,_RNCNCNvNtCskOvt1kg1spG_10novel_core14message_bridge14stored_to_chat00B7_
FN:326,_RNCNCNvNtCskOvt1kg1spG_10novel_core14message_bridge14stored_to_chat0s0_0B7_
FN:331,_RNCNCNvNtCskOvt1kg1spG_10novel_core14message_bridge14stored_to_chat0s1_0B7_
FN:332,_RNCNCNvNtCskOvt1kg1spG_10novel_core14message_bridge14stored_to_chat0s2_0B7_
FN:337,_RNCNCNvNtCskOvt1kg1spG_10novel_core14message_bridge14stored_to_chat0s3_0B7_
FN:338,_RNCNCNvNtCskOvt1kg1spG_10novel_core14message_bridge14stored_to_chat0s4_0B7_
FN:318,_RNCNCNvNtCskOvt1kg1spG_10novel_core14message_bridge14stored_to_chat0s_0B7_
FN:33,_RNCNCNvNtCskOvt1kg1spG_10novel_core14message_bridge18chat_to_compaction00B7_
FN:52,_RNCNCNvNtCskOvt1kg1spG_10novel_core14message_bridge18compaction_to_chat00B7_
FN:188,_RNCNCNvNtCskOvt1kg1spG_10novel_core14message_bridge21is_tool_call_valid_at00B7_
FN:297,_RNCNCNvNtCskOvt1kg1spG_10novel_core14message_bridge22to_llm_messages_traced00B7_
FN:356,_RNCNvNtCskOvt1kg1spG_10novel_core14message_bridge12chat_to_json0B5_
FN:313,_RNCNvNtCskOvt1kg1spG_10novel_core14message_bridge14stored_to_chat0B5_
FN:30,_RNCNvNtCskOvt1kg1spG_10novel_core14message_bridge18chat_to_compaction0B5_
FN:49,_RNCNvNtCskOvt1kg1spG_10novel_core14message_bridge18compaction_to_chat0B5_
FN:394,_RNCNvNtCskOvt1kg1spG_10novel_core14message_bridge20assistant_with_tools0B5_
FN:110,_RNCNvNtCskOvt1kg1spG_10novel_core14message_bridge20scan_tool_chain_gaps0B5_
FN:116,_RNCNvNtCskOvt1kg1spG_10novel_core14message_bridge20scan_tool_chain_gapss0_0B5_
FN:115,_RNCNvNtCskOvt1kg1spG_10novel_core14message_bridge20scan_tool_chain_gapss_0B5_
FN:188,_RNCNvNtCskOvt1kg1spG_10novel_core14message_bridge21is_tool_call_valid_at0B5_
FN:293,_RNCNvNtCskOvt1kg1spG_10novel_core14message_bridge22to_llm_messages_traced0B5_
FN:272,_RNCNvNtCskOvt1kg1spG_10novel_core14message_bridge22to_llm_messages_traceds0_0B5_
FN:219,_RNCNvNtCskOvt1kg1spG_10novel_core14message_bridge25fill_missing_tool_results0B5_
FN:224,_RNCNvNtCskOvt1kg1spG_10novel_core14message_bridge25fill_missing_tool_resultss0_0B5_
FN:245,_RNCNvNtCskOvt1kg1spG_10novel_core14message_bridge25fill_missing_tool_resultss1_0B5_
FN:222,_RNCNvNtCskOvt1kg1spG_10novel_core14message_bridge25fill_missing_tool_resultss_0B5_
FN:300,_RNCNCNCNvNtCsgAl8xIys83E_10novel_core14message_bridge22to_llm_messages_traced000B9_
FN:317,_RNCNCNvNtCsgAl8xIys83E_10novel_core14message_bridge14stored_to_chat00B7_
FN:326,_RNCNCNvNtCsgAl8xIys83E_10novel_core14message_bridge14stored_to_chat0s0_0B7_
FN:331,_RNCNCNvNtCsgAl8xIys83E_10novel_core14message_bridge14stored_to_chat0s1_0B7_
FN:332,_RNCNCNvNtCsgAl8xIys83E_10novel_core14message_bridge14stored_to_chat0s2_0B7_
FN:337,_RNCNCNvNtCsgAl8xIys83E_10novel_core14message_bridge14stored_to_chat0s3_0B7_
FN:338,_RNCNCNvNtCsgAl8xIys83E_10novel_core14message_bridge14stored_to_chat0s4_0B7_
FN:318,_RNCNCNvNtCsgAl8xIys83E_10novel_core14message_bridge14stored_to_chat0s_0B7_
FN:33,_RNCNCNvNtCsgAl8xIys83E_10novel_core14message_bridge18chat_to_compaction00B7_
FN:52,_RNCNCNvNtCsgAl8xIys83E_10novel_core14message_bridge18compaction_to_chat00B7_
FN:188,_RNCNCNvNtCsgAl8xIys83E_10novel_core14message_bridge21is_tool_call_valid_at00B7_
FN:297,_RNCNCNvNtCsgAl8xIys83E_10novel_core14message_bridge22to_llm_messages_traced00B7_
FN:356,_RNCNvNtCsgAl8xIys83E_10novel_core14message_bridge12chat_to_json0B5_
FN:313,_RNCNvNtCsgAl8xIys83E_10novel_core14message_bridge14stored_to_chat0B5_
FN:30,_RNCNvNtCsgAl8xIys83E_10novel_core14message_bridge18chat_to_compaction0B5_
FN:49,_RNCNvNtCsgAl8xIys83E_10novel_core14message_bridge18compaction_to_chat0B5_
FN:394,_RNCNvNtCsgAl8xIys83E_10novel_core14message_bridge20assistant_with_tools0B5_
FN:110,_RNCNvNtCsgAl8xIys83E_10novel_core14message_bridge20scan_tool_chain_gaps0B5_
FN:116,_RNCNvNtCsgAl8xIys83E_10novel_core14message_bridge20scan_tool_chain_gapss0_0B5_
FN:115,_RNCNvNtCsgAl8xIys83E_10novel_core14message_bridge20scan_tool_chain_gapss_0B5_
FN:188,_RNCNvNtCsgAl8xIys83E_10novel_core14message_bridge21is_tool_call_valid_at0B5_
FN:293,_RNCNvNtCsgAl8xIys83E_10novel_core14message_bridge22to_llm_messages_traced0B5_
FN:272,_RNCNvNtCsgAl8xIys83E_10novel_core14message_bridge22to_llm_messages_traceds0_0B5_
FN:219,_RNCNvNtCsgAl8xIys83E_10novel_core14message_bridge25fill_missing_tool_results0B5_
FN:224,_RNCNvNtCsgAl8xIys83E_10novel_core14message_bridge25fill_missing_tool_resultss0_0B5_
FN:245,_RNCNvNtCsgAl8xIys83E_10novel_core14message_bridge25fill_missing_tool_resultss1_0B5_
FN:222,_RNCNvNtCsgAl8xIys83E_10novel_core14message_bridge25fill_missing_tool_resultss_0B5_
FN:350,_RNvNtCsgAl8xIys83E_10novel_core14message_bridge12chat_to_json
FN:310,_RNvNtCsgAl8xIys83E_10novel_core14message_bridge14stored_to_chat
FN:258,_RNvNtCsgAl8xIys83E_10novel_core14message_bridge15to_llm_messages
FN:25,_RNvNtCsgAl8xIys83E_10novel_core14message_bridge18chat_to_compaction
FN:43,_RNvNtCsgAl8xIys83E_10novel_core14message_bridge18compaction_to_chat
FN:404,_RNvNtCsgAl8xIys83E_10novel_core14message_bridge19tool_result_message
FN:377,_RNvNtCsgAl8xIys83E_10novel_core14message_bridge20assistant_with_tools
FN:85,_RNvNtCsgAl8xIys83E_10novel_core14message_bridge20scan_tool_chain_gaps
FN:170,_RNvNtCsgAl8xIys83E_10novel_core14message_bridge21is_tool_call_valid_at
FN:9,_RNvNtCsgAl8xIys83E_10novel_core14message_bridge21parse_tool_call_input
FN:125,_RNvNtCsgAl8xIys83E_10novel_core14message_bridge21repair_tool_use_chain
FN:262,_RNvNtCsgAl8xIys83E_10novel_core14message_bridge22to_llm_messages_traced
FN:61,_RNvNtCsgAl8xIys83E_10novel_core14message_bridge24chat_slice_to_compaction
FN:65,_RNvNtCsgAl8xIys83E_10novel_core14message_bridge24compaction_slice_to_chat
FN:369,_RNvNtCsgAl8xIys83E_10novel_core14message_bridge25assistant_from_completion
FN:191,_RNvNtCsgAl8xIys83E_10novel_core14message_bridge25fill_missing_tool_results
FN:147,_RNvNtCsgAl8xIys83E_10novel_core14message_bridge27remove_orphan_tool_messages
FN:129,_RNvNtCsgAl8xIys83E_10novel_core14message_bridge28repair_tool_use_chain_traced
FN:436,_RNvNtNtCsgAl8xIys83E_10novel_core14message_bridge5testss_34stored_to_chat_restores_tool_calls
FN:518,_RNvNtNtCsgAl8xIys83E_10novel_core14message_bridge5testss_41assistant_from_completion_keeps_reasoning
FN:420,_RNvNtNtCsgAl8xIys83E_10novel_core14message_bridge5testss_43to_llm_messages_preserves_reasoning_content
FN:468,_RNvNtNtCsgAl8xIys83E_10novel_core14message_bridge5testss_55repair_removes_orphan_tool_without_assistant_tool_calls
FN:491,_RNvNtNtCsgAl8xIys83E_10novel_core14message_bridge5testss_57repair_fills_missing_tool_result_for_assistant_tool_calls
FN:487,_RNCNvNtNtCsgAl8xIys83E_10novel_core14message_bridge5testss_55repair_removes_orphan_tool_without_assistant_tool_calls0B7_
FN:514,_RNCNvNtNtCsgAl8xIys83E_10novel_core14message_bridge5testss_57repair_fills_missing_tool_result_for_assistant_tool_calls0B7_
FNDA:24,_RNvNtCskOvt1kg1spG_10novel_core14message_bridge12chat_to_json
FNDA:1,_RNvNtCskOvt1kg1spG_10novel_core14message_bridge14stored_to_chat
FNDA:0,_RNvNtCskOvt1kg1spG_10novel_core14message_bridge15to_llm_messages
FNDA:0,_RNvNtCskOvt1kg1spG_10novel_core14message_bridge18chat_to_compaction
FNDA:0,_RNvNtCskOvt1kg1spG_10novel_core14message_bridge18compaction_to_chat
FNDA:0,_RNvNtCskOvt1kg1spG_10novel_core14message_bridge19tool_result_message
FNDA:8,_RNvNtCskOvt1kg1spG_10novel_core14message_bridge20assistant_with_tools
FNDA:8,_RNvNtCskOvt1kg1spG_10novel_core14message_bridge20scan_tool_chain_gaps
FNDA:0,_RNvNtCskOvt1kg1spG_10novel_core14message_bridge21is_tool_call_valid_at
FNDA:0,_RNvNtCskOvt1kg1spG_10novel_core14message_bridge21parse_tool_call_input
FNDA:1,_RNvNtCskOvt1kg1spG_10novel_core14message_bridge21repair_tool_use_chain
FNDA:8,_RNvNtCskOvt1kg1spG_10novel_core14message_bridge22to_llm_messages_traced
FNDA:0,_RNvNtCskOvt1kg1spG_10novel_core14message_bridge24chat_slice_to_compaction
FNDA:0,_RNvNtCskOvt1kg1spG_10novel_core14message_bridge24compaction_slice_to_chat
FNDA:8,_RNvNtCskOvt1kg1spG_10novel_core14message_bridge25assistant_from_completion
FNDA:9,_RNvNtCskOvt1kg1spG_10novel_core14message_bridge25fill_missing_tool_results
FNDA:9,_RNvNtCskOvt1kg1spG_10novel_core14message_bridge27remove_orphan_tool_messages
FNDA:9,_RNvNtCskOvt1kg1spG_10novel_core14message_bridge28repair_tool_use_chain_traced
FNDA:0,_RNCNCNCNvNtCskOvt1kg1spG_10novel_core14message_bridge22to_llm_messages_traced000B9_
FNDA:1,_RNCNCNvNtCskOvt1kg1spG_10novel_core14message_bridge14stored_to_chat00B7_
FNDA:0,_RNCNCNvNtCskOvt1kg1spG_10novel_core14message_bridge14stored_to_chat0s0_0B7_
FNDA:0,_RNCNCNvNtCskOvt1kg1spG_10novel_core14message_bridge14stored_to_chat0s1_0B7_
FNDA:0,_RNCNCNvNtCskOvt1kg1spG_10novel_core14message_bridge14stored_to_chat0s2_0B7_
FNDA:0,_RNCNCNvNtCskOvt1kg1spG_10novel_core14message_bridge14stored_to_chat0s3_0B7_
FNDA:0,_RNCNCNvNtCskOvt1kg1spG_10novel_core14message_bridge14stored_to_chat0s4_0B7_
FNDA:0,_RNCNCNvNtCskOvt1kg1spG_10novel_core14message_bridge14stored_to_chat0s_0B7_
FNDA:0,_RNCNCNvNtCskOvt1kg1spG_10novel_core14message_bridge18chat_to_compaction00B7_
FNDA:0,_RNCNCNvNtCskOvt1kg1spG_10novel_core14message_bridge18compaction_to_chat00B7_
FNDA:0,_RNCNCNvNtCskOvt1kg1spG_10novel_core14message_bridge21is_tool_call_valid_at00B7_
FNDA:0,_RNCNCNvNtCskOvt1kg1spG_10novel_core14message_bridge22to_llm_messages_traced00B7_
FNDA:0,_RNCNvNtCskOvt1kg1spG_10novel_core14message_bridge12chat_to_json0B5_
FNDA:1,_RNCNvNtCskOvt1kg1spG_10novel_core14message_bridge14stored_to_chat0B5_
FNDA:0,_RNCNvNtCskOvt1kg1spG_10novel_core14message_bridge18chat_to_compaction0B5_
FNDA:0,_RNCNvNtCskOvt1kg1spG_10novel_core14message_bridge18compaction_to_chat0B5_
FNDA:0,_RNCNvNtCskOvt1kg1spG_10novel_core14message_bridge20assistant_with_tools0B5_
FNDA:0,_RNCNvNtCskOvt1kg1spG_10novel_core14message_bridge20scan_tool_chain_gaps0B5_
FNDA:0,_RNCNvNtCskOvt1kg1spG_10novel_core14message_bridge20scan_tool_chain_gapss0_0B5_
FNDA:0,_RNCNvNtCskOvt1kg1spG_10novel_core14message_bridge20scan_tool_chain_gapss_0B5_
FNDA:0,_RNCNvNtCskOvt1kg1spG_10novel_core14message_bridge21is_tool_call_valid_at0B5_
FNDA:36,_RNCNvNtCskOvt1kg1spG_10novel_core14message_bridge22to_llm_messages_traced0B5_
FNDA:0,_RNCNvNtCskOvt1kg1spG_10novel_core14message_bridge22to_llm_messages_traceds0_0B5_
FNDA:0,_RNCNvNtCskOvt1kg1spG_10novel_core14message_bridge25fill_missing_tool_results0B5_
FNDA:0,_RNCNvNtCskOvt1kg1spG_10novel_core14message_bridge25fill_missing_tool_resultss0_0B5_
FNDA:0,_RNCNvNtCskOvt1kg1spG_10novel_core14message_bridge25fill_missing_tool_resultss1_0B5_
FNDA:0,_RNCNvNtCskOvt1kg1spG_10novel_core14message_bridge25fill_missing_tool_resultss_0B5_
FNDA:3160,_RNCNCNCNvNtCsgAl8xIys83E_10novel_core14message_bridge22to_llm_messages_traced000B9_
FNDA:4,_RNCNCNvNtCsgAl8xIys83E_10novel_core14message_bridge14stored_to_chat00B7_
FNDA:0,_RNCNCNvNtCsgAl8xIys83E_10novel_core14message_bridge14stored_to_chat0s0_0B7_
FNDA:0,_RNCNCNvNtCsgAl8xIys83E_10novel_core14message_bridge14stored_to_chat0s1_0B7_
FNDA:0,_RNCNCNvNtCsgAl8xIys83E_10novel_core14message_bridge14stored_to_chat0s2_0B7_
FNDA:1,_RNCNCNvNtCsgAl8xIys83E_10novel_core14message_bridge14stored_to_chat0s3_0B7_
FNDA:1,_RNCNCNvNtCsgAl8xIys83E_10novel_core14message_bridge14stored_to_chat0s4_0B7_
FNDA:0,_RNCNCNvNtCsgAl8xIys83E_10novel_core14message_bridge14stored_to_chat0s_0B7_
FNDA:0,_RNCNCNvNtCsgAl8xIys83E_10novel_core14message_bridge18chat_to_compaction00B7_
FNDA:0,_RNCNCNvNtCsgAl8xIys83E_10novel_core14message_bridge18compaction_to_chat00B7_
FNDA:3161,_RNCNCNvNtCsgAl8xIys83E_10novel_core14message_bridge21is_tool_call_valid_at00B7_
FNDA:3160,_RNCNCNvNtCsgAl8xIys83E_10novel_core14message_bridge22to_llm_messages_traced00B7_
FNDA:0,_RNCNvNtCsgAl8xIys83E_10novel_core14message_bridge12chat_to_json0B5_
FNDA:4,_RNCNvNtCsgAl8xIys83E_10novel_core14message_bridge14stored_to_chat0B5_
FNDA:0,_RNCNvNtCsgAl8xIys83E_10novel_core14message_bridge18chat_to_compaction0B5_
FNDA:0,_RNCNvNtCsgAl8xIys83E_10novel_core14message_bridge18compaction_to_chat0B5_
FNDA:84,_RNCNvNtCsgAl8xIys83E_10novel_core14message_bridge20assistant_with_tools0B5_
FNDA:3160,_RNCNvNtCsgAl8xIys83E_10novel_core14message_bridge20scan_tool_chain_gaps0B5_
FNDA:0,_RNCNvNtCsgAl8xIys83E_10novel_core14message_bridge20scan_tool_chain_gapss0_0B5_
FNDA:0,_RNCNvNtCsgAl8xIys83E_10novel_core14message_bridge20scan_tool_chain_gapss_0B5_
FNDA:3161,_RNCNvNtCsgAl8xIys83E_10novel_core14message_bridge21is_tool_call_valid_at0B5_
FNDA:6505,_RNCNvNtCsgAl8xIys83E_10novel_core14message_bridge22to_llm_messages_traced0B5_
FNDA:0,_RNCNvNtCsgAl8xIys83E_10novel_core14message_bridge22to_llm_messages_traceds0_0B5_
FNDA:3162,_RNCNvNtCsgAl8xIys83E_10novel_core14message_bridge25fill_missing_tool_results0B5_
FNDA:1,_RNCNvNtCsgAl8xIys83E_10novel_core14message_bridge25fill_missing_tool_resultss0_0B5_
FNDA:2,_RNCNvNtCsgAl8xIys83E_10novel_core14message_bridge25fill_missing_tool_resultss1_0B5_
FNDA:1,_RNCNvNtCsgAl8xIys83E_10novel_core14message_bridge25fill_missing_tool_resultss_0B5_
FNDA:244,_RNvNtCsgAl8xIys83E_10novel_core14message_bridge12chat_to_json
FNDA:2,_RNvNtCsgAl8xIys83E_10novel_core14message_bridge14stored_to_chat
FNDA:3,_RNvNtCsgAl8xIys83E_10novel_core14message_bridge15to_llm_messages
FNDA:6,_RNvNtCsgAl8xIys83E_10novel_core14message_bridge18chat_to_compaction
FNDA:4,_RNvNtCsgAl8xIys83E_10novel_core14message_bridge18compaction_to_chat
FNDA:93,_RNvNtCsgAl8xIys83E_10novel_core14message_bridge19tool_result_message
FNDA:96,_RNvNtCsgAl8xIys83E_10novel_core14message_bridge20assistant_with_tools
FNDA:94,_RNvNtCsgAl8xIys83E_10novel_core14message_bridge20scan_tool_chain_gaps
FNDA:3165,_RNvNtCsgAl8xIys83E_10novel_core14message_bridge21is_tool_call_valid_at
FNDA:170,_RNvNtCsgAl8xIys83E_10novel_core14message_bridge21parse_tool_call_input
FNDA:3,_RNvNtCsgAl8xIys83E_10novel_core14message_bridge21repair_tool_use_chain
FNDA:94,_RNvNtCsgAl8xIys83E_10novel_core14message_bridge22to_llm_messages_traced
FNDA:2,_RNvNtCsgAl8xIys83E_10novel_core14message_bridge24chat_slice_to_compaction
FNDA:1,_RNvNtCsgAl8xIys83E_10novel_core14message_bridge24compaction_slice_to_chat
FNDA:96,_RNvNtCsgAl8xIys83E_10novel_core14message_bridge25assistant_from_completion
FNDA:97,_RNvNtCsgAl8xIys83E_10novel_core14message_bridge25fill_missing_tool_results
FNDA:97,_RNvNtCsgAl8xIys83E_10novel_core14message_bridge27remove_orphan_tool_messages
FNDA:97,_RNvNtCsgAl8xIys83E_10novel_core14message_bridge28repair_tool_use_chain_traced
FNDA:1,_RNvNtNtCsgAl8xIys83E_10novel_core14message_bridge5testss_34stored_to_chat_restores_tool_calls
FNDA:1,_RNvNtNtCsgAl8xIys83E_10novel_core14message_bridge5testss_41assistant_from_completion_keeps_reasoning
FNDA:1,_RNvNtNtCsgAl8xIys83E_10novel_core14message_bridge5testss_43to_llm_messages_preserves_reasoning_content
FNDA:1,_RNvNtNtCsgAl8xIys83E_10novel_core14message_bridge5testss_55repair_removes_orphan_tool_without_assistant_tool_calls
FNDA:1,_RNvNtNtCsgAl8xIys83E_10novel_core14message_bridge5testss_57repair_fills_missing_tool_result_for_assistant_tool_calls
FNDA:2,_RNCNvNtNtCsgAl8xIys83E_10novel_core14message_bridge5testss_55repair_removes_orphan_tool_without_assistant_tool_calls0B7_
FNDA:3,_RNCNvNtNtCsgAl8xIys83E_10novel_core14message_bridge5testss_57repair_fills_missing_tool_result_for_assistant_tool_calls0B7_
FNF:52
FNH:40
DA:9,170
DA:10,170
DA:11,170
DA:12,0
DA:13,0
DA:20,0
DA:23,170
DA:25,6
DA:27,6
DA:28,6
DA:29,6
DA:30,6
DA:31,0
DA:32,0
DA:33,0
DA:34,0
DA:35,0
DA:36,0
DA:37,0
DA:38,0
DA:39,6
DA:41,6
DA:43,4
DA:45,4
DA:46,4
DA:47,4
DA:48,4
DA:49,4
DA:50,0
DA:51,0
DA:52,0
DA:53,0
DA:54,0
DA:55,0
DA:56,0
DA:57,0
DA:59,4
DA:61,2
DA:62,2
DA:63,2
DA:65,1
DA:66,1
DA:67,1
DA:85,102
DA:86,102
DA:87,102
DA:88,3486
DA:89,3384
DA:90,213
DA:91,213
DA:92,3171
DA:93,3171
DA:94,3160
DA:96,11
DA:97,11
DA:100,3160
DA:101,3160
DA:102,6320
DA:103,3160
DA:104,3160
DA:105,3160
DA:106,3160
DA:108,3160
DA:109,3160
DA:110,3160
DA:111,3160
DA:112,3160
DA:113,0
DA:114,0
DA:115,0
DA:116,0
DA:118,3160
DA:119,3160
DA:121,102
DA:122,102
DA:125,4
DA:126,4
DA:127,4
DA:129,106
DA:130,106
DA:131,106
DA:132,106
DA:133,106
DA:134,106
DA:135,106
DA:136,5
DA:139,0
DA:140,0
DA:141,0
DA:144,101
DA:145,106
DA:147,106
DA:148,106
DA:149,106
DA:150,6659
DA:151,6553
DA:152,3388
DA:153,3388
DA:154,3165
DA:155,3165
DA:156,3165
DA:157,4
DA:162,4
DA:163,4
DA:164,3161
DA:165,3161
DA:167,106
DA:168,106
DA:170,3165
DA:171,3165
DA:172,0
DA:174,3165
DA:175,3165
DA:176,0
DA:177,0
DA:178,3165
DA:179,0
DA:180,3165
DA:181,3165
DA:182,3165
DA:183,3
DA:184,3162
DA:185,3162
DA:186,3162
DA:187,3162
DA:188,3162
DA:189,3165
DA:191,106
DA:192,106
DA:193,106
DA:194,106
DA:195,106
DA:196,106
DA:197,3494
DA:198,3388
DA:199,214
DA:200,214
DA:201,3174
DA:202,3174
DA:203,3161
DA:205,13
DA:206,13
DA:209,3161
DA:210,3161
DA:211,6322
DA:212,3161
DA:213,3161
DA:214,3161
DA:215,3161
DA:217,3161
DA:218,3161
DA:219,3162
DA:220,3161
DA:221,3161
DA:222,1
DA:223,1
DA:224,1
DA:225,1
DA:229,0
DA:230,0
DA:231,0
DA:232,0
DA:233,0
DA:236,1
DA:237,1
DA:238,1
DA:239,1
DA:241,2
DA:242,2
DA:243,2
DA:244,2
DA:245,2
DA:246,1
DA:247,1
DA:248,1
DA:249,1
DA:250,1
DA:252,3160
DA:253,3161
DA:255,106
DA:256,106
DA:258,3
DA:259,3
DA:260,3
DA:262,102
DA:263,102
DA:264,102
DA:265,102
DA:266,102
DA:267,102
DA:268,0
DA:269,0
DA:270,0
DA:271,0
DA:272,0
DA:273,0
DA:274,0
DA:275,0
DA:276,0
DA:277,0
DA:278,0
DA:279,0
DA:280,0
DA:281,0
DA:282,0
DA:283,0
DA:284,0
DA:287,102
DA:288,102
DA:289,102
DA:290,102
DA:291,102
DA:292,102
DA:293,6541
DA:294,6541
DA:295,6541
DA:296,6541
DA:297,6541
DA:298,3160
DA:299,3160
DA:300,3160
DA:301,3160
DA:302,3160
DA:303,3160
DA:304,3160
DA:305,3160
DA:306,6541
DA:307,102
DA:308,102
DA:310,3
DA:311,3
DA:312,3
DA:313,5
DA:314,5
DA:315,5
DA:316,5
DA:317,5
DA:318,5
DA:319,0
DA:320,0
DA:321,0
DA:322,5
DA:323,5
DA:324,5
DA:325,5
DA:326,5
DA:327,5
DA:328,5
DA:329,5
DA:330,5
DA:331,5
DA:332,5
DA:333,5
DA:334,5
DA:335,5
DA:336,5
DA:337,5
DA:338,5
DA:339,5
DA:340,5
DA:341,5
DA:342,5
DA:343,5
DA:344,5
DA:345,5
DA:346,5
DA:347,3
DA:348,3
DA:350,268
DA:351,268
DA:352,268
DA:353,90
DA:354,178
DA:355,268
DA:356,84
DA:357,0
DA:358,0
DA:359,0
DA:360,184
DA:361,268
DA:362,0
DA:363,0
DA:364,0
DA:365,268
DA:366,268
DA:367,268
DA:369,104
DA:370,104
DA:371,104
DA:372,104
DA:373,104
DA:375,104
DA:377,104
DA:378,104
DA:379,104
DA:380,104
DA:381,104
DA:383,104
DA:384,104
DA:385,104
DA:386,104
DA:387,104
DA:388,20
DA:391,84
DA:392,84
DA:393,84
DA:394,84
DA:395,84
DA:396,84
DA:397,84
DA:398,84
DA:402,104
DA:404,93
DA:405,93
DA:406,93
DA:407,93
DA:408,93
DA:409,93
DA:410,93
DA:411,93
DA:412,93
DA:420,1
DA:421,1
DA:422,1
DA:423,1
DA:424,1
DA:425,1
DA:426,1
DA:427,1
DA:428,1
DA:429,1
DA:430,1
DA:433,1
DA:436,1
DA:437,1
DA:438,1
DA:439,1
DA:440,1
DA:441,1
DA:442,1
DA:443,1
DA:444,1
DA:445,1
DA:446,1
DA:447,1
DA:448,1
DA:449,1
DA:450,1
DA:451,1
DA:452,1
DA:453,1
DA:454,1
DA:455,1
DA:456,1
DA:457,1
DA:458,1
DA:459,1
DA:460,1
DA:461,1
DA:462,1
DA:463,1
DA:464,1
DA:465,1
DA:468,1
DA:469,1
DA:470,1
DA:471,1
DA:472,1
DA:473,1
DA:474,1
DA:475,1
DA:476,1
DA:477,1
DA:478,1
DA:479,1
DA:480,1
DA:481,1
DA:482,1
DA:483,1
DA:484,1
DA:486,1
DA:487,2
DA:488,1
DA:491,1
DA:492,1
DA:493,1
DA:494,1
DA:495,1
DA:496,1
DA:497,1
DA:498,1
DA:499,1
DA:500,1
DA:501,1
DA:502,1
DA:503,1
DA:504,1
DA:505,1
DA:506,1
DA:507,1
DA:508,1
DA:509,1
DA:510,1
DA:511,1
DA:513,1
DA:514,3
DA:515,1
DA:518,1
DA:519,1
DA:520,1
DA:521,1
DA:522,1
DA:523,1
DA:524,1
DA:525,1
DA:526,1
DA:527,1
DA:528,1
BRF:0
BRH:0
LF:442
LH:371
end_of_record
SF:G:\orgin_claude_code\claude-code-main\deepseek_novel_agent\crates\novel-core\src\messages.rs
FN:4,_RNvNtCskOvt1kg1spG_10novel_core8messages32yield_missing_tool_result_blocks
FN:14,_RNCNvNtCskOvt1kg1spG_10novel_core8messages32yield_missing_tool_result_blocks0B5_
FN:14,_RNCNvNtCsgAl8xIys83E_10novel_core8messages32yield_missing_tool_result_blocks0B5_
FN:4,_RNvNtCsgAl8xIys83E_10novel_core8messages32yield_missing_tool_result_blocks
FN:30,_RNvNtNtCsgAl8xIys83E_10novel_core8messages5testss_35missing_tool_results_from_assistant
FNDA:0,_RNvNtCskOvt1kg1spG_10novel_core8messages32yield_missing_tool_result_blocks
FNDA:0,_RNCNvNtCskOvt1kg1spG_10novel_core8messages32yield_missing_tool_result_blocks0B5_
FNDA:5,_RNCNvNtCsgAl8xIys83E_10novel_core8messages32yield_missing_tool_result_blocks0B5_
FNDA:4,_RNvNtCsgAl8xIys83E_10novel_core8messages32yield_missing_tool_result_blocks
FNDA:1,_RNvNtNtCsgAl8xIys83E_10novel_core8messages5testss_35missing_tool_results_from_assistant
FNF:3
FNH:3
DA:4,4
DA:5,4
DA:6,4
DA:7,4
DA:8,4
DA:9,0
DA:11,4
DA:12,4
DA:13,4
DA:14,5
DA:15,5
DA:16,5
DA:17,5
DA:18,5
DA:19,5
DA:20,4
DA:21,4
DA:30,1
DA:31,1
DA:32,1
DA:33,1
DA:34,1
DA:35,1
DA:36,1
DA:37,1
DA:38,1
DA:39,1
DA:40,1
DA:41,1
DA:42,1
DA:43,1
DA:44,1
DA:45,1
DA:46,1
BRF:0
BRH:0
LF:34
LH:33
end_of_record
SF:G:\orgin_claude_code\claude-code-main\deepseek_novel_agent\crates\novel-core\src\prompt_loader.rs
FN:17,_RNvNtCskOvt1kg1spG_10novel_core13prompt_loader15embedded_prompt
FN:3,_RNvNtCskOvt1kg1spG_10novel_core13prompt_loader15fallback_prompt
FN:37,_RNvNtCskOvt1kg1spG_10novel_core13prompt_loader16format_fork_task
FN:28,_RNvNtCskOvt1kg1spG_10novel_core13prompt_loader17load_agent_prompt
FN:17,_RNvNtCsgAl8xIys83E_10novel_core13prompt_loader15embedded_prompt
FN:3,_RNvNtCsgAl8xIys83E_10novel_core13prompt_loader15fallback_prompt
FN:37,_RNvNtCsgAl8xIys83E_10novel_core13prompt_loader16format_fork_task
FN:28,_RNvNtCsgAl8xIys83E_10novel_core13prompt_loader17load_agent_prompt
FN:90,_RNvNtNtCsgAl8xIys83E_10novel_core13prompt_loader5testss_35chapter_craft_analyzer_forbids_json
FN:97,_RNvNtNtCsgAl8xIys83E_10novel_core13prompt_loader5testss_36general_purpose_forbids_report_files
FN:83,_RNvNtNtCsgAl8xIys83E_10novel_core13prompt_loader5testss_39knowledge_auditor_prompt_has_next_steps
FN:73,_RNvNtNtCsgAl8xIys83E_10novel_core13prompt_loader5testss_45format_fork_task_includes_separator_and_tools
FN:104,_RNvNtNtCsgAl8xIys83E_10novel_core13prompt_loader5testss_50general_purpose_fork_task_uses_custom_task_as_body
FNDA:3,_RNvNtCskOvt1kg1spG_10novel_core13prompt_loader15embedded_prompt
FNDA:0,_RNvNtCskOvt1kg1spG_10novel_core13prompt_loader15fallback_prompt
FNDA:4,_RNvNtCskOvt1kg1spG_10novel_core13prompt_loader16format_fork_task
FNDA:3,_RNvNtCskOvt1kg1spG_10novel_core13prompt_loader17load_agent_prompt
FNDA:11,_RNvNtCsgAl8xIys83E_10novel_core13prompt_loader15embedded_prompt
FNDA:0,_RNvNtCsgAl8xIys83E_10novel_core13prompt_loader15fallback_prompt
FNDA:9,_RNvNtCsgAl8xIys83E_10novel_core13prompt_loader16format_fork_task
FNDA:11,_RNvNtCsgAl8xIys83E_10novel_core13prompt_loader17load_agent_prompt
FNDA:1,_RNvNtNtCsgAl8xIys83E_10novel_core13prompt_loader5testss_35chapter_craft_analyzer_forbids_json
FNDA:1,_RNvNtNtCsgAl8xIys83E_10novel_core13prompt_loader5testss_36general_purpose_forbids_report_files
FNDA:1,_RNvNtNtCsgAl8xIys83E_10novel_core13prompt_loader5testss_39knowledge_auditor_prompt_has_next_steps
FNDA:1,_RNvNtNtCsgAl8xIys83E_10novel_core13prompt_loader5testss_45format_fork_task_includes_separator_and_tools
FNDA:1,_RNvNtNtCsgAl8xIys83E_10novel_core13prompt_loader5testss_50general_purpose_fork_task_uses_custom_task_as_body
FNF:9
FNH:8
DA:3,0
DA:4,0
DA:6,0
DA:9,0
DA:12,0
DA:15,0
DA:17,14
DA:18,14
DA:19,9
DA:21,2
DA:23,3
DA:25,14
DA:28,14
DA:29,14
DA:30,14
DA:31,0
DA:32,14
DA:33,14
DA:34,14
DA:37,13
DA:38,13
DA:39,13
DA:40,13
DA:41,13
DA:42,13
DA:43,13
DA:44,2
DA:45,11
DA:46,11
DA:47,11
DA:55,11
DA:56,2
DA:57,2
DA:58,2
DA:59,2
DA:60,9
DA:62,9
DA:63,9
DA:64,9
DA:65,9
DA:66,13
DA:73,1
DA:74,1
DA:75,1
DA:76,1
DA:77,1
DA:78,1
DA:79,1
DA:80,1
DA:83,1
DA:84,1
DA:85,1
DA:86,1
DA:87,1
DA:90,1
DA:91,1
DA:92,1
DA:93,1
DA:94,1
DA:97,1
DA:98,1
DA:99,1
DA:100,1
DA:101,1
DA:104,1
DA:105,1
DA:106,1
DA:107,1
DA:108,1
DA:109,1
DA:110,1
BRF:0
BRH:0
LF:71
LH:64
end_of_record
SF:G:\orgin_claude_code\claude-code-main\deepseek_novel_agent\crates\novel-core\src\session.rs
FN:12,_RNvMNtCskOvt1kg1spG_10novel_core7sessionNtB2_13SessionHandle6create
FN:26,_RNvMNtCskOvt1kg1spG_10novel_core7sessionNtB2_13SessionHandle6resume
FN:34,_RNCNvMNtCskOvt1kg1spG_10novel_core7sessionNtB4_13SessionHandle6resume0B6_
FN:34,_RNCNvMNtCsgAl8xIys83E_10novel_core7sessionNtB4_13SessionHandle6resume0B6_
FN:12,_RNvMNtCsgAl8xIys83E_10novel_core7sessionNtB2_13SessionHandle6create
FN:26,_RNvMNtCsgAl8xIys83E_10novel_core7sessionNtB2_13SessionHandle6resume
FNDA:8,_RNvMNtCskOvt1kg1spG_10novel_core7sessionNtB2_13SessionHandle6create
FNDA:1,_RNvMNtCskOvt1kg1spG_10novel_core7sessionNtB2_13SessionHandle6resume
FNDA:0,_RNCNvMNtCskOvt1kg1spG_10novel_core7sessionNtB4_13SessionHandle6resume0B6_
FNDA:0,_RNCNvMNtCsgAl8xIys83E_10novel_core7sessionNtB4_13SessionHandle6resume0B6_
FNDA:31,_RNvMNtCsgAl8xIys83E_10novel_core7sessionNtB2_13SessionHandle6create
FNDA:1,_RNvMNtCsgAl8xIys83E_10novel_core7sessionNtB2_13SessionHandle6resume
FNF:3
FNH:2
DA:12,39
DA:13,39
DA:14,39
DA:15,39
DA:16,39
DA:17,39
DA:18,39
DA:19,39
DA:20,39
DA:21,39
DA:22,39
DA:23,39
DA:24,39
DA:26,2
DA:27,2
DA:28,2
DA:29,2
DA:30,2
DA:31,2
DA:32,2
DA:33,2
DA:34,2
DA:35,2
DA:36,0
DA:37,2
DA:38,2
DA:39,2
DA:40,2
DA:41,2
DA:42,2
DA:43,2
BRF:0
BRH:0
LF:32
LH:30
end_of_record
SF:G:\orgin_claude_code\claude-code-main\deepseek_novel_agent\crates\novel-core\src\session_llm.rs
FN:23,_RNvMNtCskOvt1kg1spG_10novel_core11session_llmNtB2_18SessionLlmSnapshot13from_settings
FN:33,_RNvNtCskOvt1kg1spG_10novel_core11session_llm15new_session_llm
FN:44,_RNvNtCskOvt1kg1spG_10novel_core11session_llm16read_session_llm
FN:53,_RNvNtCskOvt1kg1spG_10novel_core11session_llm17build_chat_client
FN:38,_RNvNtCskOvt1kg1spG_10novel_core11session_llm17write_session_llm
FN:68,_RNvNtCskOvt1kg1spG_10novel_core11session_llm19apply_session_usage
FN:90,_RNvNtCskOvt1kg1spG_10novel_core11session_llm27emit_session_tokens_updated
FN:48,_RNCNvNtCskOvt1kg1spG_10novel_core11session_llm16read_session_llm0B5_
FN:49,_RNCNvNtCskOvt1kg1spG_10novel_core11session_llm16read_session_llms_0B5_
FN:48,_RNCNvNtCsgAl8xIys83E_10novel_core11session_llm16read_session_llm0B5_
FN:49,_RNCNvNtCsgAl8xIys83E_10novel_core11session_llm16read_session_llms_0B5_
FN:23,_RNvMNtCsgAl8xIys83E_10novel_core11session_llmNtB2_18SessionLlmSnapshot13from_settings
FN:33,_RNvNtCsgAl8xIys83E_10novel_core11session_llm15new_session_llm
FN:44,_RNvNtCsgAl8xIys83E_10novel_core11session_llm16read_session_llm
FN:53,_RNvNtCsgAl8xIys83E_10novel_core11session_llm17build_chat_client
FN:38,_RNvNtCsgAl8xIys83E_10novel_core11session_llm17write_session_llm
FN:68,_RNvNtCsgAl8xIys83E_10novel_core11session_llm19apply_session_usage
FN:90,_RNvNtCsgAl8xIys83E_10novel_core11session_llm27emit_session_tokens_updated
FNDA:17,_RNvMNtCskOvt1kg1spG_10novel_core11session_llmNtB2_18SessionLlmSnapshot13from_settings
FNDA:9,_RNvNtCskOvt1kg1spG_10novel_core11session_llm15new_session_llm
FNDA:8,_RNvNtCskOvt1kg1spG_10novel_core11session_llm16read_session_llm
FNDA:8,_RNvNtCskOvt1kg1spG_10novel_core11session_llm17build_chat_client
FNDA:8,_RNvNtCskOvt1kg1spG_10novel_core11session_llm17write_session_llm
FNDA:0,_RNvNtCskOvt1kg1spG_10novel_core11session_llm19apply_session_usage
FNDA:0,_RNvNtCskOvt1kg1spG_10novel_core11session_llm27emit_session_tokens_updated
FNDA:8,_RNCNvNtCskOvt1kg1spG_10novel_core11session_llm16read_session_llm0B5_
FNDA:0,_RNCNvNtCskOvt1kg1spG_10novel_core11session_llm16read_session_llms_0B5_
FNDA:94,_RNCNvNtCsgAl8xIys83E_10novel_core11session_llm16read_session_llm0B5_
FNDA:0,_RNCNvNtCsgAl8xIys83E_10novel_core11session_llm16read_session_llms_0B5_
FNDA:38,_RNvMNtCsgAl8xIys83E_10novel_core11session_llmNtB2_18SessionLlmSnapshot13from_settings
FNDA:32,_RNvNtCsgAl8xIys83E_10novel_core11session_llm15new_session_llm
FNDA:94,_RNvNtCsgAl8xIys83E_10novel_core11session_llm16read_session_llm
FNDA:14,_RNvNtCsgAl8xIys83E_10novel_core11session_llm17build_chat_client
FNDA:89,_RNvNtCsgAl8xIys83E_10novel_core11session_llm17write_session_llm
FNDA:85,_RNvNtCsgAl8xIys83E_10novel_core11session_llm19apply_session_usage
FNDA:85,_RNvNtCsgAl8xIys83E_10novel_core11session_llm27emit_session_tokens_updated
FNF:9
FNH:8
DA:23,55
DA:24,55
DA:25,55
DA:26,55
DA:27,55
DA:28,55
DA:33,41
DA:34,41
DA:35,41
DA:38,97
DA:39,97
DA:40,97
DA:41,97
DA:42,97
DA:44,102
DA:45,102
DA:46,102
DA:47,102
DA:48,102
DA:49,102
DA:50,102
DA:53,22
DA:54,22
DA:55,22
DA:56,22
DA:57,22
DA:58,22
DA:59,22
DA:60,22
DA:61,22
DA:62,22
DA:63,22
DA:65,22
DA:68,85
DA:69,85
DA:70,85
DA:71,85
DA:72,85
DA:73,85
DA:74,85
DA:75,85
DA:76,85
DA:77,85
DA:78,85
DA:79,85
DA:80,85
DA:81,85
DA:82,85
DA:83,85
DA:84,85
DA:85,85
DA:86,85
DA:87,85
DA:88,85
DA:90,85
DA:91,85
DA:92,85
DA:93,85
DA:94,85
DA:95,85
DA:97,0
DA:98,0
DA:100,0
DA:101,0
DA:102,0
DA:103,0
DA:104,0
DA:105,0
DA:106,85
BRF:0
BRH:0
LF:71
LH:62
end_of_record
SF:G:\orgin_claude_code\claude-code-main\deepseek_novel_agent\crates\novel-core\src\stream_result_apply.rs
FN:13,_RNvMNtCskOvt1kg1spG_10novel_core19stream_result_applyNtNtB4_6engine11AgentEngine22apply_ok_stream_result
FN:168,_RNvMNtCskOvt1kg1spG_10novel_core19stream_result_applyNtNtB4_6engine11AgentEngine23apply_err_stream_result
FN:112,_RNvMNtCskOvt1kg1spG_10novel_core19stream_result_applyNtNtB4_6engine11AgentEngine26track_read_skill_reference
FN:89,_RNvMNtCskOvt1kg1spG_10novel_core19stream_result_applyNtNtB4_6engine11AgentEngine29track_invoke_skill_after_tool
FN:137,_RNvMNtCskOvt1kg1spG_10novel_core19stream_result_applyNtNtB4_6engine11AgentEngine31apply_needs_input_stream_result
FN:27,_RNCNvMNtCskOvt1kg1spG_10novel_core19stream_result_applyNtNtB6_6engine11AgentEngine22apply_ok_stream_result0B6_
FN:126,_RNCNvMNtCskOvt1kg1spG_10novel_core19stream_result_applyNtNtB6_6engine11AgentEngine26track_read_skill_reference0B6_
FN:96,_RNCNvMNtCskOvt1kg1spG_10novel_core19stream_result_applyNtNtB6_6engine11AgentEngine29track_invoke_skill_after_tool0B6_
FN:101,_RNCNvMNtCskOvt1kg1spG_10novel_core19stream_result_applyNtNtB6_6engine11AgentEngine29track_invoke_skill_after_tools0_0B6_
FN:97,_RNCNvMNtCskOvt1kg1spG_10novel_core19stream_result_applyNtNtB6_6engine11AgentEngine29track_invoke_skill_after_tools_0B6_
FN:13,_RNvMNtCsgAl8xIys83E_10novel_core19stream_result_applyNtNtB4_6engine11AgentEngine22apply_ok_stream_result
FN:168,_RNvMNtCsgAl8xIys83E_10novel_core19stream_result_applyNtNtB4_6engine11AgentEngine23apply_err_stream_result
FN:112,_RNvMNtCsgAl8xIys83E_10novel_core19stream_result_applyNtNtB4_6engine11AgentEngine26track_read_skill_reference
FN:89,_RNvMNtCsgAl8xIys83E_10novel_core19stream_result_applyNtNtB4_6engine11AgentEngine29track_invoke_skill_after_tool
FN:137,_RNvMNtCsgAl8xIys83E_10novel_core19stream_result_applyNtNtB4_6engine11AgentEngine31apply_needs_input_stream_result
FN:240,_RNCNvNtNtCsgAl8xIys83E_10novel_core19stream_result_apply5testss_43apply_err_stream_result_pushes_tool_message0B7_
FN:27,_RNCNvMNtCsgAl8xIys83E_10novel_core19stream_result_applyNtNtB6_6engine11AgentEngine22apply_ok_stream_result0B6_
FN:126,_RNCNvMNtCsgAl8xIys83E_10novel_core19stream_result_applyNtNtB6_6engine11AgentEngine26track_read_skill_reference0B6_
FN:96,_RNCNvMNtCsgAl8xIys83E_10novel_core19stream_result_applyNtNtB6_6engine11AgentEngine29track_invoke_skill_after_tool0B6_
FN:101,_RNCNvMNtCsgAl8xIys83E_10novel_core19stream_result_applyNtNtB6_6engine11AgentEngine29track_invoke_skill_after_tools0_0B6_
FN:97,_RNCNvMNtCsgAl8xIys83E_10novel_core19stream_result_applyNtNtB6_6engine11AgentEngine29track_invoke_skill_after_tools_0B6_
FN:212,_RNvNtNtCsgAl8xIys83E_10novel_core19stream_result_apply5testss_43apply_err_stream_result_pushes_tool_message
FNDA:0,_RNvMNtCskOvt1kg1spG_10novel_core19stream_result_applyNtNtB4_6engine11AgentEngine22apply_ok_stream_result
FNDA:0,_RNvMNtCskOvt1kg1spG_10novel_core19stream_result_applyNtNtB4_6engine11AgentEngine23apply_err_stream_result
FNDA:0,_RNvMNtCskOvt1kg1spG_10novel_core19stream_result_applyNtNtB4_6engine11AgentEngine26track_read_skill_reference
FNDA:0,_RNvMNtCskOvt1kg1spG_10novel_core19stream_result_applyNtNtB4_6engine11AgentEngine29track_invoke_skill_after_tool
FNDA:0,_RNvMNtCskOvt1kg1spG_10novel_core19stream_result_applyNtNtB4_6engine11AgentEngine31apply_needs_input_stream_result
FNDA:0,_RNCNvMNtCskOvt1kg1spG_10novel_core19stream_result_applyNtNtB6_6engine11AgentEngine22apply_ok_stream_result0B6_
FNDA:0,_RNCNvMNtCskOvt1kg1spG_10novel_core19stream_result_applyNtNtB6_6engine11AgentEngine26track_read_skill_reference0B6_
FNDA:0,_RNCNvMNtCskOvt1kg1spG_10novel_core19stream_result_applyNtNtB6_6engine11AgentEngine29track_invoke_skill_after_tool0B6_
FNDA:0,_RNCNvMNtCskOvt1kg1spG_10novel_core19stream_result_applyNtNtB6_6engine11AgentEngine29track_invoke_skill_after_tools0_0B6_
FNDA:0,_RNCNvMNtCskOvt1kg1spG_10novel_core19stream_result_applyNtNtB6_6engine11AgentEngine29track_invoke_skill_after_tools_0B6_
FNDA:81,_RNvMNtCsgAl8xIys83E_10novel_core19stream_result_applyNtNtB4_6engine11AgentEngine22apply_ok_stream_result
FNDA:1,_RNvMNtCsgAl8xIys83E_10novel_core19stream_result_applyNtNtB4_6engine11AgentEngine23apply_err_stream_result
FNDA:81,_RNvMNtCsgAl8xIys83E_10novel_core19stream_result_applyNtNtB4_6engine11AgentEngine26track_read_skill_reference
FNDA:81,_RNvMNtCsgAl8xIys83E_10novel_core19stream_result_applyNtNtB4_6engine11AgentEngine29track_invoke_skill_after_tool
FNDA:1,_RNvMNtCsgAl8xIys83E_10novel_core19stream_result_applyNtNtB4_6engine11AgentEngine31apply_needs_input_stream_result
FNDA:2,_RNCNvNtNtCsgAl8xIys83E_10novel_core19stream_result_apply5testss_43apply_err_stream_result_pushes_tool_message0B7_
FNDA:0,_RNCNvMNtCsgAl8xIys83E_10novel_core19stream_result_applyNtNtB6_6engine11AgentEngine22apply_ok_stream_result0B6_
FNDA:0,_RNCNvMNtCsgAl8xIys83E_10novel_core19stream_result_applyNtNtB6_6engine11AgentEngine26track_read_skill_reference0B6_
FNDA:0,_RNCNvMNtCsgAl8xIys83E_10novel_core19stream_result_applyNtNtB6_6engine11AgentEngine29track_invoke_skill_after_tool0B6_
FNDA:0,_RNCNvMNtCsgAl8xIys83E_10novel_core19stream_result_applyNtNtB6_6engine11AgentEngine29track_invoke_skill_after_tools0_0B6_
FNDA:0,_RNCNvMNtCsgAl8xIys83E_10novel_core19stream_result_applyNtNtB6_6engine11AgentEngine29track_invoke_skill_after_tools_0B6_
FNDA:1,_RNvNtNtCsgAl8xIys83E_10novel_core19stream_result_apply5testss_43apply_err_stream_result_pushes_tool_message
FNF:12
FNH:7
DA:13,81
DA:14,81
DA:15,81
DA:16,81
DA:17,81
DA:18,81
DA:19,81
DA:20,81
DA:21,81
DA:22,81
DA:23,81
DA:24,81
DA:25,81
DA:27,0
DA:28,0
DA:29,0
DA:30,0
DA:31,0
DA:32,0
DA:34,0
DA:37,81
DA:38,81
DA:39,81
DA:40,0
DA:41,0
DA:42,81
DA:43,0
DA:44,0
DA:46,81
DA:47,0
DA:48,0
DA:49,0
DA:50,0
DA:51,81
DA:52,81
DA:53,81
DA:54,81
DA:55,0
DA:56,81
DA:57,81
DA:63,81
DA:64,81
DA:65,81
DA:66,81
DA:67,81
DA:68,0
DA:69,81
DA:71,81
DA:72,81
DA:73,81
DA:74,81
DA:75,81
DA:76,81
DA:77,0
DA:78,0
DA:79,0
DA:80,0
DA:81,0
DA:82,0
DA:83,0
DA:84,81
DA:85,0
DA:86,81
DA:87,81
DA:89,81
DA:90,81
DA:91,81
DA:92,0
DA:93,0
DA:94,0
DA:95,0
DA:96,0
DA:97,0
DA:99,0
DA:101,0
DA:102,0
DA:103,0
DA:104,0
DA:105,0
DA:106,0
DA:107,0
DA:108,0
DA:109,0
DA:110,81
DA:112,81
DA:113,81
DA:114,0
DA:116,81
DA:117,81
DA:118,81
DA:119,81
DA:120,81
DA:121,81
DA:123,0
DA:124,0
DA:125,0
DA:126,0
DA:128,0
DA:129,0
DA:130,0
DA:131,0
DA:132,0
DA:133,0
DA:134,0
DA:135,81
DA:137,1
DA:138,1
DA:139,1
DA:140,1
DA:141,1
DA:142,1
DA:143,1
DA:144,1
DA:145,1
DA:146,1
DA:147,1
DA:148,1
DA:149,1
DA:150,1
DA:151,1
DA:152,1
DA:153,1
DA:154,1
DA:155,0
DA:156,0
DA:157,0
DA:158,0
DA:159,1
DA:160,1
DA:161,1
DA:162,0
DA:163,1
DA:164,1
DA:165,1
DA:166,1
DA:168,1
DA:169,1
DA:170,1
DA:171,1
DA:172,1
DA:173,1
DA:174,1
DA:175,1
DA:176,1
DA:177,1
DA:183,1
DA:184,1
DA:185,1
DA:186,1
DA:187,1
DA:188,0
DA:189,1
DA:190,1
DA:191,0
DA:192,0
DA:193,0
DA:194,0
DA:195,1
DA:196,1
DA:197,1
DA:198,0
DA:199,1
DA:200,1
DA:201,1
DA:202,1
DA:212,1
DA:213,1
DA:214,1
DA:215,1
DA:216,1
DA:217,1
DA:218,1
DA:219,1
DA:220,1
DA:221,1
DA:222,1
DA:223,1
DA:224,1
DA:225,1
DA:226,1
DA:227,1
DA:228,1
DA:229,1
DA:230,1
DA:231,1
DA:232,1
DA:233,1
DA:236,1
DA:237,1
DA:238,1
DA:239,1
DA:240,2
DA:241,1
BRF:0
BRH:0
LF:199
LH:130
end_of_record
SF:G:\orgin_claude_code\claude-code-main\deepseek_novel_agent\crates\novel-core\src\streaming_tool_dispatch.rs
FN:43,_RNvMNtCskOvt1kg1spG_10novel_core23streaming_tool_dispatchNtB2_21StreamingToolDispatch12executor_mut
FN:67,_RNvMNtCskOvt1kg1spG_10novel_core23streaming_tool_dispatchNtB2_21StreamingToolDispatch12handle_ready
FN:49,_RNvMNtCskOvt1kg1spG_10novel_core23streaming_tool_dispatchNtB2_21StreamingToolDispatch13take_executor
FN:148,_RNvMNtCskOvt1kg1spG_10novel_core23streaming_tool_dispatchNtB2_21StreamingToolDispatch16apply_permission
FN:132,_RNvMNtCskOvt1kg1spG_10novel_core23streaming_tool_dispatchNtB2_21StreamingToolDispatch18record_denied_tool
FN:56,_RNvMNtCskOvt1kg1spG_10novel_core23streaming_tool_dispatchNtB2_21StreamingToolDispatch19drain_pending_specs
FN:22,_RNvMNtCskOvt1kg1spG_10novel_core23streaming_tool_dispatchNtB2_21StreamingToolDispatch3new
FN:219,_RNvMs_NtCskOvt1kg1spG_10novel_core23streaming_tool_dispatchNtB4_21StreamingToolDispatch15poll_ui_results
FN:243,_RNvMs_NtCskOvt1kg1spG_10novel_core23streaming_tool_dispatchNtB4_21StreamingToolDispatch7discard
FN:250,_RNvNtCskOvt1kg1spG_10novel_core23streaming_tool_dispatch11format_tool
FN:196,_RNvNtCskOvt1kg1spG_10novel_core23streaming_tool_dispatch23tool_validation_failure
FN:204,_RNCNCNvNtCskOvt1kg1spG_10novel_core23streaming_tool_dispatch23tool_validation_failure00B7_
FN:210,_RNCNCNvNtCskOvt1kg1spG_10novel_core23streaming_tool_dispatch23tool_validation_failures0_00B7_
FN:108,_RNCNvMNtCskOvt1kg1spG_10novel_core23streaming_tool_dispatchNtB4_21StreamingToolDispatch12handle_ready0B6_
FN:232,_RNCNvMs_NtCskOvt1kg1spG_10novel_core23streaming_tool_dispatchNtB6_21StreamingToolDispatch15poll_ui_results0B8_
FN:256,_RNCNvNtCskOvt1kg1spG_10novel_core23streaming_tool_dispatch11format_tool0B5_
FN:204,_RNCNvNtCskOvt1kg1spG_10novel_core23streaming_tool_dispatch23tool_validation_failure0B5_
FN:210,_RNCNvNtCskOvt1kg1spG_10novel_core23streaming_tool_dispatch23tool_validation_failures0_0B5_
FN:205,_RNCNvNtCskOvt1kg1spG_10novel_core23streaming_tool_dispatch23tool_validation_failures_0B5_
FN:204,_RNCNCNvNtCsgAl8xIys83E_10novel_core23streaming_tool_dispatch23tool_validation_failure00B7_
FN:210,_RNCNCNvNtCsgAl8xIys83E_10novel_core23streaming_tool_dispatch23tool_validation_failures0_00B7_
FN:108,_RNCNvMNtCsgAl8xIys83E_10novel_core23streaming_tool_dispatchNtB4_21StreamingToolDispatch12handle_ready0B6_
FN:232,_RNCNvMs_NtCsgAl8xIys83E_10novel_core23streaming_tool_dispatchNtB6_21StreamingToolDispatch15poll_ui_results0B8_
FN:256,_RNCNvNtCsgAl8xIys83E_10novel_core23streaming_tool_dispatch11format_tool0B5_
FN:204,_RNCNvNtCsgAl8xIys83E_10novel_core23streaming_tool_dispatch23tool_validation_failure0B5_
FN:210,_RNCNvNtCsgAl8xIys83E_10novel_core23streaming_tool_dispatch23tool_validation_failures0_0B5_
FN:205,_RNCNvNtCsgAl8xIys83E_10novel_core23streaming_tool_dispatch23tool_validation_failures_0B5_
FN:43,_RNvMNtCsgAl8xIys83E_10novel_core23streaming_tool_dispatchNtB2_21StreamingToolDispatch12executor_mut
FN:67,_RNvMNtCsgAl8xIys83E_10novel_core23streaming_tool_dispatchNtB2_21StreamingToolDispatch12handle_ready
FN:49,_RNvMNtCsgAl8xIys83E_10novel_core23streaming_tool_dispatchNtB2_21StreamingToolDispatch13take_executor
FN:148,_RNvMNtCsgAl8xIys83E_10novel_core23streaming_tool_dispatchNtB2_21StreamingToolDispatch16apply_permission
FN:132,_RNvMNtCsgAl8xIys83E_10novel_core23streaming_tool_dispatchNtB2_21StreamingToolDispatch18record_denied_tool
FN:56,_RNvMNtCsgAl8xIys83E_10novel_core23streaming_tool_dispatchNtB2_21StreamingToolDispatch19drain_pending_specs
FN:22,_RNvMNtCsgAl8xIys83E_10novel_core23streaming_tool_dispatchNtB2_21StreamingToolDispatch3new
FN:219,_RNvMs_NtCsgAl8xIys83E_10novel_core23streaming_tool_dispatchNtB4_21StreamingToolDispatch15poll_ui_results
FN:243,_RNvMs_NtCsgAl8xIys83E_10novel_core23streaming_tool_dispatchNtB4_21StreamingToolDispatch7discard
FN:250,_RNvNtCsgAl8xIys83E_10novel_core23streaming_tool_dispatch11format_tool
FN:196,_RNvNtCsgAl8xIys83E_10novel_core23streaming_tool_dispatch23tool_validation_failure
FN:278,_RNCNvNtNtCsgAl8xIys83E_10novel_core23streaming_tool_dispatch5testss_35poll_ui_results_emits_once_per_tool0B7_
FN:278,_RNvNtNtCsgAl8xIys83E_10novel_core23streaming_tool_dispatch5testss_35poll_ui_results_emits_once_per_tool
FN:313,_RNvNtNtCsgAl8xIys83E_10novel_core23streaming_tool_dispatch5testss_39handle_ready_queues_ask_permission_tool
FN:338,_RNvNtNtCsgAl8xIys83E_10novel_core23streaming_tool_dispatch5testss_47handle_ready_denied_on_unknown_tool_at_finalize
FNDA:0,_RNvMNtCskOvt1kg1spG_10novel_core23streaming_tool_dispatchNtB2_21StreamingToolDispatch12executor_mut
FNDA:0,_RNvMNtCskOvt1kg1spG_10novel_core23streaming_tool_dispatchNtB2_21StreamingToolDispatch12handle_ready
FNDA:0,_RNvMNtCskOvt1kg1spG_10novel_core23streaming_tool_dispatchNtB2_21StreamingToolDispatch13take_executor
FNDA:0,_RNvMNtCskOvt1kg1spG_10novel_core23streaming_tool_dispatchNtB2_21StreamingToolDispatch16apply_permission
FNDA:0,_RNvMNtCskOvt1kg1spG_10novel_core23streaming_tool_dispatchNtB2_21StreamingToolDispatch18record_denied_tool
FNDA:0,_RNvMNtCskOvt1kg1spG_10novel_core23streaming_tool_dispatchNtB2_21StreamingToolDispatch19drain_pending_specs
FNDA:0,_RNvMNtCskOvt1kg1spG_10novel_core23streaming_tool_dispatchNtB2_21StreamingToolDispatch3new
FNDA:0,_RNvMs_NtCskOvt1kg1spG_10novel_core23streaming_tool_dispatchNtB4_21StreamingToolDispatch15poll_ui_results
FNDA:0,_RNvMs_NtCskOvt1kg1spG_10novel_core23streaming_tool_dispatchNtB4_21StreamingToolDispatch7discard
FNDA:0,_RNvNtCskOvt1kg1spG_10novel_core23streaming_tool_dispatch11format_tool
FNDA:0,_RNvNtCskOvt1kg1spG_10novel_core23streaming_tool_dispatch23tool_validation_failure
FNDA:0,_RNCNCNvNtCskOvt1kg1spG_10novel_core23streaming_tool_dispatch23tool_validation_failure00B7_
FNDA:0,_RNCNCNvNtCskOvt1kg1spG_10novel_core23streaming_tool_dispatch23tool_validation_failures0_00B7_
FNDA:0,_RNCNvMNtCskOvt1kg1spG_10novel_core23streaming_tool_dispatchNtB4_21StreamingToolDispatch12handle_ready0B6_
FNDA:0,_RNCNvMs_NtCskOvt1kg1spG_10novel_core23streaming_tool_dispatchNtB6_21StreamingToolDispatch15poll_ui_results0B8_
FNDA:0,_RNCNvNtCskOvt1kg1spG_10novel_core23streaming_tool_dispatch11format_tool0B5_
FNDA:0,_RNCNvNtCskOvt1kg1spG_10novel_core23streaming_tool_dispatch23tool_validation_failure0B5_
FNDA:0,_RNCNvNtCskOvt1kg1spG_10novel_core23streaming_tool_dispatch23tool_validation_failures0_0B5_
FNDA:0,_RNCNvNtCskOvt1kg1spG_10novel_core23streaming_tool_dispatch23tool_validation_failures_0B5_
FNDA:0,_RNCNCNvNtCsgAl8xIys83E_10novel_core23streaming_tool_dispatch23tool_validation_failure00B7_
FNDA:0,_RNCNCNvNtCsgAl8xIys83E_10novel_core23streaming_tool_dispatch23tool_validation_failures0_00B7_
FNDA:83,_RNCNvMNtCsgAl8xIys83E_10novel_core23streaming_tool_dispatchNtB4_21StreamingToolDispatch12handle_ready0B6_
FNDA:76,_RNCNvMs_NtCsgAl8xIys83E_10novel_core23streaming_tool_dispatchNtB6_21StreamingToolDispatch15poll_ui_results0B8_
FNDA:161,_RNCNvNtCsgAl8xIys83E_10novel_core23streaming_tool_dispatch11format_tool0B5_
FNDA:0,_RNCNvNtCsgAl8xIys83E_10novel_core23streaming_tool_dispatch23tool_validation_failure0B5_
FNDA:83,_RNCNvNtCsgAl8xIys83E_10novel_core23streaming_tool_dispatch23tool_validation_failures0_0B5_
FNDA:84,_RNCNvNtCsgAl8xIys83E_10novel_core23streaming_tool_dispatch23tool_validation_failures_0B5_
FNDA:328,_RNvMNtCsgAl8xIys83E_10novel_core23streaming_tool_dispatchNtB2_21StreamingToolDispatch12executor_mut
FNDA:84,_RNvMNtCsgAl8xIys83E_10novel_core23streaming_tool_dispatchNtB2_21StreamingToolDispatch12handle_ready
FNDA:80,_RNvMNtCsgAl8xIys83E_10novel_core23streaming_tool_dispatchNtB2_21StreamingToolDispatch13take_executor
FNDA:83,_RNvMNtCsgAl8xIys83E_10novel_core23streaming_tool_dispatchNtB2_21StreamingToolDispatch16apply_permission
FNDA:1,_RNvMNtCsgAl8xIys83E_10novel_core23streaming_tool_dispatchNtB2_21StreamingToolDispatch18record_denied_tool
FNDA:1,_RNvMNtCsgAl8xIys83E_10novel_core23streaming_tool_dispatchNtB2_21StreamingToolDispatch19drain_pending_specs
FNDA:86,_RNvMNtCsgAl8xIys83E_10novel_core23streaming_tool_dispatchNtB2_21StreamingToolDispatch3new
FNDA:163,_RNvMs_NtCsgAl8xIys83E_10novel_core23streaming_tool_dispatchNtB4_21StreamingToolDispatch15poll_ui_results
FNDA:0,_RNvMs_NtCsgAl8xIys83E_10novel_core23streaming_tool_dispatchNtB4_21StreamingToolDispatch7discard
FNDA:161,_RNvNtCsgAl8xIys83E_10novel_core23streaming_tool_dispatch11format_tool
FNDA:84,_RNvNtCsgAl8xIys83E_10novel_core23streaming_tool_dispatch23tool_validation_failure
FNDA:1,_RNCNvNtNtCsgAl8xIys83E_10novel_core23streaming_tool_dispatch5testss_35poll_ui_results_emits_once_per_tool0B7_
FNDA:1,_RNvNtNtCsgAl8xIys83E_10novel_core23streaming_tool_dispatch5testss_35poll_ui_results_emits_once_per_tool
FNDA:1,_RNvNtNtCsgAl8xIys83E_10novel_core23streaming_tool_dispatch5testss_39handle_ready_queues_ask_permission_tool
FNDA:1,_RNvNtNtCsgAl8xIys83E_10novel_core23streaming_tool_dispatch5testss_47handle_ready_denied_on_unknown_tool_at_finalize
FNF:23
FNH:19
DA:22,86
DA:23,86
DA:24,86
DA:25,86
DA:26,86
DA:27,86
DA:28,86
DA:29,86
DA:30,86
DA:31,86
DA:32,86
DA:33,86
DA:34,86
DA:35,86
DA:36,86
DA:37,86
DA:38,86
DA:39,86
DA:40,86
DA:41,86
DA:43,328
DA:44,328
DA:45,328
DA:46,328
DA:47,328
DA:49,80
DA:50,80
DA:51,80
DA:52,80
DA:53,80
DA:56,1
DA:57,1
DA:58,0
DA:63,0
DA:65,1
DA:67,84
DA:68,84
DA:69,84
DA:70,84
DA:71,84
DA:72,84
DA:73,84
DA:74,84
DA:75,84
DA:76,0
DA:77,84
DA:78,84
DA:79,84
DA:80,1
DA:81,0
DA:87,0
DA:88,1
DA:89,1
DA:95,1
DA:96,1
DA:97,83
DA:98,83
DA:99,0
DA:100,0
DA:101,0
DA:102,0
DA:103,0
DA:104,83
DA:106,83
DA:107,83
DA:108,83
DA:109,83
DA:110,83
DA:111,83
DA:112,83
DA:114,83
DA:115,0
DA:116,0
DA:117,0
DA:118,0
DA:119,0
DA:120,0
DA:121,83
DA:123,83
DA:124,83
DA:125,83
DA:126,83
DA:127,83
DA:128,83
DA:129,83
DA:130,84
DA:132,1
DA:133,1
DA:134,1
DA:135,1
DA:136,1
DA:137,1
DA:138,1
DA:139,1
DA:140,1
DA:141,1
DA:142,1
DA:143,1
DA:144,1
DA:145,1
DA:146,1
DA:148,83
DA:149,83
DA:150,83
DA:151,83
DA:152,83
DA:153,83
DA:154,83
DA:156,82
DA:157,0
DA:158,0
DA:159,0
DA:160,0
DA:161,0
DA:162,0
DA:163,82
DA:164,82
DA:165,82
DA:168,1
DA:173,1
DA:174,0
DA:175,0
DA:176,0
DA:177,0
DA:178,0
DA:179,0
DA:180,1
DA:181,1
DA:183,0
DA:184,0
DA:190,0
DA:193,83
DA:196,84
DA:197,84
DA:198,84
DA:199,84
DA:200,84
DA:201,84
DA:202,0
DA:203,0
DA:204,0
DA:205,84
DA:206,1
DA:208,83
DA:209,83
DA:210,83
DA:212,84
DA:213,1
DA:214,83
DA:216,84
DA:219,163
DA:223,163
DA:224,163
DA:225,163
DA:226,150
DA:227,13
DA:228,163
DA:229,150
DA:230,74
DA:231,76
DA:232,76
DA:233,76
DA:234,76
DA:235,1
DA:236,1
DA:237,1
DA:238,1
DA:239,75
DA:241,163
DA:243,0
DA:244,0
DA:245,0
DA:246,0
DA:247,0
DA:250,161
DA:251,161
DA:252,161
DA:253,161
DA:254,161
DA:255,161
DA:256,161
DA:257,161
DA:258,161
DA:259,161
DA:260,161
DA:261,161
DA:262,161
DA:263,161
DA:264,161
DA:278,1
DA:279,1
DA:280,1
DA:281,1
DA:282,1
DA:283,1
DA:284,1
DA:285,1
DA:286,1
DA:287,1
DA:288,1
DA:289,1
DA:290,1
DA:291,1
DA:292,1
DA:293,1
DA:294,1
DA:295,1
DA:297,1
DA:298,3
DA:299,1
DA:300,2
DA:301,2
DA:304,1
DA:305,1
DA:306,1
DA:307,1
DA:308,1
DA:309,1
DA:310,1
DA:313,1
DA:314,1
DA:315,1
DA:316,1
DA:317,1
DA:318,1
DA:319,1
DA:320,1
DA:321,1
DA:322,1
DA:323,1
DA:324,1
DA:325,1
DA:326,1
DA:327,1
DA:328,1
DA:329,1
DA:330,1
DA:331,1
DA:334,1
DA:335,1
DA:338,1
DA:339,1
DA:340,1
DA:341,1
DA:342,1
DA:343,1
DA:344,1
DA:345,1
DA:346,1
DA:347,1
DA:348,1
DA:349,1
DA:350,1
DA:351,1
DA:352,1
DA:353,1
DA:354,1
DA:355,1
DA:356,1
DA:359,1
DA:360,1
BRF:0
BRH:0
LF:270
LH:228
end_of_record
SF:G:\orgin_claude_code\claude-code-main\deepseek_novel_agent\crates\novel-core\src\subagent.rs
FN:137,_RNvXNCNvNtCskOvt1kg1spG_10novel_core8subagent19drain_subagent_jobs0NtB2_10DrainGuardNtNtNtCs8icZUrvfcq9_4core3ops4drop4Drop4drop
FN:29,_RNvMNtCskOvt1kg1spG_10novel_core8subagentNtB2_11SubagentJob12from_pending
FN:46,_RNvMNtCskOvt1kg1spG_10novel_core8subagentNtB2_11SubagentJob13inject_report
FN:51,_RNvNtCskOvt1kg1spG_10novel_core8subagent16build_fork_child
FN:87,_RNvNtCskOvt1kg1spG_10novel_core8subagent19drain_subagent_jobs
FN:81,_RNvNtCskOvt1kg1spG_10novel_core8subagent20clear_subagent_queue
FN:96,_RNCNCNvNtCskOvt1kg1spG_10novel_core8subagent19drain_subagent_jobs00B7_
FN:162,_RNCNCNvNtCskOvt1kg1spG_10novel_core8subagent19drain_subagent_jobs0s0_0B7_
FN:118,_RNCNCNvNtCskOvt1kg1spG_10novel_core8subagent19drain_subagent_jobs0s1_0B7_
FN:109,_RNCNCNvNtCskOvt1kg1spG_10novel_core8subagent19drain_subagent_jobs0s_0B7_
FN:30,_RNCNvMNtCskOvt1kg1spG_10novel_core8subagentNtB4_11SubagentJob12from_pending0B6_
FN:72,_RNCNvNtCskOvt1kg1spG_10novel_core8subagent16build_fork_child0B5_
FN:90,_RNCNvNtCskOvt1kg1spG_10novel_core8subagent19drain_subagent_jobs0B5_
FN:137,_RNvXNCNvNtCsgAl8xIys83E_10novel_core8subagent19drain_subagent_jobs0NtB2_10DrainGuardNtNtNtCs8icZUrvfcq9_4core3ops4drop4Drop4drop
FN:96,_RNCNCNvNtCsgAl8xIys83E_10novel_core8subagent19drain_subagent_jobs00B7_
FN:162,_RNCNCNvNtCsgAl8xIys83E_10novel_core8subagent19drain_subagent_jobs0s0_0B7_
FN:118,_RNCNCNvNtCsgAl8xIys83E_10novel_core8subagent19drain_subagent_jobs0s1_0B7_
FN:109,_RNCNCNvNtCsgAl8xIys83E_10novel_core8subagent19drain_subagent_jobs0s_0B7_
FN:30,_RNCNvMNtCsgAl8xIys83E_10novel_core8subagentNtB4_11SubagentJob12from_pending0B6_
FN:72,_RNCNvNtCsgAl8xIys83E_10novel_core8subagent16build_fork_child0B5_
FN:90,_RNCNvNtCsgAl8xIys83E_10novel_core8subagent19drain_subagent_jobs0B5_
FN:29,_RNvMNtCsgAl8xIys83E_10novel_core8subagentNtB2_11SubagentJob12from_pending
FN:46,_RNvMNtCsgAl8xIys83E_10novel_core8subagentNtB2_11SubagentJob13inject_report
FN:51,_RNvNtCsgAl8xIys83E_10novel_core8subagent16build_fork_child
FN:87,_RNvNtCsgAl8xIys83E_10novel_core8subagent19drain_subagent_jobs
FN:81,_RNvNtCsgAl8xIys83E_10novel_core8subagent20clear_subagent_queue
FNDA:0,_RNvXNCNvNtCskOvt1kg1spG_10novel_core8subagent19drain_subagent_jobs0NtB2_10DrainGuardNtNtNtCs8icZUrvfcq9_4core3ops4drop4Drop4drop
FNDA:0,_RNvMNtCskOvt1kg1spG_10novel_core8subagentNtB2_11SubagentJob12from_pending
FNDA:0,_RNvMNtCskOvt1kg1spG_10novel_core8subagentNtB2_11SubagentJob13inject_report
FNDA:4,_RNvNtCskOvt1kg1spG_10novel_core8subagent16build_fork_child
FNDA:8,_RNvNtCskOvt1kg1spG_10novel_core8subagent19drain_subagent_jobs
FNDA:0,_RNvNtCskOvt1kg1spG_10novel_core8subagent20clear_subagent_queue
FNDA:0,_RNCNCNvNtCskOvt1kg1spG_10novel_core8subagent19drain_subagent_jobs00B7_
FNDA:0,_RNCNCNvNtCskOvt1kg1spG_10novel_core8subagent19drain_subagent_jobs0s0_0B7_
FNDA:0,_RNCNCNvNtCskOvt1kg1spG_10novel_core8subagent19drain_subagent_jobs0s1_0B7_
FNDA:0,_RNCNCNvNtCskOvt1kg1spG_10novel_core8subagent19drain_subagent_jobs0s_0B7_
FNDA:0,_RNCNvMNtCskOvt1kg1spG_10novel_core8subagentNtB4_11SubagentJob12from_pending0B6_
FNDA:1,_RNCNvNtCskOvt1kg1spG_10novel_core8subagent16build_fork_child0B5_
FNDA:8,_RNCNvNtCskOvt1kg1spG_10novel_core8subagent19drain_subagent_jobs0B5_
FNDA:3,_RNvXNCNvNtCsgAl8xIys83E_10novel_core8subagent19drain_subagent_jobs0NtB2_10DrainGuardNtNtNtCs8icZUrvfcq9_4core3ops4drop4Drop4drop
FNDA:0,_RNCNCNvNtCsgAl8xIys83E_10novel_core8subagent19drain_subagent_jobs00B7_
FNDA:4,_RNCNCNvNtCsgAl8xIys83E_10novel_core8subagent19drain_subagent_jobs0s0_0B7_
FNDA:0,_RNCNCNvNtCsgAl8xIys83E_10novel_core8subagent19drain_subagent_jobs0s1_0B7_
FNDA:4,_RNCNCNvNtCsgAl8xIys83E_10novel_core8subagent19drain_subagent_jobs0s_0B7_
FNDA:0,_RNCNvMNtCsgAl8xIys83E_10novel_core8subagentNtB4_11SubagentJob12from_pending0B6_
FNDA:1,_RNCNvNtCsgAl8xIys83E_10novel_core8subagent16build_fork_child0B5_
FNDA:90,_RNCNvNtCsgAl8xIys83E_10novel_core8subagent19drain_subagent_jobs0B5_
FNDA:4,_RNvMNtCsgAl8xIys83E_10novel_core8subagentNtB2_11SubagentJob12from_pending
FNDA:4,_RNvMNtCsgAl8xIys83E_10novel_core8subagentNtB2_11SubagentJob13inject_report
FNDA:7,_RNvNtCsgAl8xIys83E_10novel_core8subagent16build_fork_child
FNDA:90,_RNvNtCsgAl8xIys83E_10novel_core8subagent19drain_subagent_jobs
FNDA:0,_RNvNtCsgAl8xIys83E_10novel_core8subagent20clear_subagent_queue
FNF:13
FNH:9
DA:29,4
DA:30,4
DA:31,0
DA:32,0
DA:33,4
DA:34,4
DA:35,4
DA:36,4
DA:37,0
DA:39,4
DA:40,4
DA:41,4
DA:42,4
DA:43,4
DA:44,4
DA:46,4
DA:47,4
DA:48,4
DA:51,11
DA:52,11
DA:53,11
DA:54,11
DA:55,11
DA:56,11
DA:57,11
DA:58,11
DA:59,11
DA:60,11
DA:61,11
DA:62,11
DA:63,11
DA:64,11
DA:65,11
DA:66,11
DA:67,11
DA:68,11
DA:69,11
DA:72,11
DA:73,2
DA:74,0
DA:76,2
DA:78,2
DA:79,11
DA:81,0
DA:82,0
DA:83,0
DA:84,0
DA:85,0
DA:87,98
DA:88,98
DA:89,98
DA:90,98
DA:91,98
DA:92,98
DA:93,98
DA:94,98
DA:95,98
DA:96,98
DA:97,98
DA:98,98
DA:99,98
DA:100,98
DA:102,98
DA:103,95
DA:104,3
DA:106,3
DA:107,3
DA:108,3
DA:109,4
DA:110,3
DA:111,0
DA:112,0
DA:113,0
DA:114,0
DA:115,0
DA:117,0
DA:118,0
DA:119,0
DA:122,3
DA:124,3
DA:125,3
DA:126,0
DA:127,0
DA:128,0
DA:129,3
DA:131,3
DA:132,3
DA:133,3
DA:134,3
DA:137,3
DA:138,3
DA:139,3
DA:141,3
DA:143,3
DA:144,3
DA:145,4
DA:146,4
DA:147,4
DA:148,4
DA:149,4
DA:150,4
DA:151,4
DA:152,4
DA:153,4
DA:154,4
DA:155,0
DA:156,4
DA:157,4
DA:158,4
DA:159,4
DA:160,4
DA:161,4
DA:162,4
DA:163,4
DA:164,4
DA:165,4
DA:166,4
DA:169,4
DA:170,4
DA:171,4
DA:172,4
DA:173,4
DA:174,4
DA:175,4
DA:176,4
DA:177,4
DA:178,4
DA:179,0
DA:180,4
DA:181,0
DA:182,0
DA:183,0
DA:184,0
DA:185,0
DA:186,0
DA:187,0
DA:188,0
DA:190,0
DA:191,0
DA:193,0
DA:194,0
DA:195,0
DA:196,0
DA:201,3
DA:202,0
DA:203,0
DA:204,0
DA:205,3
DA:206,3
DA:207,98
BRF:0
BRH:0
LF:158
LH:115
end_of_record
SF:G:\orgin_claude_code\claude-code-main\deepseek_novel_agent\crates\novel-core\src\subagent_helpers.rs
FN:131,_RNCNCNvNtCskOvt1kg1spG_10novel_core16subagent_helpers27execute_subagent_tool_batch00B7_
FN:177,_RNCNvNtCskOvt1kg1spG_10novel_core16subagent_helpers26subagent_push_tool_results0B5_
FN:181,_RNCNvNtCskOvt1kg1spG_10novel_core16subagent_helpers26subagent_push_tool_resultss0_0B5_
FN:200,_RNCNvNtCskOvt1kg1spG_10novel_core16subagent_helpers26subagent_push_tool_resultss1_0B5_
FN:219,_RNCNvNtCskOvt1kg1spG_10novel_core16subagent_helpers26subagent_push_tool_resultss2_0B5_
FN:180,_RNCNvNtCskOvt1kg1spG_10novel_core16subagent_helpers26subagent_push_tool_resultss_0B5_
FN:110,_RNCNvNtCskOvt1kg1spG_10novel_core16subagent_helpers27execute_subagent_tool_batch0B5_
FN:15,_RNvNtCskOvt1kg1spG_10novel_core16subagent_helpers15fork_child_push
FN:26,_RNvNtCskOvt1kg1spG_10novel_core16subagent_helpers26subagent_fork_tool_context
FN:162,_RNvNtCskOvt1kg1spG_10novel_core16subagent_helpers26subagent_push_tool_results
FN:97,_RNvNtCskOvt1kg1spG_10novel_core16subagent_helpers27execute_subagent_tool_batch
FN:49,_RNvNtCskOvt1kg1spG_10novel_core16subagent_helpers29forward_subagent_stream_event
FN:131,_RNCNCNvNtCsgAl8xIys83E_10novel_core16subagent_helpers27execute_subagent_tool_batch00B7_
FN:177,_RNCNvNtCsgAl8xIys83E_10novel_core16subagent_helpers26subagent_push_tool_results0B5_
FN:181,_RNCNvNtCsgAl8xIys83E_10novel_core16subagent_helpers26subagent_push_tool_resultss0_0B5_
FN:200,_RNCNvNtCsgAl8xIys83E_10novel_core16subagent_helpers26subagent_push_tool_resultss1_0B5_
FN:219,_RNCNvNtCsgAl8xIys83E_10novel_core16subagent_helpers26subagent_push_tool_resultss2_0B5_
FN:180,_RNCNvNtCsgAl8xIys83E_10novel_core16subagent_helpers26subagent_push_tool_resultss_0B5_
FN:110,_RNCNvNtCsgAl8xIys83E_10novel_core16subagent_helpers27execute_subagent_tool_batch0B5_
FN:279,_RNCNvNtNtCsgAl8xIys83E_10novel_core16subagent_helpers5testss_40execute_subagent_tool_batch_offline_read0B7_
FN:363,_RNCNvNtNtCsgAl8xIys83E_10novel_core16subagent_helpers5testss_44subagent_push_tool_results_persists_messages0B7_
FN:15,_RNvNtCsgAl8xIys83E_10novel_core16subagent_helpers15fork_child_push
FN:26,_RNvNtCsgAl8xIys83E_10novel_core16subagent_helpers26subagent_fork_tool_context
FN:162,_RNvNtCsgAl8xIys83E_10novel_core16subagent_helpers26subagent_push_tool_results
FN:97,_RNvNtCsgAl8xIys83E_10novel_core16subagent_helpers27execute_subagent_tool_batch
FN:49,_RNvNtCsgAl8xIys83E_10novel_core16subagent_helpers29forward_subagent_stream_event
FN:279,_RNvNtNtCsgAl8xIys83E_10novel_core16subagent_helpers5testss_40execute_subagent_tool_batch_offline_read
FN:308,_RNvNtNtCsgAl8xIys83E_10novel_core16subagent_helpers5testss_44subagent_push_tool_results_persists_messages
FN:247,_RNvNtNtCsgAl8xIys83E_10novel_core16subagent_helpers5testss_45forward_subagent_stream_event_covers_variants
FNDA:0,_RNCNCNvNtCskOvt1kg1spG_10novel_core16subagent_helpers27execute_subagent_tool_batch00B7_
FNDA:0,_RNCNvNtCskOvt1kg1spG_10novel_core16subagent_helpers26subagent_push_tool_results0B5_
FNDA:0,_RNCNvNtCskOvt1kg1spG_10novel_core16subagent_helpers26subagent_push_tool_resultss0_0B5_
FNDA:0,_RNCNvNtCskOvt1kg1spG_10novel_core16subagent_helpers26subagent_push_tool_resultss1_0B5_
FNDA:0,_RNCNvNtCskOvt1kg1spG_10novel_core16subagent_helpers26subagent_push_tool_resultss2_0B5_
FNDA:0,_RNCNvNtCskOvt1kg1spG_10novel_core16subagent_helpers26subagent_push_tool_resultss_0B5_
FNDA:0,_RNCNvNtCskOvt1kg1spG_10novel_core16subagent_helpers27execute_subagent_tool_batch0B5_
FNDA:0,_RNvNtCskOvt1kg1spG_10novel_core16subagent_helpers15fork_child_push
FNDA:0,_RNvNtCskOvt1kg1spG_10novel_core16subagent_helpers26subagent_fork_tool_context
FNDA:0,_RNvNtCskOvt1kg1spG_10novel_core16subagent_helpers26subagent_push_tool_results
FNDA:0,_RNvNtCskOvt1kg1spG_10novel_core16subagent_helpers27execute_subagent_tool_batch
FNDA:0,_RNvNtCskOvt1kg1spG_10novel_core16subagent_helpers29forward_subagent_stream_event
FNDA:0,_RNCNCNvNtCsgAl8xIys83E_10novel_core16subagent_helpers27execute_subagent_tool_batch00B7_
FNDA:1,_RNCNvNtCsgAl8xIys83E_10novel_core16subagent_helpers26subagent_push_tool_results0B5_
FNDA:0,_RNCNvNtCsgAl8xIys83E_10novel_core16subagent_helpers26subagent_push_tool_resultss0_0B5_
FNDA:1,_RNCNvNtCsgAl8xIys83E_10novel_core16subagent_helpers26subagent_push_tool_resultss1_0B5_
FNDA:0,_RNCNvNtCsgAl8xIys83E_10novel_core16subagent_helpers26subagent_push_tool_resultss2_0B5_
FNDA:1,_RNCNvNtCsgAl8xIys83E_10novel_core16subagent_helpers26subagent_push_tool_resultss_0B5_
FNDA:1,_RNCNvNtCsgAl8xIys83E_10novel_core16subagent_helpers27execute_subagent_tool_batch0B5_
FNDA:1,_RNCNvNtNtCsgAl8xIys83E_10novel_core16subagent_helpers5testss_40execute_subagent_tool_batch_offline_read0B7_
FNDA:2,_RNCNvNtNtCsgAl8xIys83E_10novel_core16subagent_helpers5testss_44subagent_push_tool_results_persists_messages0B7_
FNDA:8,_RNvNtCsgAl8xIys83E_10novel_core16subagent_helpers15fork_child_push
FNDA:5,_RNvNtCsgAl8xIys83E_10novel_core16subagent_helpers26subagent_fork_tool_context
FNDA:1,_RNvNtCsgAl8xIys83E_10novel_core16subagent_helpers26subagent_push_tool_results
FNDA:1,_RNvNtCsgAl8xIys83E_10novel_core16subagent_helpers27execute_subagent_tool_batch
FNDA:3,_RNvNtCsgAl8xIys83E_10novel_core16subagent_helpers29forward_subagent_stream_event
FNDA:1,_RNvNtNtCsgAl8xIys83E_10novel_core16subagent_helpers5testss_40execute_subagent_tool_batch_offline_read
FNDA:1,_RNvNtNtCsgAl8xIys83E_10novel_core16subagent_helpers5testss_44subagent_push_tool_results_persists_messages
FNDA:1,_RNvNtNtCsgAl8xIys83E_10novel_core16subagent_helpers5testss_45forward_subagent_stream_event_covers_variants
FNF:17
FNH:14
DA:15,8
DA:16,8
DA:17,8
DA:18,8
DA:19,8
DA:20,8
DA:21,8
DA:22,8
DA:23,8
DA:24,8
DA:26,5
DA:28,5
DA:29,5
DA:30,5
DA:31,5
DA:32,5
DA:34,5
DA:35,5
DA:36,5
DA:37,5
DA:38,5
DA:39,5
DA:40,5
DA:42,5
DA:43,5
DA:44,5
DA:45,5
DA:47,5
DA:49,3
DA:50,3
DA:51,3
DA:52,3
DA:53,3
DA:54,3
DA:55,1
DA:56,1
DA:57,1
DA:58,1
DA:59,1
DA:60,1
DA:61,1
DA:63,1
DA:64,1
DA:65,1
DA:66,1
DA:67,1
DA:68,1
DA:69,1
DA:70,1
DA:71,1
DA:72,1
DA:73,1
DA:74,1
DA:75,1
DA:76,1
DA:78,1
DA:79,1
DA:80,1
DA:81,1
DA:82,1
DA:83,1
DA:84,1
DA:85,1
DA:86,1
DA:87,1
DA:88,1
DA:89,1
DA:90,1
DA:91,1
DA:92,1
DA:93,0
DA:95,3
DA:97,1
DA:98,1
DA:99,1
DA:100,1
DA:101,1
DA:102,1
DA:103,1
DA:104,1
DA:105,1
DA:106,1
DA:107,1
DA:108,1
DA:109,1
DA:110,1
DA:111,1
DA:112,0
DA:113,0
DA:114,0
DA:115,0
DA:116,0
DA:117,0
DA:118,0
DA:119,0
DA:120,0
DA:121,0
DA:122,0
DA:123,0
DA:124,0
DA:125,0
DA:126,1
DA:127,1
DA:128,0
DA:129,0
DA:130,0
DA:131,0
DA:132,0
DA:133,0
DA:134,0
DA:135,0
DA:137,0
DA:139,0
DA:141,1
DA:142,1
DA:143,1
DA:145,1
DA:147,1
DA:148,1
DA:149,1
DA:150,1
DA:151,1
DA:152,1
DA:153,1
DA:154,1
DA:155,1
DA:157,1
DA:159,1
DA:162,1
DA:163,1
DA:164,1
DA:165,1
DA:166,1
DA:167,1
DA:168,1
DA:169,1
DA:170,1
DA:171,1
DA:172,1
DA:173,1
DA:174,1
DA:175,1
DA:176,1
DA:177,1
DA:178,1
DA:179,1
DA:180,1
DA:181,1
DA:182,1
DA:183,1
DA:184,0
DA:188,0
DA:191,1
DA:192,1
DA:193,1
DA:194,1
DA:195,1
DA:196,1
DA:197,0
DA:198,1
DA:199,1
DA:200,1
DA:201,1
DA:202,1
DA:203,1
DA:204,1
DA:205,1
DA:206,1
DA:207,1
DA:208,1
DA:209,1
DA:210,1
DA:211,1
DA:212,1
DA:213,1
DA:214,1
DA:215,0
DA:216,0
DA:217,0
DA:218,0
DA:219,0
DA:220,0
DA:221,0
DA:222,0
DA:223,0
DA:224,0
DA:226,1
DA:227,1
DA:228,1
DA:229,1
DA:230,1
DA:231,1
DA:232,0
DA:234,1
DA:235,1
DA:247,1
DA:248,1
DA:249,1
DA:250,1
DA:251,1
DA:252,1
DA:253,1
DA:254,1
DA:255,1
DA:256,1
DA:258,1
DA:259,1
DA:260,1
DA:261,1
DA:262,1
DA:263,1
DA:264,1
DA:265,1
DA:267,1
DA:268,1
DA:269,1
DA:270,1
DA:271,1
DA:272,1
DA:273,1
DA:275,1
DA:276,1
DA:279,1
DA:280,1
DA:281,1
DA:282,1
DA:283,1
DA:284,1
DA:285,1
DA:286,1
DA:287,1
DA:288,1
DA:289,1
DA:290,1
DA:291,1
DA:292,1
DA:293,1
DA:294,1
DA:295,1
DA:296,1
DA:297,1
DA:298,1
DA:299,1
DA:300,1
DA:301,1
DA:302,1
DA:303,1
DA:304,1
DA:305,1
DA:308,1
DA:309,1
DA:310,1
DA:311,1
DA:312,1
DA:313,1
DA:314,1
DA:315,1
DA:316,1
DA:317,1
DA:318,1
DA:319,1
DA:320,1
DA:321,1
DA:322,1
DA:323,1
DA:324,1
DA:326,1
DA:327,1
DA:328,1
DA:330,1
DA:331,1
DA:332,1
DA:333,1
DA:334,1
DA:335,1
DA:336,1
DA:337,1
DA:338,1
DA:339,1
DA:340,1
DA:341,1
DA:342,1
DA:343,1
DA:344,1
DA:345,1
DA:346,1
DA:347,1
DA:348,1
DA:349,1
DA:350,1
DA:351,1
DA:352,1
DA:353,1
DA:354,1
DA:355,1
DA:356,1
DA:357,1
DA:358,1
DA:359,1
DA:360,1
DA:362,1
DA:363,2
DA:364,1
BRF:0
BRH:0
LF:313
LH:271
end_of_record
SF:G:\orgin_claude_code\claude-code-main\deepseek_novel_agent\crates\novel-core\src\subagent_llm_turn.rs
FN:60,_RNCNCNvNtCskOvt1kg1spG_10novel_core17subagent_llm_turn29fetch_subagent_llm_completion00B7_
FN:73,_RNCNCNvNtCskOvt1kg1spG_10novel_core17subagent_llm_turn29fetch_subagent_llm_completion0s_0B7_
FN:45,_RNCNvNtCskOvt1kg1spG_10novel_core17subagent_llm_turn29fetch_subagent_llm_completion0B5_
FN:164,_RNvNtCskOvt1kg1spG_10novel_core17subagent_llm_turn25subagent_after_completion
FN:32,_RNvNtCskOvt1kg1spG_10novel_core17subagent_llm_turn29fetch_subagent_llm_completion
FN:60,_RNCNCNvNtCsgAl8xIys83E_10novel_core17subagent_llm_turn29fetch_subagent_llm_completion00B7_
FN:73,_RNCNCNvNtCsgAl8xIys83E_10novel_core17subagent_llm_turn29fetch_subagent_llm_completion0s_0B7_
FN:45,_RNCNvNtCsgAl8xIys83E_10novel_core17subagent_llm_turn29fetch_subagent_llm_completion0B5_
FN:223,_RNCNvNtNtCsgAl8xIys83E_10novel_core17subagent_llm_turn5testss_39fetch_subagent_live_stream_via_wiremock0B7_
FN:223,_RNvNtNtCsgAl8xIys83E_10novel_core17subagent_llm_turn5testss_39fetch_subagent_live_stream_via_wiremock
FN:164,_RNvNtCsgAl8xIys83E_10novel_core17subagent_llm_turn25subagent_after_completion
FN:32,_RNvNtCsgAl8xIys83E_10novel_core17subagent_llm_turn29fetch_subagent_llm_completion
FNDA:0,_RNCNCNvNtCskOvt1kg1spG_10novel_core17subagent_llm_turn29fetch_subagent_llm_completion00B7_
FNDA:0,_RNCNCNvNtCskOvt1kg1spG_10novel_core17subagent_llm_turn29fetch_subagent_llm_completion0s_0B7_
FNDA:0,_RNCNvNtCskOvt1kg1spG_10novel_core17subagent_llm_turn29fetch_subagent_llm_completion0B5_
FNDA:0,_RNvNtCskOvt1kg1spG_10novel_core17subagent_llm_turn25subagent_after_completion
FNDA:0,_RNvNtCskOvt1kg1spG_10novel_core17subagent_llm_turn29fetch_subagent_llm_completion
FNDA:0,_RNCNCNvNtCsgAl8xIys83E_10novel_core17subagent_llm_turn29fetch_subagent_llm_completion00B7_
FNDA:2,_RNCNCNvNtCsgAl8xIys83E_10novel_core17subagent_llm_turn29fetch_subagent_llm_completion0s_0B7_
FNDA:5,_RNCNvNtCsgAl8xIys83E_10novel_core17subagent_llm_turn29fetch_subagent_llm_completion0B5_
FNDA:1,_RNCNvNtNtCsgAl8xIys83E_10novel_core17subagent_llm_turn5testss_39fetch_subagent_live_stream_via_wiremock0B7_
FNDA:1,_RNvNtNtCsgAl8xIys83E_10novel_core17subagent_llm_turn5testss_39fetch_subagent_live_stream_via_wiremock
FNDA:4,_RNvNtCsgAl8xIys83E_10novel_core17subagent_llm_turn25subagent_after_completion
FNDA:5,_RNvNtCsgAl8xIys83E_10novel_core17subagent_llm_turn29fetch_subagent_llm_completion
FNF:7
FNH:6
DA:32,5
DA:33,5
DA:34,5
DA:35,5
DA:36,5
DA:37,5
DA:38,5
DA:39,5
DA:40,5
DA:41,5
DA:42,5
DA:43,5
DA:44,5
DA:45,5
DA:46,5
DA:47,5
DA:48,1
DA:49,1
DA:50,1
DA:51,1
DA:52,1
DA:54,1
DA:56,1
DA:57,1
DA:58,1
DA:59,1
DA:60,1
DA:61,0
DA:62,0
DA:63,0
DA:64,0
DA:65,1
DA:66,1
DA:67,1
DA:68,1
DA:69,1
DA:70,1
DA:71,1
DA:72,1
DA:73,2
DA:74,2
DA:75,0
DA:76,2
DA:77,2
DA:78,1
DA:79,1
DA:81,1
DA:82,1
DA:83,1
DA:85,0
DA:86,0
DA:88,0
DA:89,0
DA:90,0
DA:91,0
DA:96,0
DA:97,0
DA:100,0
DA:101,0
DA:102,0
DA:103,0
DA:104,0
DA:105,0
DA:106,0
DA:107,0
DA:108,0
DA:109,0
DA:110,0
DA:111,0
DA:112,0
DA:113,0
DA:114,0
DA:115,0
DA:116,0
DA:118,0
DA:119,0
DA:125,0
DA:126,0
DA:127,0
DA:128,0
DA:129,0
DA:130,0
DA:131,0
DA:132,0
DA:133,0
DA:134,0
DA:135,0
DA:136,0
DA:137,0
DA:139,0
DA:140,0
DA:146,0
DA:147,0
DA:148,0
DA:149,0
DA:152,1
DA:153,1
DA:154,1
DA:155,1
DA:156,4
DA:157,4
DA:158,4
DA:159,4
DA:160,4
DA:161,5
DA:164,4
DA:165,4
DA:166,4
DA:167,4
DA:168,4
DA:169,4
DA:170,4
DA:171,4
DA:172,4
DA:173,4
DA:174,4
DA:175,4
DA:176,0
DA:181,0
DA:184,0
DA:185,0
DA:186,0
DA:187,0
DA:188,0
DA:189,0
DA:190,0
DA:191,0
DA:192,0
DA:193,0
DA:194,0
DA:195,0
DA:196,0
DA:197,0
DA:198,4
DA:199,4
DA:200,4
DA:201,4
DA:202,4
DA:203,0
DA:204,0
DA:205,0
DA:206,0
DA:207,4
DA:208,4
DA:209,4
DA:223,1
DA:224,1
DA:225,1
DA:226,1
DA:227,1
DA:229,1
DA:234,1
DA:235,1
DA:236,1
DA:237,1
DA:238,1
DA:239,1
DA:240,1
DA:241,1
DA:242,1
DA:244,1
DA:245,1
DA:246,1
DA:247,1
DA:248,1
DA:249,1
DA:250,1
DA:251,1
DA:252,1
DA:253,1
DA:255,1
DA:256,1
DA:257,1
DA:258,1
DA:259,1
DA:260,1
DA:261,1
DA:262,1
DA:263,1
DA:264,1
DA:265,1
DA:266,1
DA:267,1
DA:268,1
DA:269,1
DA:270,1
DA:271,1
DA:272,1
DA:273,1
DA:274,1
DA:275,1
DA:276,1
DA:277,1
DA:278,1
DA:279,1
DA:280,1
DA:281,1
DA:282,1
DA:283,1
DA:284,1
DA:285,1
DA:286,1
DA:287,1
DA:288,1
DA:289,1
DA:290,1
DA:291,1
DA:292,1
DA:293,1
DA:294,1
DA:295,1
DA:296,1
DA:297,1
BRF:0
BRH:0
LF:217
LH:145
end_of_record
SF:G:\orgin_claude_code\claude-code-main\deepseek_novel_agent\crates\novel-core\src\subagent_overflow.rs
FN:19,_RNvNtCskOvt1kg1spG_10novel_core17subagent_overflow16task_preview_120
FN:7,_RNvNtCskOvt1kg1spG_10novel_core17subagent_overflow20build_partial_report
FN:19,_RNvNtCsgAl8xIys83E_10novel_core17subagent_overflow16task_preview_120
FN:7,_RNvNtCsgAl8xIys83E_10novel_core17subagent_overflow20build_partial_report
FN:46,_RNvNtNtCsgAl8xIys83E_10novel_core17subagent_overflow5testss_29task_preview_truncates_at_120
FN:33,_RNvNtNtCsgAl8xIys83E_10novel_core17subagent_overflow5testss_39partial_report_has_task_and_explanation
FNDA:0,_RNvNtCskOvt1kg1spG_10novel_core17subagent_overflow16task_preview_120
FNDA:0,_RNvNtCskOvt1kg1spG_10novel_core17subagent_overflow20build_partial_report
FNDA:1,_RNvNtCsgAl8xIys83E_10novel_core17subagent_overflow16task_preview_120
FNDA:1,_RNvNtCsgAl8xIys83E_10novel_core17subagent_overflow20build_partial_report
FNDA:1,_RNvNtNtCsgAl8xIys83E_10novel_core17subagent_overflow5testss_29task_preview_truncates_at_120
FNDA:1,_RNvNtNtCsgAl8xIys83E_10novel_core17subagent_overflow5testss_39partial_report_has_task_and_explanation
FNF:4
FNH:4
DA:7,1
DA:8,1
DA:17,1
DA:19,1
DA:20,1
DA:21,1
DA:22,1
DA:24,0
DA:26,1
DA:33,1
DA:34,1
DA:35,1
DA:36,1
DA:37,1
DA:39,1
DA:40,1
DA:41,1
DA:42,1
DA:43,1
DA:46,1
DA:47,1
DA:48,1
DA:49,1
DA:50,1
BRF:0
BRH:0
LF:24
LH:23
end_of_record
SF:G:\orgin_claude_code\claude-code-main\deepseek_novel_agent\crates\novel-core\src\subagent_react.rs
FN:51,_RNvMNtCskOvt1kg1spG_10novel_core14subagent_reactNtB2_17SubagentLoopPhase13consume_grace
FN:47,_RNvMNtCskOvt1kg1spG_10novel_core14subagent_reactNtB2_17SubagentLoopPhase14is_report_only
FN:41,_RNvMNtCskOvt1kg1spG_10novel_core14subagent_reactNtB2_17SubagentLoopPhase17enter_report_only
FN:23,_RNvNtCskOvt1kg1spG_10novel_core14subagent_react26report_only_tool_rejection
FN:8,_RNvNtCskOvt1kg1spG_10novel_core14subagent_react28react_limit_reminder_message
FN:66,_RNvNtNtCsgAl8xIys83E_10novel_core14subagent_react5testss_23reminder_mentions_limit
FN:73,_RNvNtNtCsgAl8xIys83E_10novel_core14subagent_react5testss_24consume_grace_steps_down
FN:51,_RNvMNtCsgAl8xIys83E_10novel_core14subagent_reactNtB2_17SubagentLoopPhase13consume_grace
FN:47,_RNvMNtCsgAl8xIys83E_10novel_core14subagent_reactNtB2_17SubagentLoopPhase14is_report_only
FN:41,_RNvMNtCsgAl8xIys83E_10novel_core14subagent_reactNtB2_17SubagentLoopPhase17enter_report_only
FN:23,_RNvNtCsgAl8xIys83E_10novel_core14subagent_react26report_only_tool_rejection
FN:8,_RNvNtCsgAl8xIys83E_10novel_core14subagent_react28react_limit_reminder_message
FNDA:0,_RNvMNtCskOvt1kg1spG_10novel_core14subagent_reactNtB2_17SubagentLoopPhase13consume_grace
FNDA:0,_RNvMNtCskOvt1kg1spG_10novel_core14subagent_reactNtB2_17SubagentLoopPhase14is_report_only
FNDA:0,_RNvMNtCskOvt1kg1spG_10novel_core14subagent_reactNtB2_17SubagentLoopPhase17enter_report_only
FNDA:0,_RNvNtCskOvt1kg1spG_10novel_core14subagent_react26report_only_tool_rejection
FNDA:0,_RNvNtCskOvt1kg1spG_10novel_core14subagent_react28react_limit_reminder_message
FNDA:1,_RNvNtNtCsgAl8xIys83E_10novel_core14subagent_react5testss_23reminder_mentions_limit
FNDA:1,_RNvNtNtCsgAl8xIys83E_10novel_core14subagent_react5testss_24consume_grace_steps_down
FNDA:4,_RNvMNtCsgAl8xIys83E_10novel_core14subagent_reactNtB2_17SubagentLoopPhase13consume_grace
FNDA:4,_RNvMNtCsgAl8xIys83E_10novel_core14subagent_reactNtB2_17SubagentLoopPhase14is_report_only
FNDA:0,_RNvMNtCsgAl8xIys83E_10novel_core14subagent_reactNtB2_17SubagentLoopPhase17enter_report_only
FNDA:1,_RNvNtCsgAl8xIys83E_10novel_core14subagent_react26report_only_tool_rejection
FNDA:1,_RNvNtCsgAl8xIys83E_10novel_core14subagent_react28react_limit_reminder_message
FNF:7
FNH:6
DA:8,1
DA:9,1
DA:10,1
DA:11,1
DA:12,1
DA:13,1
DA:14,1
DA:15,1
DA:16,1
DA:17,1
DA:18,1
DA:19,1
DA:20,1
DA:21,1
DA:23,1
DA:24,1
DA:25,1
DA:26,1
DA:27,1
DA:28,1
DA:29,1
DA:30,1
DA:31,1
DA:32,1
DA:41,0
DA:42,0
DA:43,0
DA:44,0
DA:45,0
DA:47,4
DA:48,4
DA:49,4
DA:51,4
DA:52,4
DA:53,0
DA:54,1
DA:55,2
DA:56,1
DA:58,4
DA:66,1
DA:67,1
DA:68,1
DA:69,1
DA:70,1
DA:73,1
DA:74,1
DA:75,1
DA:76,1
DA:77,1
DA:80,1
DA:81,1
DA:82,1
DA:85,1
DA:86,1
BRF:0
BRH:0
LF:54
LH:48
end_of_record
SF:G:\orgin_claude_code\claude-code-main\deepseek_novel_agent\crates\novel-core\src\subagent_runner.rs
FN:31,_RNCNvNtCskOvt1kg1spG_10novel_core15subagent_runner16run_subagent_job0B5_
FN:151,_RNCNvNtCskOvt1kg1spG_10novel_core15subagent_runner20subagent_single_turn0B5_
FN:343,_RNCNvNtCskOvt1kg1spG_10novel_core15subagent_runner23subagent_run_react_loop0B5_
FN:102,_RNCNvNtCskOvt1kg1spG_10novel_core15subagent_runner24subagent_finalize_output0B5_
FN:104,_RNCNvNtCskOvt1kg1spG_10novel_core15subagent_runner24subagent_finalize_outputs0_0B5_
FN:103,_RNCNvNtCskOvt1kg1spG_10novel_core15subagent_runner24subagent_finalize_outputs_0B5_
FN:238,_RNCNvNtCskOvt1kg1spG_10novel_core15subagent_runner31subagent_apply_completion_tools0B5_
FN:25,_RNvNtCskOvt1kg1spG_10novel_core15subagent_runner16run_subagent_job
FN:138,_RNvNtCskOvt1kg1spG_10novel_core15subagent_runner20subagent_single_turn
FN:332,_RNvNtCskOvt1kg1spG_10novel_core15subagent_runner23subagent_run_react_loop
FN:90,_RNvNtCskOvt1kg1spG_10novel_core15subagent_runner24subagent_finalize_output
FN:225,_RNvNtCskOvt1kg1spG_10novel_core15subagent_runner31subagent_apply_completion_tools
FN:301,_RNvNtCskOvt1kg1spG_10novel_core15subagent_runner32subagent_apply_report_only_tools
FN:450,_RNvNtNtCsgAl8xIys83E_10novel_core15subagent_runner5testss_36report_only_tools_enters_grace_phase
FN:25,_RNvNtCsgAl8xIys83E_10novel_core15subagent_runner16run_subagent_job
FN:138,_RNvNtCsgAl8xIys83E_10novel_core15subagent_runner20subagent_single_turn
FN:332,_RNvNtCsgAl8xIys83E_10novel_core15subagent_runner23subagent_run_react_loop
FN:90,_RNvNtCsgAl8xIys83E_10novel_core15subagent_runner24subagent_finalize_output
FN:225,_RNvNtCsgAl8xIys83E_10novel_core15subagent_runner31subagent_apply_completion_tools
FN:301,_RNvNtCsgAl8xIys83E_10novel_core15subagent_runner32subagent_apply_report_only_tools
FN:31,_RNCNvNtCsgAl8xIys83E_10novel_core15subagent_runner16run_subagent_job0B5_
FN:151,_RNCNvNtCsgAl8xIys83E_10novel_core15subagent_runner20subagent_single_turn0B5_
FN:343,_RNCNvNtCsgAl8xIys83E_10novel_core15subagent_runner23subagent_run_react_loop0B5_
FN:102,_RNCNvNtCsgAl8xIys83E_10novel_core15subagent_runner24subagent_finalize_output0B5_
FN:104,_RNCNvNtCsgAl8xIys83E_10novel_core15subagent_runner24subagent_finalize_outputs0_0B5_
FN:103,_RNCNvNtCsgAl8xIys83E_10novel_core15subagent_runner24subagent_finalize_outputs_0B5_
FN:238,_RNCNvNtCsgAl8xIys83E_10novel_core15subagent_runner31subagent_apply_completion_tools0B5_
FNDA:0,_RNCNvNtCskOvt1kg1spG_10novel_core15subagent_runner16run_subagent_job0B5_
FNDA:0,_RNCNvNtCskOvt1kg1spG_10novel_core15subagent_runner20subagent_single_turn0B5_
FNDA:0,_RNCNvNtCskOvt1kg1spG_10novel_core15subagent_runner23subagent_run_react_loop0B5_
FNDA:0,_RNCNvNtCskOvt1kg1spG_10novel_core15subagent_runner24subagent_finalize_output0B5_
FNDA:0,_RNCNvNtCskOvt1kg1spG_10novel_core15subagent_runner24subagent_finalize_outputs0_0B5_
FNDA:0,_RNCNvNtCskOvt1kg1spG_10novel_core15subagent_runner24subagent_finalize_outputs_0B5_
FNDA:0,_RNCNvNtCskOvt1kg1spG_10novel_core15subagent_runner31subagent_apply_completion_tools0B5_
FNDA:0,_RNvNtCskOvt1kg1spG_10novel_core15subagent_runner16run_subagent_job
FNDA:0,_RNvNtCskOvt1kg1spG_10novel_core15subagent_runner20subagent_single_turn
FNDA:0,_RNvNtCskOvt1kg1spG_10novel_core15subagent_runner23subagent_run_react_loop
FNDA:0,_RNvNtCskOvt1kg1spG_10novel_core15subagent_runner24subagent_finalize_output
FNDA:0,_RNvNtCskOvt1kg1spG_10novel_core15subagent_runner31subagent_apply_completion_tools
FNDA:0,_RNvNtCskOvt1kg1spG_10novel_core15subagent_runner32subagent_apply_report_only_tools
FNDA:1,_RNvNtNtCsgAl8xIys83E_10novel_core15subagent_runner5testss_36report_only_tools_enters_grace_phase
FNDA:4,_RNvNtCsgAl8xIys83E_10novel_core15subagent_runner16run_subagent_job
FNDA:4,_RNvNtCsgAl8xIys83E_10novel_core15subagent_runner20subagent_single_turn
FNDA:4,_RNvNtCsgAl8xIys83E_10novel_core15subagent_runner23subagent_run_react_loop
FNDA:4,_RNvNtCsgAl8xIys83E_10novel_core15subagent_runner24subagent_finalize_output
FNDA:4,_RNvNtCsgAl8xIys83E_10novel_core15subagent_runner31subagent_apply_completion_tools
FNDA:1,_RNvNtCsgAl8xIys83E_10novel_core15subagent_runner32subagent_apply_report_only_tools
FNDA:4,_RNCNvNtCsgAl8xIys83E_10novel_core15subagent_runner16run_subagent_job0B5_
FNDA:4,_RNCNvNtCsgAl8xIys83E_10novel_core15subagent_runner20subagent_single_turn0B5_
FNDA:4,_RNCNvNtCsgAl8xIys83E_10novel_core15subagent_runner23subagent_run_react_loop0B5_
FNDA:4,_RNCNvNtCsgAl8xIys83E_10novel_core15subagent_runner24subagent_finalize_output0B5_
FNDA:0,_RNCNvNtCsgAl8xIys83E_10novel_core15subagent_runner24subagent_finalize_outputs0_0B5_
FNDA:4,_RNCNvNtCsgAl8xIys83E_10novel_core15subagent_runner24subagent_finalize_outputs_0B5_
FNDA:4,_RNCNvNtCsgAl8xIys83E_10novel_core15subagent_runner31subagent_apply_completion_tools0B5_
FNF:14
FNH:13
DA:25,4
DA:26,4
DA:27,4
DA:28,4
DA:29,4
DA:30,4
DA:31,4
DA:32,4
DA:33,4
DA:34,4
DA:36,4
DA:37,4
DA:38,0
DA:40,4
DA:43,0
DA:46,4
DA:47,4
DA:49,4
DA:50,4
DA:51,0
DA:53,4
DA:55,4
DA:56,0
DA:57,0
DA:58,0
DA:59,0
DA:60,0
DA:61,0
DA:62,0
DA:63,4
DA:64,4
DA:65,4
DA:66,4
DA:67,4
DA:68,0
DA:71,4
DA:72,4
DA:73,4
DA:75,4
DA:76,4
DA:77,4
DA:78,4
DA:79,4
DA:80,4
DA:81,4
DA:82,4
DA:83,4
DA:84,4
DA:85,4
DA:86,4
DA:87,4
DA:88,4
DA:90,4
DA:91,4
DA:92,4
DA:93,4
DA:94,4
DA:95,4
DA:96,4
DA:97,4
DA:98,4
DA:99,4
DA:100,4
DA:101,4
DA:102,4
DA:103,4
DA:104,4
DA:105,4
DA:106,4
DA:107,0
DA:108,0
DA:109,0
DA:110,0
DA:112,0
DA:114,0
DA:125,4
DA:138,4
DA:139,4
DA:140,4
DA:141,4
DA:142,4
DA:143,4
DA:144,4
DA:145,4
DA:146,4
DA:147,4
DA:148,4
DA:149,4
DA:150,4
DA:151,4
DA:152,4
DA:153,4
DA:154,4
DA:155,4
DA:156,4
DA:157,4
DA:158,4
DA:159,4
DA:161,4
DA:162,4
DA:163,4
DA:165,4
DA:166,4
DA:167,4
DA:168,4
DA:169,4
DA:170,4
DA:171,4
DA:172,4
DA:173,4
DA:174,4
DA:175,4
DA:176,4
DA:177,4
DA:178,4
DA:179,4
DA:180,4
DA:182,0
DA:183,0
DA:184,0
DA:185,0
DA:187,0
DA:188,0
DA:191,4
DA:192,4
DA:193,4
DA:196,4
DA:197,4
DA:198,4
DA:199,4
DA:200,4
DA:201,4
DA:202,4
DA:203,4
DA:204,4
DA:205,4
DA:206,0
DA:207,0
DA:208,4
DA:210,4
DA:211,4
DA:212,4
DA:213,4
DA:214,4
DA:215,4
DA:216,4
DA:217,4
DA:218,4
DA:219,4
DA:220,4
DA:221,4
DA:222,4
DA:223,4
DA:225,4
DA:226,4
DA:227,4
DA:228,4
DA:229,4
DA:230,4
DA:231,4
DA:232,4
DA:233,4
DA:234,4
DA:235,4
DA:236,4
DA:237,4
DA:238,4
DA:239,4
DA:240,4
DA:241,4
DA:242,4
DA:243,4
DA:244,4
DA:245,4
DA:246,0
DA:247,4
DA:248,4
DA:249,4
DA:250,4
DA:251,0
DA:253,0
DA:254,0
DA:255,0
DA:256,0
DA:257,0
DA:258,0
DA:259,0
DA:260,0
DA:262,0
DA:264,0
DA:265,0
DA:266,0
DA:267,0
DA:268,0
DA:269,0
DA:270,0
DA:271,0
DA:272,0
DA:273,0
DA:274,0
DA:275,0
DA:276,0
DA:277,0
DA:278,0
DA:279,0
DA:280,0
DA:281,0
DA:282,0
DA:283,0
DA:284,0
DA:286,0
DA:287,0
DA:288,0
DA:289,0
DA:290,0
DA:291,0
DA:292,0
DA:293,0
DA:294,0
DA:295,0
DA:296,0
DA:297,0
DA:298,0
DA:299,4
DA:301,1
DA:302,1
DA:303,1
DA:304,1
DA:305,1
DA:306,1
DA:307,1
DA:308,1
DA:309,1
DA:310,1
DA:311,1
DA:312,1
DA:313,1
DA:314,0
DA:315,1
DA:316,1
DA:317,1
DA:318,1
DA:319,1
DA:320,1
DA:321,0
DA:323,1
DA:324,1
DA:325,0
DA:326,0
DA:327,0
DA:328,0
DA:329,0
DA:330,1
DA:332,4
DA:333,4
DA:334,4
DA:335,4
DA:336,4
DA:337,4
DA:338,4
DA:339,4
DA:340,4
DA:341,4
DA:342,4
DA:343,4
DA:344,4
DA:345,4
DA:349,4
DA:350,0
DA:351,0
DA:352,0
DA:353,4
DA:354,4
DA:355,0
DA:356,0
DA:357,0
DA:358,0
DA:359,0
DA:360,0
DA:361,0
DA:362,0
DA:363,0
DA:364,4
DA:365,4
DA:370,0
DA:371,0
DA:374,4
DA:375,4
DA:376,4
DA:377,4
DA:378,4
DA:379,4
DA:380,4
DA:381,4
DA:382,4
DA:383,4
DA:384,4
DA:385,4
DA:386,4
DA:387,4
DA:388,4
DA:391,4
DA:392,4
DA:394,4
DA:395,4
DA:396,4
DA:398,0
DA:399,0
DA:400,0
DA:401,0
DA:406,4
DA:407,4
DA:408,4
DA:409,4
DA:410,4
DA:411,4
DA:412,4
DA:416,4
DA:417,4
DA:418,4
DA:420,4
DA:421,0
DA:422,0
DA:423,0
DA:424,0
DA:425,0
DA:426,0
DA:427,4
DA:429,4
DA:432,0
DA:438,4
DA:439,4
DA:450,1
DA:451,1
DA:452,1
DA:453,1
DA:454,1
DA:455,1
DA:456,1
DA:457,1
DA:458,1
DA:459,1
DA:460,1
DA:461,1
DA:462,1
DA:463,1
DA:464,1
DA:465,1
DA:466,1
DA:468,1
DA:469,1
DA:470,1
DA:472,1
DA:473,1
DA:474,1
DA:475,1
DA:476,1
DA:477,1
DA:478,1
DA:479,1
DA:480,1
DA:481,1
DA:482,1
DA:483,1
DA:484,1
DA:485,1
DA:486,1
DA:487,1
DA:488,1
DA:489,1
DA:490,1
DA:491,1
DA:492,1
DA:493,1
DA:495,1
DA:496,1
DA:497,1
DA:502,1
BRF:0
BRH:0
LF:385
LH:282
end_of_record
SF:G:\orgin_claude_code\claude-code-main\deepseek_novel_agent\crates\novel-core\src\system_prompt.rs
FN:71,_RNvMs_NtCskOvt1kg1spG_10novel_core13system_promptNtB4_19SystemPromptBuilder17build_static_only
FN:31,_RNvMs_NtCskOvt1kg1spG_10novel_core13system_promptNtB4_19SystemPromptBuilder3new
FN:37,_RNvMs_NtCskOvt1kg1spG_10novel_core13system_promptNtB4_19SystemPromptBuilder5build
FN:84,_RNvNtCskOvt1kg1spG_10novel_core13system_prompt20system_static_sha256
FN:8,_RNvXNtCskOvt1kg1spG_10novel_core13system_promptNtB2_12StaticPromptNtNtCs8icZUrvfcq9_4core7default7Default7default
FN:93,_RNvXs0_NtCskOvt1kg1spG_10novel_core13system_promptNtB5_19SystemPromptBuilderNtNtCs8icZUrvfcq9_4core7default7Default7default
FN:55,_RNCNvMs_NtCskOvt1kg1spG_10novel_core13system_promptNtB6_19SystemPromptBuilder5build0B8_
FN:93,_RNvXs0_NtCsgAl8xIys83E_10novel_core13system_promptNtB5_19SystemPromptBuilderNtNtCs8icZUrvfcq9_4core7default7Default7default
FN:55,_RNCNvMs_NtCsgAl8xIys83E_10novel_core13system_promptNtB6_19SystemPromptBuilder5build0B8_
FN:71,_RNvMs_NtCsgAl8xIys83E_10novel_core13system_promptNtB4_19SystemPromptBuilder17build_static_only
FN:31,_RNvMs_NtCsgAl8xIys83E_10novel_core13system_promptNtB4_19SystemPromptBuilder3new
FN:37,_RNvMs_NtCsgAl8xIys83E_10novel_core13system_promptNtB4_19SystemPromptBuilder5build
FN:84,_RNvNtCsgAl8xIys83E_10novel_core13system_prompt20system_static_sha256
FN:8,_RNvXNtCsgAl8xIys83E_10novel_core13system_promptNtB2_12StaticPromptNtNtCs8icZUrvfcq9_4core7default7Default7default
FN:103,_RNvNtNtCsgAl8xIys83E_10novel_core13system_prompt5testss_20static_prompt_loaded
FN:111,_RNvNtNtCsgAl8xIys83E_10novel_core13system_prompt5testss_25dynamic_sections_appended
FN:121,_RNvNtNtCsgAl8xIys83E_10novel_core13system_prompt5testss_41skill_summaries_render_merged_description
FN:139,_RNvNtNtCsgAl8xIys83E_10novel_core13system_prompt5testss_44system_static_sha256_ignores_skill_summaries
FNDA:8,_RNvMs_NtCskOvt1kg1spG_10novel_core13system_promptNtB4_19SystemPromptBuilder17build_static_only
FNDA:16,_RNvMs_NtCskOvt1kg1spG_10novel_core13system_promptNtB4_19SystemPromptBuilder3new
FNDA:16,_RNvMs_NtCskOvt1kg1spG_10novel_core13system_promptNtB4_19SystemPromptBuilder5build
FNDA:8,_RNvNtCskOvt1kg1spG_10novel_core13system_prompt20system_static_sha256
FNDA:16,_RNvXNtCskOvt1kg1spG_10novel_core13system_promptNtB2_12StaticPromptNtNtCs8icZUrvfcq9_4core7default7Default7default
FNDA:0,_RNvXs0_NtCskOvt1kg1spG_10novel_core13system_promptNtB5_19SystemPromptBuilderNtNtCs8icZUrvfcq9_4core7default7Default7default
FNDA:0,_RNCNvMs_NtCskOvt1kg1spG_10novel_core13system_promptNtB6_19SystemPromptBuilder5build0B8_
FNDA:0,_RNvXs0_NtCsgAl8xIys83E_10novel_core13system_promptNtB5_19SystemPromptBuilderNtNtCs8icZUrvfcq9_4core7default7Default7default
FNDA:2,_RNCNvMs_NtCsgAl8xIys83E_10novel_core13system_promptNtB6_19SystemPromptBuilder5build0B8_
FNDA:33,_RNvMs_NtCsgAl8xIys83E_10novel_core13system_promptNtB4_19SystemPromptBuilder17build_static_only
FNDA:68,_RNvMs_NtCsgAl8xIys83E_10novel_core13system_promptNtB4_19SystemPromptBuilder3new
FNDA:68,_RNvMs_NtCsgAl8xIys83E_10novel_core13system_promptNtB4_19SystemPromptBuilder5build
FNDA:33,_RNvNtCsgAl8xIys83E_10novel_core13system_prompt20system_static_sha256
FNDA:68,_RNvXNtCsgAl8xIys83E_10novel_core13system_promptNtB2_12StaticPromptNtNtCs8icZUrvfcq9_4core7default7Default7default
FNDA:1,_RNvNtNtCsgAl8xIys83E_10novel_core13system_prompt5testss_20static_prompt_loaded
FNDA:1,_RNvNtNtCsgAl8xIys83E_10novel_core13system_prompt5testss_25dynamic_sections_appended
FNDA:1,_RNvNtNtCsgAl8xIys83E_10novel_core13system_prompt5testss_41skill_summaries_render_merged_description
FNDA:1,_RNvNtNtCsgAl8xIys83E_10novel_core13system_prompt5testss_44system_static_sha256_ignores_skill_summaries
FNF:11
FNH:10
DA:8,84
DA:9,84
DA:10,84
DA:11,84
DA:12,84
DA:31,84
DA:32,84
DA:33,84
DA:34,84
DA:35,84
DA:37,84
DA:38,84
DA:39,84
DA:40,81
DA:41,81
DA:42,84
DA:43,41
DA:44,43
DA:45,84
DA:46,0
DA:47,84
DA:48,84
DA:49,40
DA:50,44
DA:51,84
DA:52,1
DA:53,1
DA:54,1
DA:55,2
DA:56,1
DA:57,1
DA:58,83
DA:59,84
DA:60,81
DA:61,81
DA:62,81
DA:63,81
DA:64,81
DA:65,81
DA:66,81
DA:67,84
DA:68,84
DA:71,41
DA:72,41
DA:73,41
DA:74,41
DA:75,41
DA:76,41
DA:77,41
DA:78,41
DA:79,41
DA:80,41
DA:84,41
DA:86,41
DA:87,41
DA:88,41
DA:89,41
DA:90,41
DA:93,0
DA:94,0
DA:95,0
DA:103,1
DA:104,1
DA:105,1
DA:106,1
DA:107,1
DA:108,1
DA:111,1
DA:112,1
DA:113,1
DA:114,1
DA:115,1
DA:116,1
DA:117,1
DA:118,1
DA:121,1
DA:122,1
DA:123,1
DA:124,1
DA:125,1
DA:126,1
DA:127,1
DA:128,1
DA:129,1
DA:130,1
DA:131,1
DA:132,1
DA:133,1
DA:134,1
DA:135,1
DA:136,1
DA:139,1
DA:140,1
DA:141,1
DA:142,1
DA:143,1
DA:144,1
DA:145,1
DA:146,1
DA:147,1
DA:148,1
DA:149,1
DA:151,1
BRF:0
BRH:0
LF:104
LH:100
end_of_record
SF:G:\orgin_claude_code\claude-code-main\deepseek_novel_agent\crates\novel-core\src\test_env.rs
FN:18,_RNvXs_NtCsgAl8xIys83E_10novel_core8test_envNtB4_19StripDeepseekApiKeyNtNtNtCs8icZUrvfcq9_4core3ops4drop4Drop4drop
FN:9,_RNvMNtCsgAl8xIys83E_10novel_core8test_envNtB2_19StripDeepseekApiKey3new
FNDA:15,_RNvXs_NtCsgAl8xIys83E_10novel_core8test_envNtB4_19StripDeepseekApiKeyNtNtNtCs8icZUrvfcq9_4core3ops4drop4Drop4drop
FNDA:15,_RNvMNtCsgAl8xIys83E_10novel_core8test_envNtB2_19StripDeepseekApiKey3new
FNF:2
FNH:2
DA:9,15
DA:10,15
DA:11,15
DA:12,15
DA:13,15
DA:18,15
DA:19,15
DA:20,0
DA:21,15
DA:22,15
BRF:0
BRH:0
LF:10
LH:9
end_of_record
SF:G:\orgin_claude_code\claude-code-main\deepseek_novel_agent\crates\novel-core\src\tool_stream_results.rs
FN:40,_RNCNvNtCskOvt1kg1spG_10novel_core19tool_stream_results23ordered_tool_result_ids0B5_
FN:44,_RNCNvNtCskOvt1kg1spG_10novel_core19tool_stream_results23ordered_tool_result_idss_0B5_
FN:34,_RNvNtCskOvt1kg1spG_10novel_core19tool_stream_results23ordered_tool_result_ids
FN:7,_RNvNtCskOvt1kg1spG_10novel_core19tool_stream_results26merge_stream_results_by_id
FN:34,_RNvNtCsgAl8xIys83E_10novel_core19tool_stream_results23ordered_tool_result_ids
FN:7,_RNvNtCsgAl8xIys83E_10novel_core19tool_stream_results26merge_stream_results_by_id
FN:63,_RNvNtNtCsgAl8xIys83E_10novel_core19tool_stream_results5tests11needs_input
FN:56,_RNvNtNtCsgAl8xIys83E_10novel_core19tool_stream_results5tests6ok_out
FN:70,_RNvNtNtCsgAl8xIys83E_10novel_core19tool_stream_results5testss_38merge_prefers_needs_user_input_over_ok
FN:90,_RNvNtNtCsgAl8xIys83E_10novel_core19tool_stream_results5testss_39ordered_results_follows_tool_call_order
FN:80,_RNvNtNtCsgAl8xIys83E_10novel_core19tool_stream_results5testss_42merge_keeps_needs_user_input_when_later_ok
FN:40,_RNCNvNtCsgAl8xIys83E_10novel_core19tool_stream_results23ordered_tool_result_ids0B5_
FN:44,_RNCNvNtCsgAl8xIys83E_10novel_core19tool_stream_results23ordered_tool_result_idss_0B5_
FNDA:0,_RNCNvNtCskOvt1kg1spG_10novel_core19tool_stream_results23ordered_tool_result_ids0B5_
FNDA:0,_RNCNvNtCskOvt1kg1spG_10novel_core19tool_stream_results23ordered_tool_result_idss_0B5_
FNDA:0,_RNvNtCskOvt1kg1spG_10novel_core19tool_stream_results23ordered_tool_result_ids
FNDA:0,_RNvNtCskOvt1kg1spG_10novel_core19tool_stream_results26merge_stream_results_by_id
FNDA:83,_RNvNtCsgAl8xIys83E_10novel_core19tool_stream_results23ordered_tool_result_ids
FNDA:84,_RNvNtCsgAl8xIys83E_10novel_core19tool_stream_results26merge_stream_results_by_id
FNDA:2,_RNvNtNtCsgAl8xIys83E_10novel_core19tool_stream_results5tests11needs_input
FNDA:4,_RNvNtNtCsgAl8xIys83E_10novel_core19tool_stream_results5tests6ok_out
FNDA:1,_RNvNtNtCsgAl8xIys83E_10novel_core19tool_stream_results5testss_38merge_prefers_needs_user_input_over_ok
FNDA:1,_RNvNtNtCsgAl8xIys83E_10novel_core19tool_stream_results5testss_39ordered_results_follows_tool_call_order
FNDA:1,_RNvNtNtCsgAl8xIys83E_10novel_core19tool_stream_results5testss_42merge_keeps_needs_user_input_when_later_ok
FNDA:84,_RNCNvNtCsgAl8xIys83E_10novel_core19tool_stream_results23ordered_tool_result_ids0B5_
FNDA:85,_RNCNvNtCsgAl8xIys83E_10novel_core19tool_stream_results23ordered_tool_result_idss_0B5_
FNF:9
FNH:9
DA:7,84
DA:8,84
DA:9,84
DA:10,84
DA:11,86
DA:12,86
DA:13,84
DA:14,84
DA:15,84
DA:16,2
DA:17,2
DA:18,2
DA:19,1
DA:20,2
DA:21,1
DA:22,1
DA:23,1
DA:24,1
DA:25,0
DA:26,0
DA:30,84
DA:31,84
DA:34,83
DA:35,83
DA:36,83
DA:37,83
DA:38,83
DA:39,83
DA:40,84
DA:41,83
DA:42,83
DA:43,84
DA:44,85
DA:45,0
DA:46,84
DA:48,83
DA:49,83
DA:56,4
DA:57,4
DA:58,4
DA:59,4
DA:60,4
DA:61,4
DA:63,2
DA:64,2
DA:65,2
DA:66,2
DA:67,2
DA:70,1
DA:71,1
DA:72,1
DA:73,1
DA:74,1
DA:77,1
DA:80,1
DA:81,1
DA:82,1
DA:83,1
DA:84,1
DA:87,1
DA:90,1
DA:91,1
DA:92,1
DA:93,1
DA:94,1
DA:95,1
DA:96,1
BRF:0
BRH:0
LF:69
LH:66
end_of_record
SF:G:\orgin_claude_code\claude-code-main\deepseek_novel_agent\crates\novel-core\src\turn.rs
FN:45,_RNvMNtCskOvt1kg1spG_10novel_core4turnNtB2_11TurnContext11inner_spent
FN:53,_RNvMNtCskOvt1kg1spG_10novel_core4turnNtB2_11TurnContext15increment_inner
FN:49,_RNvMNtCskOvt1kg1spG_10novel_core4turnNtB2_11TurnContext18needs_continuation
FN:61,_RNvMNtCskOvt1kg1spG_10novel_core4turnNtB2_11TurnContext21has_pending_approvals
FN:35,_RNvMNtCskOvt1kg1spG_10novel_core4turnNtB2_11TurnContext3new
FN:45,_RNvMNtCsgAl8xIys83E_10novel_core4turnNtB2_11TurnContext11inner_spent
FN:53,_RNvMNtCsgAl8xIys83E_10novel_core4turnNtB2_11TurnContext15increment_inner
FN:49,_RNvMNtCsgAl8xIys83E_10novel_core4turnNtB2_11TurnContext18needs_continuation
FN:61,_RNvMNtCsgAl8xIys83E_10novel_core4turnNtB2_11TurnContext21has_pending_approvals
FN:35,_RNvMNtCsgAl8xIys83E_10novel_core4turnNtB2_11TurnContext3new
FN:71,_RNvNtNtCsgAl8xIys83E_10novel_core4turn5testss_23max_react_loops_reached
FN:79,_RNvNtNtCsgAl8xIys83E_10novel_core4turn5testss_39resume_mid_turn_does_not_exhaust_budget
FNDA:8,_RNvMNtCskOvt1kg1spG_10novel_core4turnNtB2_11TurnContext11inner_spent
FNDA:0,_RNvMNtCskOvt1kg1spG_10novel_core4turnNtB2_11TurnContext15increment_inner
FNDA:8,_RNvMNtCskOvt1kg1spG_10novel_core4turnNtB2_11TurnContext18needs_continuation
FNDA:8,_RNvMNtCskOvt1kg1spG_10novel_core4turnNtB2_11TurnContext21has_pending_approvals
FNDA:8,_RNvMNtCskOvt1kg1spG_10novel_core4turnNtB2_11TurnContext3new
FNDA:176,_RNvMNtCsgAl8xIys83E_10novel_core4turnNtB2_11TurnContext11inner_spent
FNDA:83,_RNvMNtCsgAl8xIys83E_10novel_core4turnNtB2_11TurnContext15increment_inner
FNDA:93,_RNvMNtCsgAl8xIys83E_10novel_core4turnNtB2_11TurnContext18needs_continuation
FNDA:87,_RNvMNtCsgAl8xIys83E_10novel_core4turnNtB2_11TurnContext21has_pending_approvals
FNDA:15,_RNvMNtCsgAl8xIys83E_10novel_core4turnNtB2_11TurnContext3new
FNDA:1,_RNvNtNtCsgAl8xIys83E_10novel_core4turn5testss_23max_react_loops_reached
FNDA:1,_RNvNtNtCsgAl8xIys83E_10novel_core4turn5testss_39resume_mid_turn_does_not_exhaust_budget
FNF:7
FNH:7
DA:35,23
DA:36,23
DA:37,23
DA:38,23
DA:39,23
DA:40,23
DA:41,23
DA:42,23
DA:43,23
DA:45,184
DA:46,184
DA:47,184
DA:49,101
DA:50,101
DA:51,101
DA:53,83
DA:54,83
DA:55,83
DA:56,2
DA:57,81
DA:58,81
DA:59,83
DA:61,95
DA:62,95
DA:63,95
DA:71,1
DA:72,1
DA:73,1
DA:74,1
DA:75,1
DA:76,1
DA:79,1
DA:80,1
DA:81,1
DA:82,1
DA:83,1
DA:84,1
DA:85,1
DA:86,1
BRF:0
BRH:0
LF:39
LH:39
end_of_record
SF:G:\orgin_claude_code\claude-code-main\deepseek_novel_agent\crates\novel-core\src\turn_loop.rs
FN:48,_RNvMNtCskOvt1kg1spG_10novel_core9turn_loopNtNtB4_6engine11AgentEngine19is_sub_agent_report
FN:292,_RNvMNtCskOvt1kg1spG_10novel_core9turn_loopNtNtB4_6engine11AgentEngine19run_inner_turn_loop
FN:198,_RNvMNtCskOvt1kg1spG_10novel_core9turn_loopNtNtB4_6engine11AgentEngine23inject_sub_agent_report
FN:54,_RNvMNtCskOvt1kg1spG_10novel_core9turn_loopNtNtB4_6engine11AgentEngine26handle_message_with_events
FN:234,_RNvMNtCskOvt1kg1spG_10novel_core9turn_loopNtNtB4_6engine11AgentEngine31resume_inner_turn_from_messages
FN:242,_RNvMNtCskOvt1kg1spG_10novel_core9turn_loopNtNtB4_6engine11AgentEngine33complete_inner_turn_without_tools
FN:36,_RNvMNtCskOvt1kg1spG_10novel_core9turn_loopNtNtB4_6engine11AgentEngine8init_llm
FN:441,_RNvMs_NtCskOvt1kg1spG_10novel_core9turn_loopNtNtB6_6engine11AgentEngine12approve_tool
FN:1069,_RNvMs_NtCskOvt1kg1spG_10novel_core9turn_loopNtNtB6_6engine11AgentEngine12record_usage
FN:533,_RNvMs_NtCskOvt1kg1spG_10novel_core9turn_loopNtNtB6_6engine11AgentEngine15answer_question
FN:1113,_RNvMs_NtCskOvt1kg1spG_10novel_core9turn_loopNtNtB6_6engine11AgentEngine15main_tool_names
FN:715,_RNvMs_NtCskOvt1kg1spG_10novel_core9turn_loopNtNtB6_6engine11AgentEngine16compact_and_sync
FN:653,_RNvMs_NtCskOvt1kg1spG_10novel_core9turn_loopNtNtB6_6engine11AgentEngine17compaction_needed
FN:936,_RNvMs_NtCskOvt1kg1spG_10novel_core9turn_loopNtNtB6_6engine11AgentEngine18build_message_rows
FN:580,_RNvMs_NtCskOvt1kg1spG_10novel_core9turn_loopNtNtB6_6engine11AgentEngine18continue_turn_loop
FN:884,_RNvMs_NtCskOvt1kg1spG_10novel_core9turn_loopNtNtB6_6engine11AgentEngine19compact_with_events
FN:909,_RNvMs_NtCskOvt1kg1spG_10novel_core9turn_loopNtNtB6_6engine11AgentEngine19sync_messages_to_db
FN:662,_RNvMs_NtCskOvt1kg1spG_10novel_core9turn_loopNtNtB6_6engine11AgentEngine21generate_summary_text
FN:1018,_RNvMs_NtCskOvt1kg1spG_10novel_core9turn_loopNtNtB6_6engine11AgentEngine21persist_message_alloc
FN:1095,_RNvMs_NtCskOvt1kg1spG_10novel_core9turn_loopNtNtB6_6engine11AgentEngine21session_token_summary
FN:965,_RNvMs_NtCskOvt1kg1spG_10novel_core9turn_loopNtNtB6_6engine11AgentEngine22alloc_turn_message_seq
FN:391,_RNvMs_NtCskOvt1kg1spG_10novel_core9turn_loopNtNtB6_6engine11AgentEngine22execute_stream_results
FN:970,_RNvMs_NtCskOvt1kg1spG_10novel_core9turn_loopNtNtB6_6engine11AgentEngine22persist_message_at_seq
FN:1023,_RNvMs_NtCskOvt1kg1spG_10novel_core9turn_loopNtNtB6_6engine11AgentEngine24persist_message_alloc_ex
FN:1007,_RNvMs_NtCskOvt1kg1spG_10novel_core9turn_loopNtNtB6_6engine11AgentEngine29init_turn_message_seq_from_db
FN:488,_RNvMs_NtCskOvt1kg1spG_10novel_core9turn_loopNtNtB6_6engine11AgentEngine9deny_tool
FN:740,_RNCNCNvMs_NtCskOvt1kg1spG_10novel_core9turn_loopNtNtBa_6engine11AgentEngine16compact_and_sync00Ba_
FN:812,_RNCNCNvMs_NtCskOvt1kg1spG_10novel_core9turn_loopNtNtBa_6engine11AgentEngine16compact_and_sync0s_0Ba_
FN:673,_RNCNCNvMs_NtCskOvt1kg1spG_10novel_core9turn_loopNtNtBa_6engine11AgentEngine21generate_summary_text00Ba_
FN:705,_RNCNCNvMs_NtCskOvt1kg1spG_10novel_core9turn_loopNtNtBa_6engine11AgentEngine21generate_summary_text0s0_0Ba_
FN:704,_RNCNCNvMs_NtCskOvt1kg1spG_10novel_core9turn_loopNtNtBa_6engine11AgentEngine21generate_summary_text0s_0Ba_
FN:218,_RNCNvMNtCskOvt1kg1spG_10novel_core9turn_loopNtNtB6_6engine11AgentEngine23inject_sub_agent_report0B6_
FN:237,_RNCNvMNtCskOvt1kg1spG_10novel_core9turn_loopNtNtB6_6engine11AgentEngine31resume_inner_turn_from_messages0B6_
FN:718,_RNCNvMs_NtCskOvt1kg1spG_10novel_core9turn_loopNtNtB8_6engine11AgentEngine16compact_and_sync0B8_
FN:887,_RNCNvMs_NtCskOvt1kg1spG_10novel_core9turn_loopNtNtB8_6engine11AgentEngine19compact_with_events0B8_
FN:913,_RNCNvMs_NtCskOvt1kg1spG_10novel_core9turn_loopNtNtB8_6engine11AgentEngine19sync_messages_to_db0B8_
FN:668,_RNCNvMs_NtCskOvt1kg1spG_10novel_core9turn_loopNtNtB8_6engine11AgentEngine21generate_summary_text0B8_
FN:1102,_RNCNvMs_NtCskOvt1kg1spG_10novel_core9turn_loopNtNtB8_6engine11AgentEngine21session_token_summary0B8_
FN:1057,_RNCNvMs_NtCskOvt1kg1spG_10novel_core9turn_loopNtNtB8_6engine11AgentEngine24persist_message_alloc_ex0B8_
FN:103,_RNCNCNvMNtCskOvt1kg1spG_10novel_core9turn_loopNtNtB8_6engine11AgentEngine26handle_message_with_events00B8_
FN:152,_RNCNCNvMNtCskOvt1kg1spG_10novel_core9turn_loopNtNtB8_6engine11AgentEngine26handle_message_with_events0s_0B8_
FN:266,_RNCNCNvMNtCskOvt1kg1spG_10novel_core9turn_loopNtNtB8_6engine11AgentEngine33complete_inner_turn_without_tools0s0_0B8_
FN:278,_RNCNCNvMNtCskOvt1kg1spG_10novel_core9turn_loopNtNtB8_6engine11AgentEngine33complete_inner_turn_without_tools0s2_0B8_
FN:282,_RNCNCNvMNtCskOvt1kg1spG_10novel_core9turn_loopNtNtB8_6engine11AgentEngine33complete_inner_turn_without_tools0s3_0B8_
FN:446,_RNCNCNvMs_NtCskOvt1kg1spG_10novel_core9turn_loopNtNtBa_6engine11AgentEngine12approve_tool00Ba_
FN:542,_RNCNCNvMs_NtCskOvt1kg1spG_10novel_core9turn_loopNtNtBa_6engine11AgentEngine15answer_question00Ba_
FN:561,_RNCNCNvMs_NtCskOvt1kg1spG_10novel_core9turn_loopNtNtBa_6engine11AgentEngine15answer_question0s0_0Ba_
FN:555,_RNCNCNvMs_NtCskOvt1kg1spG_10novel_core9turn_loopNtNtBa_6engine11AgentEngine15answer_question0s_0Ba_
FN:607,_RNCNCNvMs_NtCskOvt1kg1spG_10novel_core9turn_loopNtNtBa_6engine11AgentEngine18continue_turn_loop00Ba_
FN:404,_RNCNCNvMs_NtCskOvt1kg1spG_10novel_core9turn_loopNtNtBa_6engine11AgentEngine22execute_stream_results00Ba_
FN:494,_RNCNCNvMs_NtCskOvt1kg1spG_10novel_core9turn_loopNtNtBa_6engine11AgentEngine9deny_tool00Ba_
FN:508,_RNCNCNvMs_NtCskOvt1kg1spG_10novel_core9turn_loopNtNtBa_6engine11AgentEngine9deny_tool0s_0Ba_
FN:296,_RNCNvMNtCskOvt1kg1spG_10novel_core9turn_loopNtNtB6_6engine11AgentEngine19run_inner_turn_loop0B6_
FN:59,_RNCNvMNtCskOvt1kg1spG_10novel_core9turn_loopNtNtB6_6engine11AgentEngine26handle_message_with_events0B6_
FN:246,_RNCNvMNtCskOvt1kg1spG_10novel_core9turn_loopNtNtB6_6engine11AgentEngine33complete_inner_turn_without_tools0B6_
FN:445,_RNCNvMs_NtCskOvt1kg1spG_10novel_core9turn_loopNtNtB8_6engine11AgentEngine12approve_tool0B8_
FN:538,_RNCNvMs_NtCskOvt1kg1spG_10novel_core9turn_loopNtNtB8_6engine11AgentEngine15answer_question0B8_
FN:583,_RNCNvMs_NtCskOvt1kg1spG_10novel_core9turn_loopNtNtB8_6engine11AgentEngine18continue_turn_loop0B8_
FN:402,_RNCNvMs_NtCskOvt1kg1spG_10novel_core9turn_loopNtNtB8_6engine11AgentEngine22execute_stream_results0B8_
FN:493,_RNCNvMs_NtCskOvt1kg1spG_10novel_core9turn_loopNtNtB8_6engine11AgentEngine9deny_tool0B8_
FN:103,_RNCNCNvMNtCskOvt1kg1spG_10novel_core9turn_loopNtNtB8_6engine11AgentEngine26handle_message_with_events00Csja0mJncq2tx_10fork_agent
FN:152,_RNCNCNvMNtCskOvt1kg1spG_10novel_core9turn_loopNtNtB8_6engine11AgentEngine26handle_message_with_events0s_0Csja0mJncq2tx_10fork_agent
FN:266,_RNCNCNvMNtCskOvt1kg1spG_10novel_core9turn_loopNtNtB8_6engine11AgentEngine33complete_inner_turn_without_tools0s0_0Csja0mJncq2tx_10fork_agent
FN:278,_RNCNCNvMNtCskOvt1kg1spG_10novel_core9turn_loopNtNtB8_6engine11AgentEngine33complete_inner_turn_without_tools0s2_0Csja0mJncq2tx_10fork_agent
FN:282,_RNCNCNvMNtCskOvt1kg1spG_10novel_core9turn_loopNtNtB8_6engine11AgentEngine33complete_inner_turn_without_tools0s3_0Csja0mJncq2tx_10fork_agent
FN:404,_RNCNCNvMs_NtCskOvt1kg1spG_10novel_core9turn_loopNtNtBa_6engine11AgentEngine22execute_stream_results00Csja0mJncq2tx_10fork_agent
FN:296,_RNCNvMNtCskOvt1kg1spG_10novel_core9turn_loopNtNtB6_6engine11AgentEngine19run_inner_turn_loop0Csja0mJncq2tx_10fork_agent
FN:59,_RNCNvMNtCskOvt1kg1spG_10novel_core9turn_loopNtNtB6_6engine11AgentEngine26handle_message_with_events0Csja0mJncq2tx_10fork_agent
FN:246,_RNCNvMNtCskOvt1kg1spG_10novel_core9turn_loopNtNtB6_6engine11AgentEngine33complete_inner_turn_without_tools0Csja0mJncq2tx_10fork_agent
FN:402,_RNCNvMs_NtCskOvt1kg1spG_10novel_core9turn_loopNtNtB8_6engine11AgentEngine22execute_stream_results0Csja0mJncq2tx_10fork_agent
FN:103,_RNCNCNvMNtCskOvt1kg1spG_10novel_core9turn_loopNtNtB8_6engine11AgentEngine26handle_message_with_events00Cs90uylq1XzCH_22live_invoke_skill_turn
FN:152,_RNCNCNvMNtCskOvt1kg1spG_10novel_core9turn_loopNtNtB8_6engine11AgentEngine26handle_message_with_events0s_0Cs90uylq1XzCH_22live_invoke_skill_turn
FN:266,_RNCNCNvMNtCskOvt1kg1spG_10novel_core9turn_loopNtNtB8_6engine11AgentEngine33complete_inner_turn_without_tools0s0_0Cs90uylq1XzCH_22live_invoke_skill_turn
FN:278,_RNCNCNvMNtCskOvt1kg1spG_10novel_core9turn_loopNtNtB8_6engine11AgentEngine33complete_inner_turn_without_tools0s2_0Cs90uylq1XzCH_22live_invoke_skill_turn
FN:282,_RNCNCNvMNtCskOvt1kg1spG_10novel_core9turn_loopNtNtB8_6engine11AgentEngine33complete_inner_turn_without_tools0s3_0Cs90uylq1XzCH_22live_invoke_skill_turn
FN:404,_RNCNCNvMs_NtCskOvt1kg1spG_10novel_core9turn_loopNtNtBa_6engine11AgentEngine22execute_stream_results00Cs90uylq1XzCH_22live_invoke_skill_turn
FN:296,_RNCNvMNtCskOvt1kg1spG_10novel_core9turn_loopNtNtB6_6engine11AgentEngine19run_inner_turn_loop0Cs90uylq1XzCH_22live_invoke_skill_turn
FN:59,_RNCNvMNtCskOvt1kg1spG_10novel_core9turn_loopNtNtB6_6engine11AgentEngine26handle_message_with_events0Cs90uylq1XzCH_22live_invoke_skill_turn
FN:246,_RNCNvMNtCskOvt1kg1spG_10novel_core9turn_loopNtNtB6_6engine11AgentEngine33complete_inner_turn_without_tools0Cs90uylq1XzCH_22live_invoke_skill_turn
FN:402,_RNCNvMs_NtCskOvt1kg1spG_10novel_core9turn_loopNtNtB8_6engine11AgentEngine22execute_stream_results0Cs90uylq1XzCH_22live_invoke_skill_turn
FN:103,_RNCNCNvMNtCskOvt1kg1spG_10novel_core9turn_loopNtNtB8_6engine11AgentEngine26handle_message_with_events00Cs5ts0mUYpT8u_12novel_server
FN:152,_RNCNCNvMNtCskOvt1kg1spG_10novel_core9turn_loopNtNtB8_6engine11AgentEngine26handle_message_with_events0s_0Cs5ts0mUYpT8u_12novel_server
FN:266,_RNCNCNvMNtCskOvt1kg1spG_10novel_core9turn_loopNtNtB8_6engine11AgentEngine33complete_inner_turn_without_tools0s0_0Cs5ts0mUYpT8u_12novel_server
FN:278,_RNCNCNvMNtCskOvt1kg1spG_10novel_core9turn_loopNtNtB8_6engine11AgentEngine33complete_inner_turn_without_tools0s2_0Cs5ts0mUYpT8u_12novel_server
FN:282,_RNCNCNvMNtCskOvt1kg1spG_10novel_core9turn_loopNtNtB8_6engine11AgentEngine33complete_inner_turn_without_tools0s3_0Cs5ts0mUYpT8u_12novel_server
FN:446,_RNCNCNvMs_NtCskOvt1kg1spG_10novel_core9turn_loopNtNtBa_6engine11AgentEngine12approve_tool00Cs5ts0mUYpT8u_12novel_server
FN:542,_RNCNCNvMs_NtCskOvt1kg1spG_10novel_core9turn_loopNtNtBa_6engine11AgentEngine15answer_question00Cs5ts0mUYpT8u_12novel_server
FN:561,_RNCNCNvMs_NtCskOvt1kg1spG_10novel_core9turn_loopNtNtBa_6engine11AgentEngine15answer_question0s0_0Cs5ts0mUYpT8u_12novel_server
FN:555,_RNCNCNvMs_NtCskOvt1kg1spG_10novel_core9turn_loopNtNtBa_6engine11AgentEngine15answer_question0s_0Cs5ts0mUYpT8u_12novel_server
FN:607,_RNCNCNvMs_NtCskOvt1kg1spG_10novel_core9turn_loopNtNtBa_6engine11AgentEngine18continue_turn_loop00Cs5ts0mUYpT8u_12novel_server
FN:404,_RNCNCNvMs_NtCskOvt1kg1spG_10novel_core9turn_loopNtNtBa_6engine11AgentEngine22execute_stream_results00Cs5ts0mUYpT8u_12novel_server
FN:494,_RNCNCNvMs_NtCskOvt1kg1spG_10novel_core9turn_loopNtNtBa_6engine11AgentEngine9deny_tool00Cs5ts0mUYpT8u_12novel_server
FN:508,_RNCNCNvMs_NtCskOvt1kg1spG_10novel_core9turn_loopNtNtBa_6engine11AgentEngine9deny_tool0s_0Cs5ts0mUYpT8u_12novel_server
FN:296,_RNCNvMNtCskOvt1kg1spG_10novel_core9turn_loopNtNtB6_6engine11AgentEngine19run_inner_turn_loop0Cs5ts0mUYpT8u_12novel_server
FN:59,_RNCNvMNtCskOvt1kg1spG_10novel_core9turn_loopNtNtB6_6engine11AgentEngine26handle_message_with_events0Cs5ts0mUYpT8u_12novel_server
FN:246,_RNCNvMNtCskOvt1kg1spG_10novel_core9turn_loopNtNtB6_6engine11AgentEngine33complete_inner_turn_without_tools0Cs5ts0mUYpT8u_12novel_server
FN:445,_RNCNvMs_NtCskOvt1kg1spG_10novel_core9turn_loopNtNtB8_6engine11AgentEngine12approve_tool0Cs5ts0mUYpT8u_12novel_server
FN:538,_RNCNvMs_NtCskOvt1kg1spG_10novel_core9turn_loopNtNtB8_6engine11AgentEngine15answer_question0Cs5ts0mUYpT8u_12novel_server
FN:583,_RNCNvMs_NtCskOvt1kg1spG_10novel_core9turn_loopNtNtB8_6engine11AgentEngine18continue_turn_loop0Cs5ts0mUYpT8u_12novel_server
FN:402,_RNCNvMs_NtCskOvt1kg1spG_10novel_core9turn_loopNtNtB8_6engine11AgentEngine22execute_stream_results0Cs5ts0mUYpT8u_12novel_server
FN:493,_RNCNvMs_NtCskOvt1kg1spG_10novel_core9turn_loopNtNtB8_6engine11AgentEngine9deny_tool0Cs5ts0mUYpT8u_12novel_server
FN:103,_RNCNCNvMNtCsgAl8xIys83E_10novel_core9turn_loopNtNtB8_6engine11AgentEngine26handle_message_with_events00B8_
FN:152,_RNCNCNvMNtCsgAl8xIys83E_10novel_core9turn_loopNtNtB8_6engine11AgentEngine26handle_message_with_events0s_0B8_
FN:266,_RNCNCNvMNtCsgAl8xIys83E_10novel_core9turn_loopNtNtB8_6engine11AgentEngine33complete_inner_turn_without_tools0s0_0B8_
FN:278,_RNCNCNvMNtCsgAl8xIys83E_10novel_core9turn_loopNtNtB8_6engine11AgentEngine33complete_inner_turn_without_tools0s2_0B8_
FN:282,_RNCNCNvMNtCsgAl8xIys83E_10novel_core9turn_loopNtNtB8_6engine11AgentEngine33complete_inner_turn_without_tools0s3_0B8_
FN:446,_RNCNCNvMs_NtCsgAl8xIys83E_10novel_core9turn_loopNtNtBa_6engine11AgentEngine12approve_tool00Ba_
FN:542,_RNCNCNvMs_NtCsgAl8xIys83E_10novel_core9turn_loopNtNtBa_6engine11AgentEngine15answer_question00Ba_
FN:561,_RNCNCNvMs_NtCsgAl8xIys83E_10novel_core9turn_loopNtNtBa_6engine11AgentEngine15answer_question0s0_0Ba_
FN:555,_RNCNCNvMs_NtCsgAl8xIys83E_10novel_core9turn_loopNtNtBa_6engine11AgentEngine15answer_question0s_0Ba_
FN:740,_RNCNCNvMs_NtCsgAl8xIys83E_10novel_core9turn_loopNtNtBa_6engine11AgentEngine16compact_and_sync00Ba_
FN:812,_RNCNCNvMs_NtCsgAl8xIys83E_10novel_core9turn_loopNtNtBa_6engine11AgentEngine16compact_and_sync0s_0Ba_
FN:607,_RNCNCNvMs_NtCsgAl8xIys83E_10novel_core9turn_loopNtNtBa_6engine11AgentEngine18continue_turn_loop00Ba_
FN:673,_RNCNCNvMs_NtCsgAl8xIys83E_10novel_core9turn_loopNtNtBa_6engine11AgentEngine21generate_summary_text00Ba_
FN:705,_RNCNCNvMs_NtCsgAl8xIys83E_10novel_core9turn_loopNtNtBa_6engine11AgentEngine21generate_summary_text0s0_0Ba_
FN:704,_RNCNCNvMs_NtCsgAl8xIys83E_10novel_core9turn_loopNtNtBa_6engine11AgentEngine21generate_summary_text0s_0Ba_
FN:404,_RNCNCNvMs_NtCsgAl8xIys83E_10novel_core9turn_loopNtNtBa_6engine11AgentEngine22execute_stream_results00Ba_
FN:494,_RNCNCNvMs_NtCsgAl8xIys83E_10novel_core9turn_loopNtNtBa_6engine11AgentEngine9deny_tool00Ba_
FN:508,_RNCNCNvMs_NtCsgAl8xIys83E_10novel_core9turn_loopNtNtBa_6engine11AgentEngine9deny_tool0s_0Ba_
FN:296,_RNCNvMNtCsgAl8xIys83E_10novel_core9turn_loopNtNtB6_6engine11AgentEngine19run_inner_turn_loop0B6_
FN:218,_RNCNvMNtCsgAl8xIys83E_10novel_core9turn_loopNtNtB6_6engine11AgentEngine23inject_sub_agent_report0B6_
FN:59,_RNCNvMNtCsgAl8xIys83E_10novel_core9turn_loopNtNtB6_6engine11AgentEngine26handle_message_with_events0B6_
FN:237,_RNCNvMNtCsgAl8xIys83E_10novel_core9turn_loopNtNtB6_6engine11AgentEngine31resume_inner_turn_from_messages0B6_
FN:246,_RNCNvMNtCsgAl8xIys83E_10novel_core9turn_loopNtNtB6_6engine11AgentEngine33complete_inner_turn_without_tools0B6_
FN:445,_RNCNvMs_NtCsgAl8xIys83E_10novel_core9turn_loopNtNtB8_6engine11AgentEngine12approve_tool0B8_
FN:538,_RNCNvMs_NtCsgAl8xIys83E_10novel_core9turn_loopNtNtB8_6engine11AgentEngine15answer_question0B8_
FN:718,_RNCNvMs_NtCsgAl8xIys83E_10novel_core9turn_loopNtNtB8_6engine11AgentEngine16compact_and_sync0B8_
FN:583,_RNCNvMs_NtCsgAl8xIys83E_10novel_core9turn_loopNtNtB8_6engine11AgentEngine18continue_turn_loop0B8_
FN:887,_RNCNvMs_NtCsgAl8xIys83E_10novel_core9turn_loopNtNtB8_6engine11AgentEngine19compact_with_events0B8_
FN:913,_RNCNvMs_NtCsgAl8xIys83E_10novel_core9turn_loopNtNtB8_6engine11AgentEngine19sync_messages_to_db0B8_
FN:668,_RNCNvMs_NtCsgAl8xIys83E_10novel_core9turn_loopNtNtB8_6engine11AgentEngine21generate_summary_text0B8_
FN:1102,_RNCNvMs_NtCsgAl8xIys83E_10novel_core9turn_loopNtNtB8_6engine11AgentEngine21session_token_summary0B8_
FN:402,_RNCNvMs_NtCsgAl8xIys83E_10novel_core9turn_loopNtNtB8_6engine11AgentEngine22execute_stream_results0B8_
FN:1057,_RNCNvMs_NtCsgAl8xIys83E_10novel_core9turn_loopNtNtB8_6engine11AgentEngine24persist_message_alloc_ex0B8_
FN:493,_RNCNvMs_NtCsgAl8xIys83E_10novel_core9turn_loopNtNtB8_6engine11AgentEngine9deny_tool0B8_
FN:1127,_RNvNtNtCsgAl8xIys83E_10novel_core9turn_loop5tests11test_config
FN:1151,_RNvNtNtCsgAl8xIys83E_10novel_core9turn_loop5testss_24messages_persisted_to_db
FN:1272,_RNvNtNtCsgAl8xIys83E_10novel_core9turn_loop5testss_29handle_ready_allows_read_tool
FN:1167,_RNvNtNtCsgAl8xIys83E_10novel_core9turn_loop5testss_34default_hooks_do_not_enqueue_tasks
FN:1138,_RNvNtNtCsgAl8xIys83E_10novel_core9turn_loop5testss_37offline_turn_produces_assistant_reply
FN:1175,_RNvNtNtCsgAl8xIys83E_10novel_core9turn_loop5testss_39approve_unknown_tool_returns_validation
FN:1726,_RNvNtNtCsgAl8xIys83E_10novel_core9turn_loop5testss_39compact_and_sync_clears_read_file_cache
FN:1184,_RNvNtNtCsgAl8xIys83E_10novel_core9turn_loop5testss_42approve_pending_read_persists_tool_message
FN:1517,_RNvNtNtCsgAl8xIys83E_10novel_core9turn_loop5testss_43parent_llm_context_excludes_fork_transcript
FN:1300,_RNvNtNtCsgAl8xIys83E_10novel_core9turn_loop5testss_44answer_question_clears_pending_and_continues
FN:1208,_RNvNtNtCsgAl8xIys83E_10novel_core9turn_loop5testss_44execute_stream_results_persists_tool_message
FN:1676,_RNvNtNtCsgAl8xIys83E_10novel_core9turn_loop5testss_44resume_inner_turn_counts_existing_assistants
FN:1242,_RNvNtNtCsgAl8xIys83E_10novel_core9turn_loop5testss_49execute_stream_results_pauses_on_needs_user_input
FN:1317,_RNvNtNtCsgAl8xIys83E_10novel_core9turn_loop5testss_50deny_tool_does_not_continue_while_question_pending
FN:1609,_RNvNtNtCsgAl8xIys83E_10novel_core9turn_loop5testss_53drain_subagent_jobs_injects_multiple_reports_in_order
FN:1697,_RNvNtNtCsgAl8xIys83E_10novel_core9turn_loop5testss_53should_continue_inner_after_reasoning_only_completion
FN:1395,_RNvNtNtCsgAl8xIys83E_10novel_core9turn_loop5testss_54build_message_rows_keeps_sub_agent_report_in_same_turn
FN:1446,_RNvNtNtCsgAl8xIys83E_10novel_core9turn_loop5testss_56drain_subagent_jobs_injects_report_with_unique_sequences
FN:1344,_RNvNtNtCsgAl8xIys83E_10novel_core9turn_loop5testss_61inject_sub_agent_report_allocates_sequence_after_user_message
FN:1767,_RNvNtNtCsgAl8xIys83E_10novel_core9turn_loop5testss_62compact_and_sync_skipped_when_under_threshold_keeps_read_cache
FN:1147,_RNCNCNvNtNtCsgAl8xIys83E_10novel_core9turn_loop5testss_37offline_turn_produces_assistant_reply00B9_
FN:1200,_RNCNCNvNtNtCsgAl8xIys83E_10novel_core9turn_loop5testss_42approve_pending_read_persists_tool_message00B9_
FN:1564,_RNCNCNvNtNtCsgAl8xIys83E_10novel_core9turn_loop5testss_43parent_llm_context_excludes_fork_transcript00B9_
FN:1570,_RNCNCNvNtNtCsgAl8xIys83E_10novel_core9turn_loop5testss_43parent_llm_context_excludes_fork_transcript0s0_0B9_
FN:1586,_RNCNCNvNtNtCsgAl8xIys83E_10novel_core9turn_loop5testss_43parent_llm_context_excludes_fork_transcript0s1_0B9_
FN:1597,_RNCNCNvNtNtCsgAl8xIys83E_10novel_core9turn_loop5testss_43parent_llm_context_excludes_fork_transcript0s2_0B9_
FN:1565,_RNCNCNvNtNtCsgAl8xIys83E_10novel_core9turn_loop5testss_43parent_llm_context_excludes_fork_transcript0s_0B9_
FN:1238,_RNCNCNvNtNtCsgAl8xIys83E_10novel_core9turn_loop5testss_44execute_stream_results_persists_tool_message00B9_
FN:1660,_RNCNCNvNtNtCsgAl8xIys83E_10novel_core9turn_loop5testss_53drain_subagent_jobs_injects_multiple_reports_in_order00B9_
FN:1491,_RNCNCNvNtNtCsgAl8xIys83E_10novel_core9turn_loop5testss_56drain_subagent_jobs_injects_report_with_unique_sequences00B9_
FN:1495,_RNCNCNvNtNtCsgAl8xIys83E_10novel_core9turn_loop5testss_56drain_subagent_jobs_injects_report_with_unique_sequences0s_0B9_
FN:1151,_RNCNvNtNtCsgAl8xIys83E_10novel_core9turn_loop5testss_24messages_persisted_to_db0B7_
FN:1272,_RNCNvNtNtCsgAl8xIys83E_10novel_core9turn_loop5testss_29handle_ready_allows_read_tool0B7_
FN:1167,_RNCNvNtNtCsgAl8xIys83E_10novel_core9turn_loop5testss_34default_hooks_do_not_enqueue_tasks0B7_
FN:1138,_RNCNvNtNtCsgAl8xIys83E_10novel_core9turn_loop5testss_37offline_turn_produces_assistant_reply0B7_
FN:1175,_RNCNvNtNtCsgAl8xIys83E_10novel_core9turn_loop5testss_39approve_unknown_tool_returns_validation0B7_
FN:1726,_RNCNvNtNtCsgAl8xIys83E_10novel_core9turn_loop5testss_39compact_and_sync_clears_read_file_cache0B7_
FN:1184,_RNCNvNtNtCsgAl8xIys83E_10novel_core9turn_loop5testss_42approve_pending_read_persists_tool_message0B7_
FN:1517,_RNCNvNtNtCsgAl8xIys83E_10novel_core9turn_loop5testss_43parent_llm_context_excludes_fork_transcript0B7_
FN:1300,_RNCNvNtNtCsgAl8xIys83E_10novel_core9turn_loop5testss_44answer_question_clears_pending_and_continues0B7_
FN:1208,_RNCNvNtNtCsgAl8xIys83E_10novel_core9turn_loop5testss_44execute_stream_results_persists_tool_message0B7_
FN:1242,_RNCNvNtNtCsgAl8xIys83E_10novel_core9turn_loop5testss_49execute_stream_results_pauses_on_needs_user_input0B7_
FN:1317,_RNCNvNtNtCsgAl8xIys83E_10novel_core9turn_loop5testss_50deny_tool_does_not_continue_while_question_pending0B7_
FN:1609,_RNCNvNtNtCsgAl8xIys83E_10novel_core9turn_loop5testss_53drain_subagent_jobs_injects_multiple_reports_in_order0B7_
FN:1446,_RNCNvNtNtCsgAl8xIys83E_10novel_core9turn_loop5testss_56drain_subagent_jobs_injects_report_with_unique_sequences0B7_
FN:1383,_RNCNvNtNtCsgAl8xIys83E_10novel_core9turn_loop5testss_61inject_sub_agent_report_allocates_sequence_after_user_message0B7_
FN:1767,_RNCNvNtNtCsgAl8xIys83E_10novel_core9turn_loop5testss_62compact_and_sync_skipped_when_under_threshold_keeps_read_cache0B7_
FN:48,_RNvMNtCsgAl8xIys83E_10novel_core9turn_loopNtNtB4_6engine11AgentEngine19is_sub_agent_report
FN:292,_RNvMNtCsgAl8xIys83E_10novel_core9turn_loopNtNtB4_6engine11AgentEngine19run_inner_turn_loop
FN:198,_RNvMNtCsgAl8xIys83E_10novel_core9turn_loopNtNtB4_6engine11AgentEngine23inject_sub_agent_report
FN:54,_RNvMNtCsgAl8xIys83E_10novel_core9turn_loopNtNtB4_6engine11AgentEngine26handle_message_with_events
FN:234,_RNvMNtCsgAl8xIys83E_10novel_core9turn_loopNtNtB4_6engine11AgentEngine31resume_inner_turn_from_messages
FN:242,_RNvMNtCsgAl8xIys83E_10novel_core9turn_loopNtNtB4_6engine11AgentEngine33complete_inner_turn_without_tools
FN:36,_RNvMNtCsgAl8xIys83E_10novel_core9turn_loopNtNtB4_6engine11AgentEngine8init_llm
FN:441,_RNvMs_NtCsgAl8xIys83E_10novel_core9turn_loopNtNtB6_6engine11AgentEngine12approve_tool
FN:1069,_RNvMs_NtCsgAl8xIys83E_10novel_core9turn_loopNtNtB6_6engine11AgentEngine12record_usage
FN:533,_RNvMs_NtCsgAl8xIys83E_10novel_core9turn_loopNtNtB6_6engine11AgentEngine15answer_question
FN:1113,_RNvMs_NtCsgAl8xIys83E_10novel_core9turn_loopNtNtB6_6engine11AgentEngine15main_tool_names
FN:715,_RNvMs_NtCsgAl8xIys83E_10novel_core9turn_loopNtNtB6_6engine11AgentEngine16compact_and_sync
FN:653,_RNvMs_NtCsgAl8xIys83E_10novel_core9turn_loopNtNtB6_6engine11AgentEngine17compaction_needed
FN:936,_RNvMs_NtCsgAl8xIys83E_10novel_core9turn_loopNtNtB6_6engine11AgentEngine18build_message_rows
FN:580,_RNvMs_NtCsgAl8xIys83E_10novel_core9turn_loopNtNtB6_6engine11AgentEngine18continue_turn_loop
FN:884,_RNvMs_NtCsgAl8xIys83E_10novel_core9turn_loopNtNtB6_6engine11AgentEngine19compact_with_events
FN:909,_RNvMs_NtCsgAl8xIys83E_10novel_core9turn_loopNtNtB6_6engine11AgentEngine19sync_messages_to_db
FN:662,_RNvMs_NtCsgAl8xIys83E_10novel_core9turn_loopNtNtB6_6engine11AgentEngine21generate_summary_text
FN:1018,_RNvMs_NtCsgAl8xIys83E_10novel_core9turn_loopNtNtB6_6engine11AgentEngine21persist_message_alloc
FN:1095,_RNvMs_NtCsgAl8xIys83E_10novel_core9turn_loopNtNtB6_6engine11AgentEngine21session_token_summary
FN:965,_RNvMs_NtCsgAl8xIys83E_10novel_core9turn_loopNtNtB6_6engine11AgentEngine22alloc_turn_message_seq
FN:391,_RNvMs_NtCsgAl8xIys83E_10novel_core9turn_loopNtNtB6_6engine11AgentEngine22execute_stream_results
FN:970,_RNvMs_NtCsgAl8xIys83E_10novel_core9turn_loopNtNtB6_6engine11AgentEngine22persist_message_at_seq
FN:1023,_RNvMs_NtCsgAl8xIys83E_10novel_core9turn_loopNtNtB6_6engine11AgentEngine24persist_message_alloc_ex
FN:1007,_RNvMs_NtCsgAl8xIys83E_10novel_core9turn_loopNtNtB6_6engine11AgentEngine29init_turn_message_seq_from_db
FN:488,_RNvMs_NtCsgAl8xIys83E_10novel_core9turn_loopNtNtB6_6engine11AgentEngine9deny_tool
FN:103,_RNCNCNvMNtCskOvt1kg1spG_10novel_core9turn_loopNtNtB8_6engine11AgentEngine26handle_message_with_events00Cs4uMLwczbohT_12novel_server
FN:152,_RNCNCNvMNtCskOvt1kg1spG_10novel_core9turn_loopNtNtB8_6engine11AgentEngine26handle_message_with_events0s_0Cs4uMLwczbohT_12novel_server
FN:266,_RNCNCNvMNtCskOvt1kg1spG_10novel_core9turn_loopNtNtB8_6engine11AgentEngine33complete_inner_turn_without_tools0s0_0Cs4uMLwczbohT_12novel_server
FN:278,_RNCNCNvMNtCskOvt1kg1spG_10novel_core9turn_loopNtNtB8_6engine11AgentEngine33complete_inner_turn_without_tools0s2_0Cs4uMLwczbohT_12novel_server
FN:282,_RNCNCNvMNtCskOvt1kg1spG_10novel_core9turn_loopNtNtB8_6engine11AgentEngine33complete_inner_turn_without_tools0s3_0Cs4uMLwczbohT_12novel_server
FN:404,_RNCNCNvMs_NtCskOvt1kg1spG_10novel_core9turn_loopNtNtBa_6engine11AgentEngine22execute_stream_results00Cs4uMLwczbohT_12novel_server
FN:296,_RNCNvMNtCskOvt1kg1spG_10novel_core9turn_loopNtNtB6_6engine11AgentEngine19run_inner_turn_loop0Cs4uMLwczbohT_12novel_server
FN:59,_RNCNvMNtCskOvt1kg1spG_10novel_core9turn_loopNtNtB6_6engine11AgentEngine26handle_message_with_events0Cs4uMLwczbohT_12novel_server
FN:246,_RNCNvMNtCskOvt1kg1spG_10novel_core9turn_loopNtNtB6_6engine11AgentEngine33complete_inner_turn_without_tools0Cs4uMLwczbohT_12novel_server
FN:402,_RNCNvMs_NtCskOvt1kg1spG_10novel_core9turn_loopNtNtB8_6engine11AgentEngine22execute_stream_results0Cs4uMLwczbohT_12novel_server
FNDA:0,_RNvMNtCskOvt1kg1spG_10novel_core9turn_loopNtNtB4_6engine11AgentEngine19is_sub_agent_report
FNDA:8,_RNvMNtCskOvt1kg1spG_10novel_core9turn_loopNtNtB4_6engine11AgentEngine19run_inner_turn_loop
FNDA:0,_RNvMNtCskOvt1kg1spG_10novel_core9turn_loopNtNtB4_6engine11AgentEngine23inject_sub_agent_report
FNDA:8,_RNvMNtCskOvt1kg1spG_10novel_core9turn_loopNtNtB4_6engine11AgentEngine26handle_message_with_events
FNDA:0,_RNvMNtCskOvt1kg1spG_10novel_core9turn_loopNtNtB4_6engine11AgentEngine31resume_inner_turn_from_messages
FNDA:8,_RNvMNtCskOvt1kg1spG_10novel_core9turn_loopNtNtB4_6engine11AgentEngine33complete_inner_turn_without_tools
FNDA:8,_RNvMNtCskOvt1kg1spG_10novel_core9turn_loopNtNtB4_6engine11AgentEngine8init_llm
FNDA:0,_RNvMs_NtCskOvt1kg1spG_10novel_core9turn_loopNtNtB6_6engine11AgentEngine12approve_tool
FNDA:0,_RNvMs_NtCskOvt1kg1spG_10novel_core9turn_loopNtNtB6_6engine11AgentEngine12record_usage
FNDA:0,_RNvMs_NtCskOvt1kg1spG_10novel_core9turn_loopNtNtB6_6engine11AgentEngine15answer_question
FNDA:8,_RNvMs_NtCskOvt1kg1spG_10novel_core9turn_loopNtNtB6_6engine11AgentEngine15main_tool_names
FNDA:0,_RNvMs_NtCskOvt1kg1spG_10novel_core9turn_loopNtNtB6_6engine11AgentEngine16compact_and_sync
FNDA:8,_RNvMs_NtCskOvt1kg1spG_10novel_core9turn_loopNtNtB6_6engine11AgentEngine17compaction_needed
FNDA:0,_RNvMs_NtCskOvt1kg1spG_10novel_core9turn_loopNtNtB6_6engine11AgentEngine18build_message_rows
FNDA:0,_RNvMs_NtCskOvt1kg1spG_10novel_core9turn_loopNtNtB6_6engine11AgentEngine18continue_turn_loop
FNDA:0,_RNvMs_NtCskOvt1kg1spG_10novel_core9turn_loopNtNtB6_6engine11AgentEngine19compact_with_events
FNDA:0,_RNvMs_NtCskOvt1kg1spG_10novel_core9turn_loopNtNtB6_6engine11AgentEngine19sync_messages_to_db
FNDA:0,_RNvMs_NtCskOvt1kg1spG_10novel_core9turn_loopNtNtB6_6engine11AgentEngine21generate_summary_text
FNDA:8,_RNvMs_NtCskOvt1kg1spG_10novel_core9turn_loopNtNtB6_6engine11AgentEngine21persist_message_alloc
FNDA:8,_RNvMs_NtCskOvt1kg1spG_10novel_core9turn_loopNtNtB6_6engine11AgentEngine21session_token_summary
FNDA:8,_RNvMs_NtCskOvt1kg1spG_10novel_core9turn_loopNtNtB6_6engine11AgentEngine22alloc_turn_message_seq
FNDA:0,_RNvMs_NtCskOvt1kg1spG_10novel_core9turn_loopNtNtB6_6engine11AgentEngine22execute_stream_results
FNDA:8,_RNvMs_NtCskOvt1kg1spG_10novel_core9turn_loopNtNtB6_6engine11AgentEngine22persist_message_at_seq
FNDA:8,_RNvMs_NtCskOvt1kg1spG_10novel_core9turn_loopNtNtB6_6engine11AgentEngine24persist_message_alloc_ex
FNDA:0,_RNvMs_NtCskOvt1kg1spG_10novel_core9turn_loopNtNtB6_6engine11AgentEngine29init_turn_message_seq_from_db
FNDA:0,_RNvMs_NtCskOvt1kg1spG_10novel_core9turn_loopNtNtB6_6engine11AgentEngine9deny_tool
FNDA:0,_RNCNCNvMs_NtCskOvt1kg1spG_10novel_core9turn_loopNtNtBa_6engine11AgentEngine16compact_and_sync00Ba_
FNDA:0,_RNCNCNvMs_NtCskOvt1kg1spG_10novel_core9turn_loopNtNtBa_6engine11AgentEngine16compact_and_sync0s_0Ba_
FNDA:0,_RNCNCNvMs_NtCskOvt1kg1spG_10novel_core9turn_loopNtNtBa_6engine11AgentEngine21generate_summary_text00Ba_
FNDA:0,_RNCNCNvMs_NtCskOvt1kg1spG_10novel_core9turn_loopNtNtBa_6engine11AgentEngine21generate_summary_text0s0_0Ba_
FNDA:0,_RNCNCNvMs_NtCskOvt1kg1spG_10novel_core9turn_loopNtNtBa_6engine11AgentEngine21generate_summary_text0s_0Ba_
FNDA:0,_RNCNvMNtCskOvt1kg1spG_10novel_core9turn_loopNtNtB6_6engine11AgentEngine23inject_sub_agent_report0B6_
FNDA:0,_RNCNvMNtCskOvt1kg1spG_10novel_core9turn_loopNtNtB6_6engine11AgentEngine31resume_inner_turn_from_messages0B6_
FNDA:0,_RNCNvMs_NtCskOvt1kg1spG_10novel_core9turn_loopNtNtB8_6engine11AgentEngine16compact_and_sync0B8_
FNDA:0,_RNCNvMs_NtCskOvt1kg1spG_10novel_core9turn_loopNtNtB8_6engine11AgentEngine19compact_with_events0B8_
FNDA:0,_RNCNvMs_NtCskOvt1kg1spG_10novel_core9turn_loopNtNtB8_6engine11AgentEngine19sync_messages_to_db0B8_
FNDA:0,_RNCNvMs_NtCskOvt1kg1spG_10novel_core9turn_loopNtNtB8_6engine11AgentEngine21generate_summary_text0B8_
FNDA:8,_RNCNvMs_NtCskOvt1kg1spG_10novel_core9turn_loopNtNtB8_6engine11AgentEngine21session_token_summary0B8_
FNDA:0,_RNCNvMs_NtCskOvt1kg1spG_10novel_core9turn_loopNtNtB8_6engine11AgentEngine24persist_message_alloc_ex0B8_
FNDA:0,_RNCNCNvMNtCskOvt1kg1spG_10novel_core9turn_loopNtNtB8_6engine11AgentEngine26handle_message_with_events00B8_
FNDA:0,_RNCNCNvMNtCskOvt1kg1spG_10novel_core9turn_loopNtNtB8_6engine11AgentEngine26handle_message_with_events0s_0B8_
FNDA:0,_RNCNCNvMNtCskOvt1kg1spG_10novel_core9turn_loopNtNtB8_6engine11AgentEngine33complete_inner_turn_without_tools0s0_0B8_
FNDA:0,_RNCNCNvMNtCskOvt1kg1spG_10novel_core9turn_loopNtNtB8_6engine11AgentEngine33complete_inner_turn_without_tools0s2_0B8_
FNDA:0,_RNCNCNvMNtCskOvt1kg1spG_10novel_core9turn_loopNtNtB8_6engine11AgentEngine33complete_inner_turn_without_tools0s3_0B8_
FNDA:0,_RNCNCNvMs_NtCskOvt1kg1spG_10novel_core9turn_loopNtNtBa_6engine11AgentEngine12approve_tool00Ba_
FNDA:0,_RNCNCNvMs_NtCskOvt1kg1spG_10novel_core9turn_loopNtNtBa_6engine11AgentEngine15answer_question00Ba_
FNDA:0,_RNCNCNvMs_NtCskOvt1kg1spG_10novel_core9turn_loopNtNtBa_6engine11AgentEngine15answer_question0s0_0Ba_
FNDA:0,_RNCNCNvMs_NtCskOvt1kg1spG_10novel_core9turn_loopNtNtBa_6engine11AgentEngine15answer_question0s_0Ba_
FNDA:0,_RNCNCNvMs_NtCskOvt1kg1spG_10novel_core9turn_loopNtNtBa_6engine11AgentEngine18continue_turn_loop00Ba_
FNDA:0,_RNCNCNvMs_NtCskOvt1kg1spG_10novel_core9turn_loopNtNtBa_6engine11AgentEngine22execute_stream_results00Ba_
FNDA:0,_RNCNCNvMs_NtCskOvt1kg1spG_10novel_core9turn_loopNtNtBa_6engine11AgentEngine9deny_tool00Ba_
FNDA:0,_RNCNCNvMs_NtCskOvt1kg1spG_10novel_core9turn_loopNtNtBa_6engine11AgentEngine9deny_tool0s_0Ba_
FNDA:0,_RNCNvMNtCskOvt1kg1spG_10novel_core9turn_loopNtNtB6_6engine11AgentEngine19run_inner_turn_loop0B6_
FNDA:0,_RNCNvMNtCskOvt1kg1spG_10novel_core9turn_loopNtNtB6_6engine11AgentEngine26handle_message_with_events0B6_
FNDA:0,_RNCNvMNtCskOvt1kg1spG_10novel_core9turn_loopNtNtB6_6engine11AgentEngine33complete_inner_turn_without_tools0B6_
FNDA:0,_RNCNvMs_NtCskOvt1kg1spG_10novel_core9turn_loopNtNtB8_6engine11AgentEngine12approve_tool0B8_
FNDA:0,_RNCNvMs_NtCskOvt1kg1spG_10novel_core9turn_loopNtNtB8_6engine11AgentEngine15answer_question0B8_
FNDA:0,_RNCNvMs_NtCskOvt1kg1spG_10novel_core9turn_loopNtNtB8_6engine11AgentEngine18continue_turn_loop0B8_
FNDA:0,_RNCNvMs_NtCskOvt1kg1spG_10novel_core9turn_loopNtNtB8_6engine11AgentEngine22execute_stream_results0B8_
FNDA:0,_RNCNvMs_NtCskOvt1kg1spG_10novel_core9turn_loopNtNtB8_6engine11AgentEngine9deny_tool0B8_
FNDA:0,_RNCNCNvMNtCskOvt1kg1spG_10novel_core9turn_loopNtNtB8_6engine11AgentEngine26handle_message_with_events00Csja0mJncq2tx_10fork_agent
FNDA:0,_RNCNCNvMNtCskOvt1kg1spG_10novel_core9turn_loopNtNtB8_6engine11AgentEngine26handle_message_with_events0s_0Csja0mJncq2tx_10fork_agent
FNDA:0,_RNCNCNvMNtCskOvt1kg1spG_10novel_core9turn_loopNtNtB8_6engine11AgentEngine33complete_inner_turn_without_tools0s0_0Csja0mJncq2tx_10fork_agent
FNDA:0,_RNCNCNvMNtCskOvt1kg1spG_10novel_core9turn_loopNtNtB8_6engine11AgentEngine33complete_inner_turn_without_tools0s2_0Csja0mJncq2tx_10fork_agent
FNDA:0,_RNCNCNvMNtCskOvt1kg1spG_10novel_core9turn_loopNtNtB8_6engine11AgentEngine33complete_inner_turn_without_tools0s3_0Csja0mJncq2tx_10fork_agent
FNDA:0,_RNCNCNvMs_NtCskOvt1kg1spG_10novel_core9turn_loopNtNtBa_6engine11AgentEngine22execute_stream_results00Csja0mJncq2tx_10fork_agent
FNDA:7,_RNCNvMNtCskOvt1kg1spG_10novel_core9turn_loopNtNtB6_6engine11AgentEngine19run_inner_turn_loop0Csja0mJncq2tx_10fork_agent
FNDA:7,_RNCNvMNtCskOvt1kg1spG_10novel_core9turn_loopNtNtB6_6engine11AgentEngine26handle_message_with_events0Csja0mJncq2tx_10fork_agent
FNDA:7,_RNCNvMNtCskOvt1kg1spG_10novel_core9turn_loopNtNtB6_6engine11AgentEngine33complete_inner_turn_without_tools0Csja0mJncq2tx_10fork_agent
FNDA:0,_RNCNvMs_NtCskOvt1kg1spG_10novel_core9turn_loopNtNtB8_6engine11AgentEngine22execute_stream_results0Csja0mJncq2tx_10fork_agent
FNDA:0,_RNCNCNvMNtCskOvt1kg1spG_10novel_core9turn_loopNtNtB8_6engine11AgentEngine26handle_message_with_events00Cs90uylq1XzCH_22live_invoke_skill_turn
FNDA:0,_RNCNCNvMNtCskOvt1kg1spG_10novel_core9turn_loopNtNtB8_6engine11AgentEngine26handle_message_with_events0s_0Cs90uylq1XzCH_22live_invoke_skill_turn
FNDA:0,_RNCNCNvMNtCskOvt1kg1spG_10novel_core9turn_loopNtNtB8_6engine11AgentEngine33complete_inner_turn_without_tools0s0_0Cs90uylq1XzCH_22live_invoke_skill_turn
FNDA:0,_RNCNCNvMNtCskOvt1kg1spG_10novel_core9turn_loopNtNtB8_6engine11AgentEngine33complete_inner_turn_without_tools0s2_0Cs90uylq1XzCH_22live_invoke_skill_turn
FNDA:0,_RNCNCNvMNtCskOvt1kg1spG_10novel_core9turn_loopNtNtB8_6engine11AgentEngine33complete_inner_turn_without_tools0s3_0Cs90uylq1XzCH_22live_invoke_skill_turn
FNDA:0,_RNCNCNvMs_NtCskOvt1kg1spG_10novel_core9turn_loopNtNtBa_6engine11AgentEngine22execute_stream_results00Cs90uylq1XzCH_22live_invoke_skill_turn
FNDA:0,_RNCNvMNtCskOvt1kg1spG_10novel_core9turn_loopNtNtB6_6engine11AgentEngine19run_inner_turn_loop0Cs90uylq1XzCH_22live_invoke_skill_turn
FNDA:0,_RNCNvMNtCskOvt1kg1spG_10novel_core9turn_loopNtNtB6_6engine11AgentEngine26handle_message_with_events0Cs90uylq1XzCH_22live_invoke_skill_turn
FNDA:0,_RNCNvMNtCskOvt1kg1spG_10novel_core9turn_loopNtNtB6_6engine11AgentEngine33complete_inner_turn_without_tools0Cs90uylq1XzCH_22live_invoke_skill_turn
FNDA:0,_RNCNvMs_NtCskOvt1kg1spG_10novel_core9turn_loopNtNtB8_6engine11AgentEngine22execute_stream_results0Cs90uylq1XzCH_22live_invoke_skill_turn
FNDA:0,_RNCNCNvMNtCskOvt1kg1spG_10novel_core9turn_loopNtNtB8_6engine11AgentEngine26handle_message_with_events00Cs5ts0mUYpT8u_12novel_server
FNDA:0,_RNCNCNvMNtCskOvt1kg1spG_10novel_core9turn_loopNtNtB8_6engine11AgentEngine26handle_message_with_events0s_0Cs5ts0mUYpT8u_12novel_server
FNDA:0,_RNCNCNvMNtCskOvt1kg1spG_10novel_core9turn_loopNtNtB8_6engine11AgentEngine33complete_inner_turn_without_tools0s0_0Cs5ts0mUYpT8u_12novel_server
FNDA:0,_RNCNCNvMNtCskOvt1kg1spG_10novel_core9turn_loopNtNtB8_6engine11AgentEngine33complete_inner_turn_without_tools0s2_0Cs5ts0mUYpT8u_12novel_server
FNDA:0,_RNCNCNvMNtCskOvt1kg1spG_10novel_core9turn_loopNtNtB8_6engine11AgentEngine33complete_inner_turn_without_tools0s3_0Cs5ts0mUYpT8u_12novel_server
FNDA:0,_RNCNCNvMs_NtCskOvt1kg1spG_10novel_core9turn_loopNtNtBa_6engine11AgentEngine12approve_tool00Cs5ts0mUYpT8u_12novel_server
FNDA:0,_RNCNCNvMs_NtCskOvt1kg1spG_10novel_core9turn_loopNtNtBa_6engine11AgentEngine15answer_question00Cs5ts0mUYpT8u_12novel_server
FNDA:0,_RNCNCNvMs_NtCskOvt1kg1spG_10novel_core9turn_loopNtNtBa_6engine11AgentEngine15answer_question0s0_0Cs5ts0mUYpT8u_12novel_server
FNDA:0,_RNCNCNvMs_NtCskOvt1kg1spG_10novel_core9turn_loopNtNtBa_6engine11AgentEngine15answer_question0s_0Cs5ts0mUYpT8u_12novel_server
FNDA:0,_RNCNCNvMs_NtCskOvt1kg1spG_10novel_core9turn_loopNtNtBa_6engine11AgentEngine18continue_turn_loop00Cs5ts0mUYpT8u_12novel_server
FNDA:0,_RNCNCNvMs_NtCskOvt1kg1spG_10novel_core9turn_loopNtNtBa_6engine11AgentEngine22execute_stream_results00Cs5ts0mUYpT8u_12novel_server
FNDA:0,_RNCNCNvMs_NtCskOvt1kg1spG_10novel_core9turn_loopNtNtBa_6engine11AgentEngine9deny_tool00Cs5ts0mUYpT8u_12novel_server
FNDA:0,_RNCNCNvMs_NtCskOvt1kg1spG_10novel_core9turn_loopNtNtBa_6engine11AgentEngine9deny_tool0s_0Cs5ts0mUYpT8u_12novel_server
FNDA:0,_RNCNvMNtCskOvt1kg1spG_10novel_core9turn_loopNtNtB6_6engine11AgentEngine19run_inner_turn_loop0Cs5ts0mUYpT8u_12novel_server
FNDA:0,_RNCNvMNtCskOvt1kg1spG_10novel_core9turn_loopNtNtB6_6engine11AgentEngine26handle_message_with_events0Cs5ts0mUYpT8u_12novel_server
FNDA:0,_RNCNvMNtCskOvt1kg1spG_10novel_core9turn_loopNtNtB6_6engine11AgentEngine33complete_inner_turn_without_tools0Cs5ts0mUYpT8u_12novel_server
FNDA:0,_RNCNvMs_NtCskOvt1kg1spG_10novel_core9turn_loopNtNtB8_6engine11AgentEngine12approve_tool0Cs5ts0mUYpT8u_12novel_server
FNDA:0,_RNCNvMs_NtCskOvt1kg1spG_10novel_core9turn_loopNtNtB8_6engine11AgentEngine15answer_question0Cs5ts0mUYpT8u_12novel_server
FNDA:0,_RNCNvMs_NtCskOvt1kg1spG_10novel_core9turn_loopNtNtB8_6engine11AgentEngine18continue_turn_loop0Cs5ts0mUYpT8u_12novel_server
FNDA:0,_RNCNvMs_NtCskOvt1kg1spG_10novel_core9turn_loopNtNtB8_6engine11AgentEngine22execute_stream_results0Cs5ts0mUYpT8u_12novel_server
FNDA:0,_RNCNvMs_NtCskOvt1kg1spG_10novel_core9turn_loopNtNtB8_6engine11AgentEngine9deny_tool0Cs5ts0mUYpT8u_12novel_server
FNDA:0,_RNCNCNvMNtCsgAl8xIys83E_10novel_core9turn_loopNtNtB8_6engine11AgentEngine26handle_message_with_events00B8_
FNDA:2,_RNCNCNvMNtCsgAl8xIys83E_10novel_core9turn_loopNtNtB8_6engine11AgentEngine26handle_message_with_events0s_0B8_
FNDA:0,_RNCNCNvMNtCsgAl8xIys83E_10novel_core9turn_loopNtNtB8_6engine11AgentEngine33complete_inner_turn_without_tools0s0_0B8_
FNDA:0,_RNCNCNvMNtCsgAl8xIys83E_10novel_core9turn_loopNtNtB8_6engine11AgentEngine33complete_inner_turn_without_tools0s2_0B8_
FNDA:0,_RNCNCNvMNtCsgAl8xIys83E_10novel_core9turn_loopNtNtB8_6engine11AgentEngine33complete_inner_turn_without_tools0s3_0B8_
FNDA:1,_RNCNCNvMs_NtCsgAl8xIys83E_10novel_core9turn_loopNtNtBa_6engine11AgentEngine12approve_tool00Ba_
FNDA:0,_RNCNCNvMs_NtCsgAl8xIys83E_10novel_core9turn_loopNtNtBa_6engine11AgentEngine15answer_question00Ba_
FNDA:1,_RNCNCNvMs_NtCsgAl8xIys83E_10novel_core9turn_loopNtNtBa_6engine11AgentEngine15answer_question0s0_0Ba_
FNDA:0,_RNCNCNvMs_NtCsgAl8xIys83E_10novel_core9turn_loopNtNtBa_6engine11AgentEngine15answer_question0s_0Ba_
FNDA:4,_RNCNCNvMs_NtCsgAl8xIys83E_10novel_core9turn_loopNtNtBa_6engine11AgentEngine16compact_and_sync00Ba_
FNDA:0,_RNCNCNvMs_NtCsgAl8xIys83E_10novel_core9turn_loopNtNtBa_6engine11AgentEngine16compact_and_sync0s_0Ba_
FNDA:0,_RNCNCNvMs_NtCsgAl8xIys83E_10novel_core9turn_loopNtNtBa_6engine11AgentEngine18continue_turn_loop00Ba_
FNDA:1,_RNCNCNvMs_NtCsgAl8xIys83E_10novel_core9turn_loopNtNtBa_6engine11AgentEngine21generate_summary_text00Ba_
FNDA:0,_RNCNCNvMs_NtCsgAl8xIys83E_10novel_core9turn_loopNtNtBa_6engine11AgentEngine21generate_summary_text0s0_0Ba_
FNDA:0,_RNCNCNvMs_NtCsgAl8xIys83E_10novel_core9turn_loopNtNtBa_6engine11AgentEngine21generate_summary_text0s_0Ba_
FNDA:82,_RNCNCNvMs_NtCsgAl8xIys83E_10novel_core9turn_loopNtNtBa_6engine11AgentEngine22execute_stream_results00Ba_
FNDA:0,_RNCNCNvMs_NtCsgAl8xIys83E_10novel_core9turn_loopNtNtBa_6engine11AgentEngine9deny_tool00Ba_
FNDA:1,_RNCNCNvMs_NtCsgAl8xIys83E_10novel_core9turn_loopNtNtBa_6engine11AgentEngine9deny_tool0s_0Ba_
FNDA:8,_RNCNvMNtCsgAl8xIys83E_10novel_core9turn_loopNtNtB6_6engine11AgentEngine19run_inner_turn_loop0B6_
FNDA:4,_RNCNvMNtCsgAl8xIys83E_10novel_core9turn_loopNtNtB6_6engine11AgentEngine23inject_sub_agent_report0B6_
FNDA:7,_RNCNvMNtCsgAl8xIys83E_10novel_core9turn_loopNtNtB6_6engine11AgentEngine26handle_message_with_events0B6_
FNDA:7,_RNCNvMNtCsgAl8xIys83E_10novel_core9turn_loopNtNtB6_6engine11AgentEngine31resume_inner_turn_from_messages0B6_
FNDA:7,_RNCNvMNtCsgAl8xIys83E_10novel_core9turn_loopNtNtB6_6engine11AgentEngine33complete_inner_turn_without_tools0B6_
FNDA:3,_RNCNvMs_NtCsgAl8xIys83E_10novel_core9turn_loopNtNtB8_6engine11AgentEngine12approve_tool0B8_
FNDA:1,_RNCNvMs_NtCsgAl8xIys83E_10novel_core9turn_loopNtNtB8_6engine11AgentEngine15answer_question0B8_
FNDA:2,_RNCNvMs_NtCsgAl8xIys83E_10novel_core9turn_loopNtNtB8_6engine11AgentEngine16compact_and_sync0B8_
FNDA:2,_RNCNvMs_NtCsgAl8xIys83E_10novel_core9turn_loopNtNtB8_6engine11AgentEngine18continue_turn_loop0B8_
FNDA:0,_RNCNvMs_NtCsgAl8xIys83E_10novel_core9turn_loopNtNtB8_6engine11AgentEngine19compact_with_events0B8_
FNDA:4,_RNCNvMs_NtCsgAl8xIys83E_10novel_core9turn_loopNtNtB8_6engine11AgentEngine19sync_messages_to_db0B8_
FNDA:1,_RNCNvMs_NtCsgAl8xIys83E_10novel_core9turn_loopNtNtB8_6engine11AgentEngine21generate_summary_text0B8_
FNDA:8,_RNCNvMs_NtCsgAl8xIys83E_10novel_core9turn_loopNtNtB8_6engine11AgentEngine21session_token_summary0B8_
FNDA:82,_RNCNvMs_NtCsgAl8xIys83E_10novel_core9turn_loopNtNtB8_6engine11AgentEngine22execute_stream_results0B8_
FNDA:0,_RNCNvMs_NtCsgAl8xIys83E_10novel_core9turn_loopNtNtB8_6engine11AgentEngine24persist_message_alloc_ex0B8_
FNDA:1,_RNCNvMs_NtCsgAl8xIys83E_10novel_core9turn_loopNtNtB8_6engine11AgentEngine9deny_tool0B8_
FNDA:16,_RNvNtNtCsgAl8xIys83E_10novel_core9turn_loop5tests11test_config
FNDA:1,_RNvNtNtCsgAl8xIys83E_10novel_core9turn_loop5testss_24messages_persisted_to_db
FNDA:1,_RNvNtNtCsgAl8xIys83E_10novel_core9turn_loop5testss_29handle_ready_allows_read_tool
FNDA:1,_RNvNtNtCsgAl8xIys83E_10novel_core9turn_loop5testss_34default_hooks_do_not_enqueue_tasks
FNDA:1,_RNvNtNtCsgAl8xIys83E_10novel_core9turn_loop5testss_37offline_turn_produces_assistant_reply
FNDA:1,_RNvNtNtCsgAl8xIys83E_10novel_core9turn_loop5testss_39approve_unknown_tool_returns_validation
FNDA:1,_RNvNtNtCsgAl8xIys83E_10novel_core9turn_loop5testss_39compact_and_sync_clears_read_file_cache
FNDA:1,_RNvNtNtCsgAl8xIys83E_10novel_core9turn_loop5testss_42approve_pending_read_persists_tool_message
FNDA:1,_RNvNtNtCsgAl8xIys83E_10novel_core9turn_loop5testss_43parent_llm_context_excludes_fork_transcript
FNDA:1,_RNvNtNtCsgAl8xIys83E_10novel_core9turn_loop5testss_44answer_question_clears_pending_and_continues
FNDA:1,_RNvNtNtCsgAl8xIys83E_10novel_core9turn_loop5testss_44execute_stream_results_persists_tool_message
FNDA:1,_RNvNtNtCsgAl8xIys83E_10novel_core9turn_loop5testss_44resume_inner_turn_counts_existing_assistants
FNDA:1,_RNvNtNtCsgAl8xIys83E_10novel_core9turn_loop5testss_49execute_stream_results_pauses_on_needs_user_input
FNDA:1,_RNvNtNtCsgAl8xIys83E_10novel_core9turn_loop5testss_50deny_tool_does_not_continue_while_question_pending
FNDA:1,_RNvNtNtCsgAl8xIys83E_10novel_core9turn_loop5testss_53drain_subagent_jobs_injects_multiple_reports_in_order
FNDA:1,_RNvNtNtCsgAl8xIys83E_10novel_core9turn_loop5testss_53should_continue_inner_after_reasoning_only_completion
FNDA:1,_RNvNtNtCsgAl8xIys83E_10novel_core9turn_loop5testss_54build_message_rows_keeps_sub_agent_report_in_same_turn
FNDA:1,_RNvNtNtCsgAl8xIys83E_10novel_core9turn_loop5testss_56drain_subagent_jobs_injects_report_with_unique_sequences
FNDA:1,_RNvNtNtCsgAl8xIys83E_10novel_core9turn_loop5testss_61inject_sub_agent_report_allocates_sequence_after_user_message
FNDA:1,_RNvNtNtCsgAl8xIys83E_10novel_core9turn_loop5testss_62compact_and_sync_skipped_when_under_threshold_keeps_read_cache
FNDA:3,_RNCNCNvNtNtCsgAl8xIys83E_10novel_core9turn_loop5testss_37offline_turn_produces_assistant_reply00B9_
FNDA:2,_RNCNCNvNtNtCsgAl8xIys83E_10novel_core9turn_loop5testss_42approve_pending_read_persists_tool_message00B9_
FNDA:4,_RNCNCNvNtNtCsgAl8xIys83E_10novel_core9turn_loop5testss_43parent_llm_context_excludes_fork_transcript00B9_
FNDA:1,_RNCNCNvNtNtCsgAl8xIys83E_10novel_core9turn_loop5testss_43parent_llm_context_excludes_fork_transcript0s0_0B9_
FNDA:3,_RNCNCNvNtNtCsgAl8xIys83E_10novel_core9turn_loop5testss_43parent_llm_context_excludes_fork_transcript0s1_0B9_
FNDA:0,_RNCNCNvNtNtCsgAl8xIys83E_10novel_core9turn_loop5testss_43parent_llm_context_excludes_fork_transcript0s2_0B9_
FNDA:3,_RNCNCNvNtNtCsgAl8xIys83E_10novel_core9turn_loop5testss_43parent_llm_context_excludes_fork_transcript0s_0B9_
FNDA:2,_RNCNCNvNtNtCsgAl8xIys83E_10novel_core9turn_loop5testss_44execute_stream_results_persists_tool_message00B9_
FNDA:5,_RNCNCNvNtNtCsgAl8xIys83E_10novel_core9turn_loop5testss_53drain_subagent_jobs_injects_multiple_reports_in_order00B9_
FNDA:4,_RNCNCNvNtNtCsgAl8xIys83E_10novel_core9turn_loop5testss_56drain_subagent_jobs_injects_report_with_unique_sequences00B9_
FNDA:3,_RNCNCNvNtNtCsgAl8xIys83E_10novel_core9turn_loop5testss_56drain_subagent_jobs_injects_report_with_unique_sequences0s_0B9_
FNDA:1,_RNCNvNtNtCsgAl8xIys83E_10novel_core9turn_loop5testss_24messages_persisted_to_db0B7_
FNDA:1,_RNCNvNtNtCsgAl8xIys83E_10novel_core9turn_loop5testss_29handle_ready_allows_read_tool0B7_
FNDA:1,_RNCNvNtNtCsgAl8xIys83E_10novel_core9turn_loop5testss_34default_hooks_do_not_enqueue_tasks0B7_
FNDA:1,_RNCNvNtNtCsgAl8xIys83E_10novel_core9turn_loop5testss_37offline_turn_produces_assistant_reply0B7_
FNDA:1,_RNCNvNtNtCsgAl8xIys83E_10novel_core9turn_loop5testss_39approve_unknown_tool_returns_validation0B7_
FNDA:1,_RNCNvNtNtCsgAl8xIys83E_10novel_core9turn_loop5testss_39compact_and_sync_clears_read_file_cache0B7_
FNDA:1,_RNCNvNtNtCsgAl8xIys83E_10novel_core9turn_loop5testss_42approve_pending_read_persists_tool_message0B7_
FNDA:1,_RNCNvNtNtCsgAl8xIys83E_10novel_core9turn_loop5testss_43parent_llm_context_excludes_fork_transcript0B7_
FNDA:1,_RNCNvNtNtCsgAl8xIys83E_10novel_core9turn_loop5testss_44answer_question_clears_pending_and_continues0B7_
FNDA:1,_RNCNvNtNtCsgAl8xIys83E_10novel_core9turn_loop5testss_44execute_stream_results_persists_tool_message0B7_
FNDA:1,_RNCNvNtNtCsgAl8xIys83E_10novel_core9turn_loop5testss_49execute_stream_results_pauses_on_needs_user_input0B7_
FNDA:1,_RNCNvNtNtCsgAl8xIys83E_10novel_core9turn_loop5testss_50deny_tool_does_not_continue_while_question_pending0B7_
FNDA:1,_RNCNvNtNtCsgAl8xIys83E_10novel_core9turn_loop5testss_53drain_subagent_jobs_injects_multiple_reports_in_order0B7_
FNDA:1,_RNCNvNtNtCsgAl8xIys83E_10novel_core9turn_loop5testss_56drain_subagent_jobs_injects_report_with_unique_sequences0B7_
FNDA:4,_RNCNvNtNtCsgAl8xIys83E_10novel_core9turn_loop5testss_61inject_sub_agent_report_allocates_sequence_after_user_message0B7_
FNDA:1,_RNCNvNtNtCsgAl8xIys83E_10novel_core9turn_loop5testss_62compact_and_sync_skipped_when_under_threshold_keeps_read_cache0B7_
FNDA:5,_RNvMNtCsgAl8xIys83E_10novel_core9turn_loopNtNtB4_6engine11AgentEngine19is_sub_agent_report
FNDA:8,_RNvMNtCsgAl8xIys83E_10novel_core9turn_loopNtNtB4_6engine11AgentEngine19run_inner_turn_loop
FNDA:5,_RNvMNtCsgAl8xIys83E_10novel_core9turn_loopNtNtB4_6engine11AgentEngine23inject_sub_agent_report
FNDA:7,_RNvMNtCsgAl8xIys83E_10novel_core9turn_loopNtNtB4_6engine11AgentEngine26handle_message_with_events
FNDA:4,_RNvMNtCsgAl8xIys83E_10novel_core9turn_loopNtNtB4_6engine11AgentEngine31resume_inner_turn_from_messages
FNDA:7,_RNvMNtCsgAl8xIys83E_10novel_core9turn_loopNtNtB4_6engine11AgentEngine33complete_inner_turn_without_tools
FNDA:8,_RNvMNtCsgAl8xIys83E_10novel_core9turn_loopNtNtB4_6engine11AgentEngine8init_llm
FNDA:3,_RNvMs_NtCsgAl8xIys83E_10novel_core9turn_loopNtNtB6_6engine11AgentEngine12approve_tool
FNDA:81,_RNvMs_NtCsgAl8xIys83E_10novel_core9turn_loopNtNtB6_6engine11AgentEngine12record_usage
FNDA:1,_RNvMs_NtCsgAl8xIys83E_10novel_core9turn_loopNtNtB6_6engine11AgentEngine15answer_question
FNDA:87,_RNvMs_NtCsgAl8xIys83E_10novel_core9turn_loopNtNtB6_6engine11AgentEngine15main_tool_names
FNDA:2,_RNvMs_NtCsgAl8xIys83E_10novel_core9turn_loopNtNtB6_6engine11AgentEngine16compact_and_sync
FNDA:93,_RNvMs_NtCsgAl8xIys83E_10novel_core9turn_loopNtNtB6_6engine11AgentEngine17compaction_needed
FNDA:2,_RNvMs_NtCsgAl8xIys83E_10novel_core9turn_loopNtNtB6_6engine11AgentEngine18build_message_rows
FNDA:2,_RNvMs_NtCsgAl8xIys83E_10novel_core9turn_loopNtNtB6_6engine11AgentEngine18continue_turn_loop
FNDA:0,_RNvMs_NtCsgAl8xIys83E_10novel_core9turn_loopNtNtB6_6engine11AgentEngine19compact_with_events
FNDA:1,_RNvMs_NtCsgAl8xIys83E_10novel_core9turn_loopNtNtB6_6engine11AgentEngine19sync_messages_to_db
FNDA:1,_RNvMs_NtCsgAl8xIys83E_10novel_core9turn_loopNtNtB6_6engine11AgentEngine21generate_summary_text
FNDA:177,_RNvMs_NtCsgAl8xIys83E_10novel_core9turn_loopNtNtB6_6engine11AgentEngine21persist_message_alloc
FNDA:8,_RNvMs_NtCsgAl8xIys83E_10novel_core9turn_loopNtNtB6_6engine11AgentEngine21session_token_summary
FNDA:182,_RNvMs_NtCsgAl8xIys83E_10novel_core9turn_loopNtNtB6_6engine11AgentEngine22alloc_turn_message_seq
FNDA:82,_RNvMs_NtCsgAl8xIys83E_10novel_core9turn_loopNtNtB6_6engine11AgentEngine22execute_stream_results
FNDA:10,_RNvMs_NtCsgAl8xIys83E_10novel_core9turn_loopNtNtB6_6engine11AgentEngine22persist_message_at_seq
FNDA:182,_RNvMs_NtCsgAl8xIys83E_10novel_core9turn_loopNtNtB6_6engine11AgentEngine24persist_message_alloc_ex
FNDA:2,_RNvMs_NtCsgAl8xIys83E_10novel_core9turn_loopNtNtB6_6engine11AgentEngine29init_turn_message_seq_from_db
FNDA:1,_RNvMs_NtCsgAl8xIys83E_10novel_core9turn_loopNtNtB6_6engine11AgentEngine9deny_tool
FNDA:0,_RNCNCNvMNtCskOvt1kg1spG_10novel_core9turn_loopNtNtB8_6engine11AgentEngine26handle_message_with_events00Cs4uMLwczbohT_12novel_server
FNDA:0,_RNCNCNvMNtCskOvt1kg1spG_10novel_core9turn_loopNtNtB8_6engine11AgentEngine26handle_message_with_events0s_0Cs4uMLwczbohT_12novel_server
FNDA:0,_RNCNCNvMNtCskOvt1kg1spG_10novel_core9turn_loopNtNtB8_6engine11AgentEngine33complete_inner_turn_without_tools0s0_0Cs4uMLwczbohT_12novel_server
FNDA:0,_RNCNCNvMNtCskOvt1kg1spG_10novel_core9turn_loopNtNtB8_6engine11AgentEngine33complete_inner_turn_without_tools0s2_0Cs4uMLwczbohT_12novel_server
FNDA:0,_RNCNCNvMNtCskOvt1kg1spG_10novel_core9turn_loopNtNtB8_6engine11AgentEngine33complete_inner_turn_without_tools0s3_0Cs4uMLwczbohT_12novel_server
FNDA:0,_RNCNCNvMs_NtCskOvt1kg1spG_10novel_core9turn_loopNtNtBa_6engine11AgentEngine22execute_stream_results00Cs4uMLwczbohT_12novel_server
FNDA:1,_RNCNvMNtCskOvt1kg1spG_10novel_core9turn_loopNtNtB6_6engine11AgentEngine19run_inner_turn_loop0Cs4uMLwczbohT_12novel_server
FNDA:1,_RNCNvMNtCskOvt1kg1spG_10novel_core9turn_loopNtNtB6_6engine11AgentEngine26handle_message_with_events0Cs4uMLwczbohT_12novel_server
FNDA:1,_RNCNvMNtCskOvt1kg1spG_10novel_core9turn_loopNtNtB6_6engine11AgentEngine33complete_inner_turn_without_tools0Cs4uMLwczbohT_12novel_server
FNDA:0,_RNCNvMs_NtCskOvt1kg1spG_10novel_core9turn_loopNtNtB8_6engine11AgentEngine22execute_stream_results0Cs4uMLwczbohT_12novel_server
FNF:107
FNH:92
DA:36,16
DA:37,16
DA:38,0
DA:39,16
DA:40,16
DA:41,16
DA:42,16
DA:43,16
DA:48,5
DA:49,5
DA:50,5
DA:54,15
DA:55,15
DA:56,15
DA:57,15
DA:58,15
DA:59,15
DA:60,15
DA:61,1
DA:62,1
DA:63,14
DA:64,14
DA:65,0
DA:69,0
DA:70,0
DA:71,0
DA:72,14
DA:73,14
DA:74,14
DA:76,14
DA:77,14
DA:78,14
DA:79,14
DA:80,14
DA:83,14
DA:84,10
DA:85,10
DA:86,10
DA:87,10
DA:88,10
DA:89,10
DA:90,10
DA:92,14
DA:93,0
DA:94,0
DA:95,0
DA:96,0
DA:97,0
DA:99,14
DA:101,14
DA:102,14
DA:103,14
DA:105,14
DA:106,0
DA:107,0
DA:108,14
DA:110,14
DA:111,14
DA:112,14
DA:113,14
DA:114,14
DA:115,14
DA:116,14
DA:117,14
DA:118,14
DA:119,14
DA:120,14
DA:122,14
DA:123,14
DA:124,14
DA:125,14
DA:128,0
DA:131,14
DA:132,14
DA:133,14
DA:134,14
DA:135,14
DA:137,14
DA:138,1
DA:139,1
DA:140,1
DA:141,13
DA:143,14
DA:145,14
DA:146,14
DA:148,14
DA:149,14
DA:150,14
DA:151,14
DA:152,14
DA:153,14
DA:154,14
DA:155,14
DA:165,14
DA:166,14
DA:167,14
DA:168,14
DA:169,14
DA:170,14
DA:171,14
DA:173,14
DA:174,14
DA:175,1
DA:176,0
DA:177,1
DA:179,1
DA:180,1
DA:181,1
DA:182,1
DA:183,1
DA:184,1
DA:185,1
DA:186,1
DA:187,1
DA:188,1
DA:189,1
DA:190,1
DA:191,13
DA:192,14
DA:193,14
DA:194,15
DA:198,5
DA:199,5
DA:200,5
DA:201,5
DA:202,5
DA:203,5
DA:204,5
DA:205,5
DA:206,5
DA:207,5
DA:208,5
DA:209,5
DA:210,5
DA:211,5
DA:213,0
DA:218,5
DA:219,5
DA:220,5
DA:221,5
DA:222,4
DA:223,4
DA:224,4
DA:225,4
DA:226,4
DA:227,0
DA:228,1
DA:229,5
DA:230,5
DA:234,4
DA:235,4
DA:236,4
DA:237,7
DA:238,4
DA:239,4
DA:242,15
DA:243,15
DA:244,15
DA:245,15
DA:246,15
DA:247,15
DA:248,15
DA:249,15
DA:250,15
DA:251,0
DA:252,15
DA:253,15
DA:254,0
DA:255,0
DA:258,0
DA:259,15
DA:260,15
DA:261,0
DA:263,0
DA:264,0
DA:265,0
DA:266,0
DA:267,0
DA:271,0
DA:272,0
DA:273,0
DA:275,15
DA:276,15
DA:278,0
DA:279,0
DA:280,0
DA:281,0
DA:282,0
DA:283,0
DA:287,15
DA:288,15
DA:292,16
DA:293,16
DA:294,16
DA:295,16
DA:296,16
DA:298,95
DA:299,0
DA:300,95
DA:301,95
DA:302,0
DA:303,95
DA:304,95
DA:305,0
DA:306,95
DA:308,95
DA:310,95
DA:311,95
DA:312,95
DA:313,95
DA:314,95
DA:315,95
DA:316,95
DA:317,95
DA:319,95
DA:321,0
DA:322,0
DA:323,0
DA:327,95
DA:328,95
DA:329,95
DA:331,0
DA:332,0
DA:333,0
DA:335,95
DA:338,95
DA:340,0
DA:341,95
DA:343,95
DA:348,95
DA:349,95
DA:350,95
DA:351,95
DA:353,95
DA:354,0
DA:355,95
DA:357,95
DA:358,15
DA:359,15
DA:360,15
DA:362,15
DA:363,0
DA:364,0
DA:365,80
DA:369,80
DA:370,0
DA:371,0
DA:372,0
DA:373,80
DA:377,80
DA:378,79
DA:379,1
DA:380,1
DA:382,0
DA:385,16
DA:391,82
DA:392,82
DA:393,82
DA:394,82
DA:395,82
DA:396,82
DA:397,82
DA:398,82
DA:399,82
DA:400,82
DA:401,82
DA:402,82
DA:403,82
DA:404,82
DA:406,82
DA:407,82
DA:408,82
DA:410,82
DA:411,82
DA:412,82
DA:413,82
DA:414,0
DA:416,82
DA:417,1
DA:418,81
DA:419,81
DA:421,1
DA:422,1
DA:423,1
DA:424,1
DA:425,1
DA:426,1
DA:427,1
DA:428,0
DA:429,1
DA:431,0
DA:432,0
DA:436,82
DA:437,82
DA:441,3
DA:442,3
DA:443,3
DA:444,3
DA:445,3
DA:446,3
DA:447,1
DA:448,1
DA:449,1
DA:450,2
DA:455,2
DA:456,2
DA:457,2
DA:458,2
DA:459,2
DA:460,2
DA:461,2
DA:462,2
DA:463,2
DA:464,2
DA:465,2
DA:466,1
DA:467,1
DA:468,1
DA:469,1
DA:470,1
DA:471,2
DA:472,2
DA:473,2
DA:474,2
DA:475,1
DA:476,1
DA:478,1
DA:479,1
DA:480,0
DA:484,1
DA:485,2
DA:486,3
DA:488,1
DA:489,1
DA:490,1
DA:491,1
DA:492,1
DA:493,1
DA:494,1
DA:495,0
DA:496,0
DA:497,0
DA:498,1
DA:503,1
DA:504,1
DA:505,1
DA:506,1
DA:507,1
DA:508,1
DA:509,1
DA:510,1
DA:511,1
DA:512,1
DA:513,1
DA:514,1
DA:515,1
DA:516,1
DA:517,1
DA:518,1
DA:519,1
DA:520,1
DA:522,0
DA:523,1
DA:524,1
DA:528,0
DA:529,1
DA:530,1
DA:533,1
DA:534,1
DA:535,1
DA:536,1
DA:537,1
DA:538,1
DA:539,1
DA:540,1
DA:541,1
DA:542,1
DA:543,1
DA:544,0
DA:549,0
DA:550,1
DA:551,1
DA:552,1
DA:554,1
DA:555,1
DA:557,1
DA:558,1
DA:559,1
DA:560,1
DA:561,1
DA:562,1
DA:563,1
DA:564,1
DA:565,0
DA:566,0
DA:567,0
DA:570,1
DA:571,0
DA:572,0
DA:573,0
DA:574,0
DA:575,1
DA:577,1
DA:578,1
DA:580,2
DA:581,2
DA:582,2
DA:583,2
DA:584,2
DA:589,2
DA:590,2
DA:591,2
DA:592,2
DA:593,2
DA:594,2
DA:595,2
DA:599,0
DA:602,2
DA:603,2
DA:604,2
DA:605,2
DA:606,2
DA:607,2
DA:608,2
DA:609,2
DA:616,2
DA:617,2
DA:618,2
DA:619,2
DA:620,2
DA:621,2
DA:622,2
DA:623,2
DA:624,2
DA:625,1
DA:626,0
DA:627,1
DA:628,1
DA:629,0
DA:630,0
DA:631,0
DA:634,1
DA:635,1
DA:636,1
DA:637,1
DA:638,1
DA:639,1
DA:640,1
DA:641,1
DA:642,1
DA:643,1
DA:644,1
DA:645,1
DA:646,1
DA:647,2
DA:648,2
DA:653,101
DA:654,101
DA:655,5
DA:656,96
DA:657,96
DA:658,96
DA:659,96
DA:660,101
DA:662,1
DA:663,1
DA:664,1
DA:665,1
DA:666,1
DA:667,1
DA:668,1
DA:673,1
DA:675,1
DA:676,1
DA:677,0
DA:679,0
DA:680,0
DA:681,0
DA:683,0
DA:684,0
DA:687,0
DA:688,0
DA:689,0
DA:690,0
DA:691,0
DA:692,0
DA:693,0
DA:694,0
DA:695,0
DA:697,0
DA:698,0
DA:699,0
DA:700,0
DA:702,0
DA:703,0
DA:704,0
DA:705,0
DA:706,0
DA:707,0
DA:708,0
DA:710,1
DA:715,2
DA:716,2
DA:717,2
DA:718,2
DA:720,2
DA:721,0
DA:725,0
DA:726,2
DA:728,2
DA:729,2
DA:731,2
DA:732,1
DA:733,1
DA:735,1
DA:736,0
DA:737,1
DA:739,1
DA:740,4
DA:741,4
DA:742,0
DA:743,4
DA:744,4
DA:745,1
DA:746,1
DA:747,1
DA:749,0
DA:756,1
DA:757,1
DA:758,1
DA:759,1
DA:760,0
DA:762,1
DA:765,1
DA:766,1
DA:767,1
DA:768,1
DA:769,1
DA:770,1
DA:771,1
DA:772,1
DA:773,1
DA:775,1
DA:777,1
DA:778,1
DA:779,1
DA:780,1
DA:781,1
DA:782,1
DA:783,1
DA:784,1
DA:785,1
DA:786,1
DA:787,1
DA:789,1
DA:791,1
DA:792,1
DA:793,1
DA:794,1
DA:796,1
DA:797,1
DA:798,1
DA:799,1
DA:800,1
DA:802,1
DA:803,1
DA:804,1
DA:805,1
DA:806,1
DA:809,1
DA:810,1
DA:811,1
DA:812,1
DA:814,1
DA:815,1
DA:817,0
DA:820,1
DA:822,1
DA:823,1
DA:824,1
DA:825,1
DA:826,1
DA:827,1
DA:828,1
DA:829,1
DA:830,0
DA:832,1
DA:833,1
DA:834,1
DA:835,1
DA:836,1
DA:837,1
DA:838,1
DA:839,1
DA:840,1
DA:841,1
DA:842,1
DA:843,1
DA:845,1
DA:846,1
DA:847,1
DA:848,1
DA:849,1
DA:850,1
DA:851,1
DA:852,1
DA:853,1
DA:854,1
DA:858,1
DA:861,1
DA:862,1
DA:864,0
DA:867,1
DA:872,1
DA:873,1
DA:874,1
DA:875,1
DA:876,1
DA:877,1
DA:878,1
DA:880,1
DA:881,2
DA:884,0
DA:885,0
DA:886,0
DA:887,0
DA:888,0
DA:889,0
DA:890,0
DA:891,0
DA:892,0
DA:893,0
DA:898,0
DA:899,0
DA:900,0
DA:901,0
DA:902,0
DA:903,0
DA:904,0
DA:907,0
DA:909,1
DA:910,1
DA:911,1
DA:912,1
DA:913,4
DA:914,1
DA:915,1
DA:916,1
DA:917,1
DA:918,1
DA:919,1
DA:921,0
DA:923,0
DA:926,0
DA:927,1
DA:928,1
DA:930,0
DA:933,1
DA:934,1
DA:936,2
DA:937,2
DA:938,2
DA:939,2
DA:940,8
DA:941,8
DA:942,2
DA:943,2
DA:944,2
DA:945,6
DA:946,1
DA:947,5
DA:948,1
DA:949,1
DA:950,4
DA:951,2
DA:952,2
DA:953,2
DA:955,2
DA:956,2
DA:958,8
DA:960,2
DA:961,2
DA:965,190
DA:966,190
DA:967,190
DA:968,190
DA:970,18
DA:971,18
DA:972,18
DA:973,18
DA:974,18
DA:975,18
DA:976,0
DA:977,18
DA:978,18
DA:979,18
DA:987,18
DA:988,18
DA:989,18
DA:990,18
DA:991,18
DA:992,18
DA:993,18
DA:994,18
DA:995,0
DA:1002,0
DA:1003,18
DA:1004,18
DA:1005,18
DA:1007,2
DA:1008,2
DA:1009,2
DA:1010,2
DA:1011,2
DA:1012,2
DA:1013,2
DA:1014,2
DA:1015,2
DA:1016,2
DA:1018,185
DA:1019,185
DA:1020,185
DA:1023,190
DA:1024,190
DA:1025,190
DA:1026,190
DA:1027,190
DA:1028,190
DA:1029,190
DA:1030,190
DA:1031,4
DA:1032,4
DA:1033,4
DA:1034,4
DA:1035,0
DA:1036,186
DA:1037,190
DA:1038,190
DA:1046,190
DA:1047,190
DA:1048,190
DA:1049,190
DA:1050,190
DA:1051,190
DA:1052,190
DA:1053,190
DA:1054,190
DA:1055,190
DA:1057,190
DA:1058,0
DA:1065,0
DA:1066,0
DA:1067,190
DA:1069,81
DA:1070,81
DA:1071,81
DA:1072,81
DA:1073,81
DA:1074,81
DA:1075,81
DA:1076,81
DA:1077,81
DA:1078,81
DA:1079,81
DA:1085,0
DA:1086,0
DA:1087,0
DA:1088,0
DA:1089,0
DA:1090,0
DA:1091,0
DA:1092,0
DA:1093,81
DA:1095,16
DA:1096,16
DA:1097,16
DA:1098,16
DA:1099,16
DA:1100,16
DA:1101,16
DA:1102,16
DA:1103,16
DA:1104,16
DA:1105,16
DA:1106,16
DA:1107,16
DA:1108,16
DA:1109,16
DA:1110,16
DA:1111,16
DA:1113,95
DA:1114,95
DA:1115,95
DA:1127,16
DA:1128,16
DA:1129,16
DA:1130,16
DA:1131,16
DA:1132,16
DA:1133,16
DA:1134,16
DA:1135,16
DA:1138,1
DA:1139,1
DA:1140,1
DA:1141,1
DA:1142,1
DA:1143,1
DA:1144,1
DA:1145,1
DA:1146,1
DA:1147,3
DA:1148,1
DA:1151,1
DA:1152,1
DA:1153,1
DA:1154,1
DA:1155,1
DA:1156,1
DA:1157,1
DA:1158,1
DA:1159,1
DA:1160,1
DA:1161,1
DA:1162,1
DA:1163,1
DA:1164,1
DA:1167,1
DA:1169,1
DA:1170,1
DA:1171,1
DA:1172,1
DA:1175,1
DA:1176,1
DA:1177,1
DA:1178,1
DA:1179,1
DA:1180,1
DA:1181,1
DA:1184,1
DA:1185,1
DA:1186,1
DA:1187,1
DA:1188,1
DA:1189,1
DA:1190,1
DA:1191,1
DA:1192,1
DA:1193,1
DA:1194,1
DA:1195,1
DA:1196,1
DA:1198,1
DA:1199,1
DA:1200,2
DA:1201,2
DA:1202,1
DA:1203,1
DA:1204,2
DA:1205,1
DA:1208,1
DA:1209,1
DA:1210,1
DA:1211,1
DA:1212,1
DA:1213,1
DA:1214,1
DA:1215,1
DA:1216,1
DA:1217,1
DA:1218,1
DA:1219,1
DA:1220,1
DA:1221,1
DA:1222,1
DA:1223,1
DA:1224,1
DA:1225,1
DA:1226,1
DA:1227,1
DA:1228,1
DA:1229,1
DA:1230,1
DA:1231,1
DA:1232,1
DA:1233,1
DA:1234,1
DA:1235,1
DA:1236,1
DA:1237,1
DA:1238,2
DA:1239,1
DA:1242,1
DA:1243,1
DA:1244,1
DA:1245,1
DA:1246,1
DA:1247,1
DA:1248,1
DA:1249,1
DA:1250,1
DA:1251,1
DA:1252,1
DA:1253,1
DA:1254,1
DA:1255,1
DA:1256,1
DA:1257,1
DA:1258,1
DA:1259,1
DA:1260,1
DA:1261,1
DA:1262,1
DA:1263,1
DA:1264,1
DA:1265,1
DA:1266,1
DA:1267,1
DA:1268,1
DA:1269,1
DA:1272,1
DA:1274,1
DA:1275,1
DA:1276,1
DA:1277,1
DA:1278,1
DA:1279,1
DA:1280,1
DA:1281,1
DA:1282,1
DA:1283,1
DA:1284,1
DA:1285,1
DA:1286,1
DA:1287,1
DA:1288,1
DA:1289,1
DA:1290,1
DA:1291,1
DA:1292,1
DA:1295,1
DA:1296,1
DA:1297,1
DA:1300,1
DA:1301,1
DA:1302,1
DA:1303,1
DA:1304,1
DA:1305,1
DA:1306,1
DA:1307,1
DA:1308,1
DA:1309,1
DA:1310,1
DA:1311,1
DA:1312,1
DA:1313,1
DA:1314,1
DA:1317,1
DA:1318,1
DA:1319,1
DA:1320,1
DA:1321,1
DA:1322,1
DA:1323,1
DA:1324,1
DA:1325,1
DA:1326,1
DA:1327,1
DA:1328,1
DA:1329,1
DA:1331,1
DA:1332,1
DA:1333,1
DA:1334,1
DA:1335,2
DA:1336,1
DA:1337,0
DA:1338,1
DA:1339,1
DA:1340,1
DA:1341,1
DA:1344,1
DA:1345,1
DA:1346,1
DA:1347,1
DA:1348,1
DA:1349,1
DA:1351,1
DA:1352,1
DA:1353,1
DA:1354,1
DA:1355,1
DA:1356,1
DA:1357,1
DA:1358,1
DA:1359,1
DA:1360,1
DA:1361,1
DA:1363,1
DA:1364,1
DA:1365,1
DA:1366,1
DA:1367,1
DA:1368,1
DA:1369,1
DA:1370,1
DA:1371,1
DA:1373,1
DA:1374,1
DA:1375,1
DA:1377,1
DA:1378,1
DA:1379,1
DA:1380,1
DA:1381,1
DA:1382,1
DA:1383,4
DA:1384,1
DA:1385,1
DA:1386,1
DA:1387,1
DA:1388,1
DA:1389,1
DA:1390,1
DA:1391,1
DA:1392,1
DA:1395,1
DA:1396,1
DA:1397,1
DA:1398,1
DA:1399,1
DA:1400,1
DA:1401,1
DA:1402,1
DA:1403,1
DA:1404,1
DA:1405,1
DA:1406,1
DA:1407,1
DA:1408,1
DA:1409,1
DA:1410,1
DA:1411,1
DA:1412,1
DA:1413,1
DA:1414,1
DA:1415,1
DA:1416,1
DA:1417,1
DA:1418,1
DA:1419,1
DA:1420,1
DA:1421,1
DA:1422,1
DA:1423,1
DA:1424,1
DA:1425,1
DA:1426,1
DA:1427,1
DA:1428,1
DA:1429,1
DA:1430,1
DA:1431,1
DA:1433,1
DA:1434,1
DA:1435,1
DA:1436,1
DA:1437,1
DA:1438,1
DA:1439,1
DA:1440,1
DA:1441,1
DA:1442,1
DA:1443,1
DA:1446,1
DA:1447,1
DA:1448,1
DA:1449,1
DA:1450,1
DA:1451,1
DA:1452,1
DA:1454,1
DA:1455,1
DA:1456,1
DA:1457,1
DA:1458,1
DA:1459,1
DA:1460,1
DA:1461,1
DA:1462,1
DA:1463,1
DA:1464,1
DA:1466,1
DA:1467,1
DA:1468,1
DA:1470,1
DA:1471,1
DA:1472,1
DA:1473,1
DA:1474,1
DA:1475,1
DA:1476,1
DA:1477,1
DA:1478,1
DA:1479,1
DA:1480,1
DA:1481,1
DA:1483,1
DA:1485,1
DA:1486,1
DA:1487,1
DA:1488,1
DA:1489,1
DA:1490,1
DA:1491,4
DA:1492,1
DA:1493,1
DA:1494,1
DA:1495,3
DA:1498,1
DA:1499,3
DA:1500,3
DA:1501,3
DA:1502,1
DA:1503,1
DA:1504,1
DA:1505,1
DA:1506,1
DA:1507,1
DA:1508,1
DA:1509,1
DA:1510,1
DA:1511,1
DA:1512,1
DA:1513,1
DA:1514,1
DA:1517,1
DA:1518,1
DA:1519,1
DA:1520,1
DA:1521,1
DA:1522,1
DA:1523,1
DA:1525,1
DA:1526,1
DA:1527,1
DA:1528,1
DA:1529,1
DA:1530,1
DA:1531,1
DA:1532,1
DA:1533,1
DA:1534,1
DA:1535,1
DA:1537,1
DA:1538,1
DA:1539,1
DA:1541,1
DA:1542,1
DA:1543,1
DA:1544,1
DA:1545,1
DA:1546,1
DA:1547,1
DA:1548,1
DA:1549,1
DA:1550,1
DA:1551,1
DA:1552,1
DA:1554,1
DA:1556,1
DA:1557,1
DA:1558,1
DA:1559,1
DA:1560,1
DA:1561,1
DA:1562,1
DA:1563,1
DA:1564,4
DA:1565,3
DA:1566,1
DA:1567,1
DA:1568,1
DA:1569,1
DA:1570,1
DA:1571,1
DA:1573,1
DA:1574,1
DA:1575,1
DA:1576,1
DA:1577,1
DA:1578,1
DA:1579,1
DA:1580,1
DA:1584,1
DA:1585,1
DA:1586,3
DA:1587,1
DA:1588,1
DA:1589,1
DA:1593,2
DA:1594,2
DA:1595,2
DA:1596,1
DA:1597,1
DA:1598,1
DA:1599,1
DA:1600,1
DA:1601,1
DA:1602,1
DA:1603,1
DA:1604,1
DA:1605,1
DA:1606,1
DA:1609,1
DA:1610,1
DA:1611,1
DA:1612,1
DA:1613,1
DA:1614,1
DA:1615,1
DA:1617,1
DA:1618,1
DA:1619,1
DA:1620,1
DA:1621,1
DA:1622,1
DA:1623,1
DA:1624,1
DA:1625,1
DA:1626,1
DA:1627,1
DA:1628,1
DA:1629,1
DA:1630,1
DA:1632,1
DA:1633,1
DA:1634,1
DA:1635,1
DA:1636,1
DA:1637,1
DA:1638,1
DA:1639,1
DA:1640,1
DA:1641,1
DA:1642,1
DA:1643,1
DA:1644,1
DA:1645,1
DA:1646,1
DA:1647,1
DA:1648,1
DA:1650,1
DA:1652,1
DA:1653,1
DA:1654,1
DA:1655,1
DA:1656,1
DA:1657,1
DA:1658,1
DA:1659,1
DA:1660,5
DA:1661,1
DA:1662,1
DA:1663,1
DA:1664,1
DA:1665,1
DA:1666,1
DA:1667,1
DA:1668,1
DA:1669,1
DA:1670,1
DA:1671,1
DA:1672,1
DA:1673,1
DA:1676,1
DA:1677,1
DA:1678,1
DA:1679,1
DA:1681,1
DA:1682,1
DA:1683,1
DA:1684,1
DA:1685,1
DA:1686,1
DA:1687,1
DA:1688,1
DA:1689,1
DA:1690,1
DA:1691,1
DA:1692,1
DA:1693,1
DA:1694,1
DA:1697,1
DA:1698,1
DA:1699,1
DA:1700,1
DA:1701,1
DA:1702,1
DA:1703,1
DA:1704,1
DA:1705,1
DA:1707,1
DA:1708,1
DA:1709,1
DA:1710,1
DA:1711,1
DA:1712,1
DA:1713,1
DA:1714,1
DA:1715,1
DA:1717,1
DA:1718,1
DA:1719,1
DA:1720,1
DA:1721,1
DA:1722,1
DA:1723,1
DA:1726,1
DA:1730,1
DA:1731,1
DA:1732,1
DA:1733,1
DA:1734,1
DA:1735,1
DA:1736,1
DA:1737,1
DA:1738,1
DA:1739,1
DA:1740,1
DA:1741,1
DA:1742,1
DA:1743,1
DA:1744,1
DA:1745,1
DA:1746,1
DA:1747,1
DA:1749,1
DA:1750,1
DA:1751,1
DA:1752,1
DA:1753,1
DA:1754,1
DA:1755,1
DA:1756,1
DA:1757,1
DA:1758,1
DA:1759,1
DA:1760,1
DA:1762,1
DA:1763,1
DA:1764,1
DA:1767,1
DA:1771,1
DA:1772,1
DA:1773,1
DA:1774,1
DA:1776,1
DA:1777,1
DA:1778,1
DA:1779,1
DA:1780,1
DA:1781,1
DA:1782,1
DA:1783,1
DA:1784,1
DA:1785,1
DA:1786,1
DA:1788,1
DA:1789,1
DA:1790,1
BRF:0
BRH:0
LF:1483
LH:1312
end_of_record
SF:G:\orgin_claude_code\claude-code-main\deepseek_novel_agent\crates\novel-core\src\types.rs
FN:183,_RNvMNtCskOvt1kg1spG_10novel_core5typesNtB2_14TerminalReason10is_aborted
FN:183,_RNvMNtCsgAl8xIys83E_10novel_core5typesNtB2_14TerminalReason10is_aborted
FNDA:0,_RNvMNtCskOvt1kg1spG_10novel_core5typesNtB2_14TerminalReason10is_aborted
FNDA:4,_RNvMNtCsgAl8xIys83E_10novel_core5typesNtB2_14TerminalReason10is_aborted
FNF:1
FNH:1
DA:183,4
DA:184,4
DA:185,4
BRF:0
BRH:0
LF:3
LH:3
end_of_record
SF:G:\orgin_claude_code\claude-code-main\deepseek_novel_agent\crates\novel-deepseek\src\cache.rs
FN:24,_RNvMNtCs6KM4JgF65Wk_14novel_deepseek5cacheNtB2_12CacheTracker5stats
FN:17,_RNvMNtCs6KM4JgF65Wk_14novel_deepseek5cacheNtB2_12CacheTracker6record
FN:28,_RNvMNtCs6KM4JgF65Wk_14novel_deepseek5cacheNtB2_12CacheTracker8hit_rate
FN:43,_RNvNtNtCslaEqcgAeMjZ_14novel_deepseek5cache5testss_19record_and_hit_rate
FN:24,_RNvMNtCslaEqcgAeMjZ_14novel_deepseek5cacheNtB2_12CacheTracker5stats
FN:17,_RNvMNtCslaEqcgAeMjZ_14novel_deepseek5cacheNtB2_12CacheTracker6record
FN:28,_RNvMNtCslaEqcgAeMjZ_14novel_deepseek5cacheNtB2_12CacheTracker8hit_rate
FNDA:0,_RNvMNtCs6KM4JgF65Wk_14novel_deepseek5cacheNtB2_12CacheTracker5stats
FNDA:82,_RNvMNtCs6KM4JgF65Wk_14novel_deepseek5cacheNtB2_12CacheTracker6record
FNDA:0,_RNvMNtCs6KM4JgF65Wk_14novel_deepseek5cacheNtB2_12CacheTracker8hit_rate
FNDA:1,_RNvNtNtCslaEqcgAeMjZ_14novel_deepseek5cache5testss_19record_and_hit_rate
FNDA:1,_RNvMNtCslaEqcgAeMjZ_14novel_deepseek5cacheNtB2_12CacheTracker5stats
FNDA:2,_RNvMNtCslaEqcgAeMjZ_14novel_deepseek5cacheNtB2_12CacheTracker6record
FNDA:1,_RNvMNtCslaEqcgAeMjZ_14novel_deepseek5cacheNtB2_12CacheTracker8hit_rate
FNF:4
FNH:4
DA:17,84
DA:18,84
DA:19,84
DA:20,84
DA:21,84
DA:22,84
DA:24,1
DA:25,1
DA:26,1
DA:28,1
DA:29,1
DA:30,1
DA:31,0
DA:33,1
DA:35,1
DA:43,1
DA:44,1
DA:45,1
DA:46,1
DA:47,1
DA:48,1
BRF:0
BRH:0
LF:21
LH:20
end_of_record
SF:G:\orgin_claude_code\claude-code-main\deepseek_novel_agent\crates\novel-deepseek\src\client.rs
FN:106,_RINvMNtCs6KM4JgF65Wk_14novel_deepseek6clientNtB3_18StreamAccumulators11apply_chunkFNtNtB5_5types11LlmToolCallEuNCNCNvMs_B3_NtB3_10ChatClient19complete_via_stream00ECskOvt1kg1spG_10novel_core
FN:106,_RINvMNtCs6KM4JgF65Wk_14novel_deepseek6clientNtB3_18StreamAccumulators11apply_chunkNCNCNvNtCskOvt1kg1spG_10novel_core17subagent_llm_turn29fetch_subagent_llm_completion00NCB1k_s_0EB1q_
FN:263,_RINvMs_NtCs6KM4JgF65Wk_14novel_deepseek6clientNtB5_10ChatClient13create_streamFNtNtB7_5types11LlmToolCallEuNCNCNvB2_19complete_via_stream00ECskOvt1kg1spG_10novel_core
FN:263,_RINvMs_NtCs6KM4JgF65Wk_14novel_deepseek6clientNtB5_10ChatClient13create_streamNCNCNvNtCskOvt1kg1spG_10novel_core17subagent_llm_turn29fetch_subagent_llm_completion00NCB1g_s_0EB1m_
FN:413,_RINvMs_NtCs6KM4JgF65Wk_14novel_deepseek6clientNtB5_10ChatClient19try_emit_ready_toolFNtNtB7_5types11LlmToolCallEuECskOvt1kg1spG_10novel_core
FN:413,_RINvMs_NtCs6KM4JgF65Wk_14novel_deepseek6clientNtB5_10ChatClient19try_emit_ready_toolNCNCNvNtCskOvt1kg1spG_10novel_core17subagent_llm_turn29fetch_subagent_llm_completion00EB1s_
FN:154,_RNCINvMNtCs6KM4JgF65Wk_14novel_deepseek6clientNtB5_18StreamAccumulators11apply_chunkFNtNtB7_5types11LlmToolCallEuNCNCNvMs_B5_NtB5_10ChatClient19complete_via_stream00Es_0CskOvt1kg1spG_10novel_core
FN:154,_RNCINvMNtCs6KM4JgF65Wk_14novel_deepseek6clientNtB5_18StreamAccumulators11apply_chunkNCNCNvNtCskOvt1kg1spG_10novel_core17subagent_llm_turn29fetch_subagent_llm_completion00NCB1m_s_0Es_0B1s_
FN:275,_RNCINvMs_NtCs6KM4JgF65Wk_14novel_deepseek6clientNtB7_10ChatClient13create_streamFNtNtB9_5types11LlmToolCallEuNCNCNvB4_19complete_via_stream00E0CskOvt1kg1spG_10novel_core
FN:275,_RNCINvMs_NtCs6KM4JgF65Wk_14novel_deepseek6clientNtB7_10ChatClient13create_streamNCNCNvNtCskOvt1kg1spG_10novel_core17subagent_llm_turn29fetch_subagent_llm_completion00NCB1i_s_0E0B1o_
FN:430,_RNCINvMs_NtCs6KM4JgF65Wk_14novel_deepseek6clientNtB7_10ChatClient19try_emit_ready_toolFNtNtB9_5types11LlmToolCallEuE0CskOvt1kg1spG_10novel_core
FN:430,_RNCINvMs_NtCs6KM4JgF65Wk_14novel_deepseek6clientNtB7_10ChatClient19try_emit_ready_toolNCNCNvNtCskOvt1kg1spG_10novel_core17subagent_llm_turn29fetch_subagent_llm_completion00E0B1u_
FN:303,_RNCNCINvMs_NtCs6KM4JgF65Wk_14novel_deepseek6clientNtB9_10ChatClient13create_streamFNtNtBb_5types11LlmToolCallEuNCNCNvB6_19complete_via_stream00E00CskOvt1kg1spG_10novel_core
FN:349,_RNCNCINvMs_NtCs6KM4JgF65Wk_14novel_deepseek6clientNtB9_10ChatClient13create_streamFNtNtBb_5types11LlmToolCallEuNCNCNvB6_19complete_via_stream00E0s0_0CskOvt1kg1spG_10novel_core
FN:332,_RNCNCINvMs_NtCs6KM4JgF65Wk_14novel_deepseek6clientNtB9_10ChatClient13create_streamFNtNtBb_5types11LlmToolCallEuNCNCNvB6_19complete_via_stream00E0s_0CskOvt1kg1spG_10novel_core
FN:303,_RNCNCINvMs_NtCs6KM4JgF65Wk_14novel_deepseek6clientNtB9_10ChatClient13create_streamNCNCNvNtCskOvt1kg1spG_10novel_core17subagent_llm_turn29fetch_subagent_llm_completion00NCB1k_s_0E00B1q_
FN:349,_RNCNCINvMs_NtCs6KM4JgF65Wk_14novel_deepseek6clientNtB9_10ChatClient13create_streamNCNCNvNtCskOvt1kg1spG_10novel_core17subagent_llm_turn29fetch_subagent_llm_completion00NCB1k_s_0E0s0_0B1q_
FN:332,_RNCNCINvMs_NtCs6KM4JgF65Wk_14novel_deepseek6clientNtB9_10ChatClient13create_streamNCNCNvNtCskOvt1kg1spG_10novel_core17subagent_llm_turn29fetch_subagent_llm_completion00NCB1k_s_0E0s_0B1q_
FN:599,_RNCNCNvMs_NtCs6KM4JgF65Wk_14novel_deepseek6clientNtB8_10ChatClient19complete_via_stream00CskOvt1kg1spG_10novel_core
FN:511,_RNCNvMs_NtCs6KM4JgF65Wk_14novel_deepseek6clientNtB6_10ChatClient11wait_cancel0CskOvt1kg1spG_10novel_core
FN:593,_RNCNvMs_NtCs6KM4JgF65Wk_14novel_deepseek6clientNtB6_10ChatClient19complete_via_stream0CskOvt1kg1spG_10novel_core
FN:239,_RNCNvMs_NtCs6KM4JgF65Wk_14novel_deepseek6clientNtB6_10ChatClient20measure_prompt_usage0CskOvt1kg1spG_10novel_core
FN:654,_RNCNCNvMs_NtCs6KM4JgF65Wk_14novel_deepseek6clientNtB8_10ChatClient10web_search00CsdRyXZbE8rru_11novel_tools
FN:673,_RNCNCNvMs_NtCs6KM4JgF65Wk_14novel_deepseek6clientNtB8_10ChatClient10web_search0s0_0CsdRyXZbE8rru_11novel_tools
FN:676,_RNCNCNvMs_NtCs6KM4JgF65Wk_14novel_deepseek6clientNtB8_10ChatClient10web_search0s1_0CsdRyXZbE8rru_11novel_tools
FN:678,_RNCNCNvMs_NtCs6KM4JgF65Wk_14novel_deepseek6clientNtB8_10ChatClient10web_search0s2_0CsdRyXZbE8rru_11novel_tools
FN:679,_RNCNCNvMs_NtCs6KM4JgF65Wk_14novel_deepseek6clientNtB8_10ChatClient10web_search0s3_0CsdRyXZbE8rru_11novel_tools
FN:683,_RNCNCNvMs_NtCs6KM4JgF65Wk_14novel_deepseek6clientNtB8_10ChatClient10web_search0s4_0CsdRyXZbE8rru_11novel_tools
FN:688,_RNCNCNvMs_NtCs6KM4JgF65Wk_14novel_deepseek6clientNtB8_10ChatClient10web_search0s5_0CsdRyXZbE8rru_11novel_tools
FN:693,_RNCNCNvMs_NtCs6KM4JgF65Wk_14novel_deepseek6clientNtB8_10ChatClient10web_search0s6_0CsdRyXZbE8rru_11novel_tools
FN:663,_RNCNCNvMs_NtCs6KM4JgF65Wk_14novel_deepseek6clientNtB8_10ChatClient10web_search0s_0CsdRyXZbE8rru_11novel_tools
FN:633,_RNCNvMs_NtCs6KM4JgF65Wk_14novel_deepseek6clientNtB6_10ChatClient10web_search0CsdRyXZbE8rru_11novel_tools
FN:96,_RNvMNtCs6KM4JgF65Wk_14novel_deepseek6clientNtB2_18StreamAccumulators3new
FN:629,_RNvMs_NtCs6KM4JgF65Wk_14novel_deepseek6clientNtB4_10ChatClient10web_search
FN:254,_RNvMs_NtCs6KM4JgF65Wk_14novel_deepseek6clientNtB4_10ChatClient11build_tools
FN:511,_RNvMs_NtCs6KM4JgF65Wk_14novel_deepseek6clientNtB4_10ChatClient11wait_cancel
FN:208,_RNvMs_NtCs6KM4JgF65Wk_14novel_deepseek6clientNtB4_10ChatClient13cache_tracker
FN:443,_RNvMs_NtCs6KM4JgF65Wk_14novel_deepseek6clientNtB4_10ChatClient13drain_pending
FN:487,_RNvMs_NtCs6KM4JgF65Wk_14novel_deepseek6clientNtB4_10ChatClient15make_completion
FN:610,_RNvMs_NtCs6KM4JgF65Wk_14novel_deepseek6clientNtB4_10ChatClient16offline_complete
FN:212,_RNvMs_NtCs6KM4JgF65Wk_14novel_deepseek6clientNtB4_10ChatClient17cache_tracker_mut
FN:250,_RNvMs_NtCs6KM4JgF65Wk_14novel_deepseek6clientNtB4_10ChatClient18to_openai_messages
FN:587,_RNvMs_NtCs6KM4JgF65Wk_14novel_deepseek6clientNtB4_10ChatClient19complete_via_stream
FN:222,_RNvMs_NtCs6KM4JgF65Wk_14novel_deepseek6clientNtB4_10ChatClient19from_api_key_or_env
FN:234,_RNvMs_NtCs6KM4JgF65Wk_14novel_deepseek6clientNtB4_10ChatClient20measure_prompt_usage
FN:539,_RNvMs_NtCs6KM4JgF65Wk_14novel_deepseek6clientNtB4_10ChatClient22drain_usage_background
FN:457,_RNvMs_NtCs6KM4JgF65Wk_14novel_deepseek6clientNtB4_10ChatClient24cancelled_stream_outcome
FN:197,_RNvMs_NtCs6KM4JgF65Wk_14novel_deepseek6clientNtB4_10ChatClient8deepseek
FN:216,_RNvMs_NtCs6KM4JgF65Wk_14novel_deepseek6clientNtB4_10ChatClient8from_env
FN:714,_RNvNtCs6KM4JgF65Wk_14novel_deepseek6client11msg_to_json
FN:741,_RNvNtCs6KM4JgF65Wk_14novel_deepseek6client12tool_to_json
FN:571,_RNCNCNCNvMs_NtCs6KM4JgF65Wk_14novel_deepseek6clientNtBa_10ChatClient22drain_usage_background000Bc_
FN:574,_RNCNCNCNvMs_NtCs6KM4JgF65Wk_14novel_deepseek6clientNtBa_10ChatClient22drain_usage_background00s0_0Bc_
FN:577,_RNCNCNCNvMs_NtCs6KM4JgF65Wk_14novel_deepseek6clientNtBa_10ChatClient22drain_usage_background00s1_0Bc_
FN:572,_RNCNCNCNvMs_NtCs6KM4JgF65Wk_14novel_deepseek6clientNtBa_10ChatClient22drain_usage_background00s_0Bc_
FN:558,_RNCNCNvMs_NtCs6KM4JgF65Wk_14novel_deepseek6clientNtB8_10ChatClient22drain_usage_background00Ba_
FN:257,_RNCNvMs_NtCs6KM4JgF65Wk_14novel_deepseek6clientNtB6_10ChatClient11build_tools0B8_
FN:614,_RNCNvMs_NtCs6KM4JgF65Wk_14novel_deepseek6clientNtB6_10ChatClient16offline_complete0B8_
FN:615,_RNCNvMs_NtCs6KM4JgF65Wk_14novel_deepseek6clientNtB6_10ChatClient16offline_completes_0B8_
FN:229,_RNCNvMs_NtCs6KM4JgF65Wk_14novel_deepseek6clientNtB6_10ChatClient19from_api_key_or_env0B8_
FN:230,_RNCNvMs_NtCs6KM4JgF65Wk_14novel_deepseek6clientNtB6_10ChatClient19from_api_key_or_envs_0B8_
FN:546,_RNCNvMs_NtCs6KM4JgF65Wk_14novel_deepseek6clientNtB6_10ChatClient22drain_usage_background0B8_
FN:476,_RNCNvMs_NtCs6KM4JgF65Wk_14novel_deepseek6clientNtB6_10ChatClient24cancelled_stream_outcome0B8_
FN:729,_RNCNvNtCs6KM4JgF65Wk_14novel_deepseek6client11msg_to_json0B5_
FN:106,_RINvMNtCs6KM4JgF65Wk_14novel_deepseek6clientNtB3_18StreamAccumulators11apply_chunkFNtNtB5_5types11LlmToolCallEuNCNCNvCsiO9YwF8NZLc_12connectivitys_46drain_with_thinking_returns_three_class_tokens0s_0EB1R_
FN:106,_RINvMNtCs6KM4JgF65Wk_14novel_deepseek6clientNtB3_18StreamAccumulators11apply_chunkFNtNtB5_5types11LlmToolCallEuNCNCNvCsiO9YwF8NZLc_12connectivitys_48drain_after_interrupt_returns_three_class_tokens0s_0EB1R_
FN:263,_RINvMs_NtCs6KM4JgF65Wk_14novel_deepseek6clientNtB5_10ChatClient13create_streamFNtNtB7_5types11LlmToolCallEuNCNCNvCsiO9YwF8NZLc_12connectivitys_46drain_with_thinking_returns_three_class_tokens0s_0EB1N_
FN:263,_RINvMs_NtCs6KM4JgF65Wk_14novel_deepseek6clientNtB5_10ChatClient13create_streamFNtNtB7_5types11LlmToolCallEuNCNCNvCsiO9YwF8NZLc_12connectivitys_48drain_after_interrupt_returns_three_class_tokens0s_0EB1N_
FN:413,_RINvMs_NtCs6KM4JgF65Wk_14novel_deepseek6clientNtB5_10ChatClient19try_emit_ready_toolFNtNtB7_5types11LlmToolCallEuECsiO9YwF8NZLc_12connectivity
FN:154,_RNCINvMNtCs6KM4JgF65Wk_14novel_deepseek6clientNtB5_18StreamAccumulators11apply_chunkFNtNtB7_5types11LlmToolCallEuNCNCNvCsiO9YwF8NZLc_12connectivitys_46drain_with_thinking_returns_three_class_tokens0s_0Es_0B1T_
FN:154,_RNCINvMNtCs6KM4JgF65Wk_14novel_deepseek6clientNtB5_18StreamAccumulators11apply_chunkFNtNtB7_5types11LlmToolCallEuNCNCNvCsiO9YwF8NZLc_12connectivitys_48drain_after_interrupt_returns_three_class_tokens0s_0Es_0B1T_
FN:275,_RNCINvMs_NtCs6KM4JgF65Wk_14novel_deepseek6clientNtB7_10ChatClient13create_streamFNtNtB9_5types11LlmToolCallEuNCNCNvCsiO9YwF8NZLc_12connectivitys_46drain_with_thinking_returns_three_class_tokens0s_0E0B1P_
FN:275,_RNCINvMs_NtCs6KM4JgF65Wk_14novel_deepseek6clientNtB7_10ChatClient13create_streamFNtNtB9_5types11LlmToolCallEuNCNCNvCsiO9YwF8NZLc_12connectivitys_48drain_after_interrupt_returns_three_class_tokens0s_0E0B1P_
FN:430,_RNCINvMs_NtCs6KM4JgF65Wk_14novel_deepseek6clientNtB7_10ChatClient19try_emit_ready_toolFNtNtB9_5types11LlmToolCallEuE0CsiO9YwF8NZLc_12connectivity
FN:303,_RNCNCINvMs_NtCs6KM4JgF65Wk_14novel_deepseek6clientNtB9_10ChatClient13create_streamFNtNtBb_5types11LlmToolCallEuNCNCNvCsiO9YwF8NZLc_12connectivitys_46drain_with_thinking_returns_three_class_tokens0s_0E00B1R_
FN:349,_RNCNCINvMs_NtCs6KM4JgF65Wk_14novel_deepseek6clientNtB9_10ChatClient13create_streamFNtNtBb_5types11LlmToolCallEuNCNCNvCsiO9YwF8NZLc_12connectivitys_46drain_with_thinking_returns_three_class_tokens0s_0E0s0_0B1R_
FN:332,_RNCNCINvMs_NtCs6KM4JgF65Wk_14novel_deepseek6clientNtB9_10ChatClient13create_streamFNtNtBb_5types11LlmToolCallEuNCNCNvCsiO9YwF8NZLc_12connectivitys_46drain_with_thinking_returns_three_class_tokens0s_0E0s_0B1R_
FN:303,_RNCNCINvMs_NtCs6KM4JgF65Wk_14novel_deepseek6clientNtB9_10ChatClient13create_streamFNtNtBb_5types11LlmToolCallEuNCNCNvCsiO9YwF8NZLc_12connectivitys_48drain_after_interrupt_returns_three_class_tokens0s_0E00B1R_
FN:349,_RNCNCINvMs_NtCs6KM4JgF65Wk_14novel_deepseek6clientNtB9_10ChatClient13create_streamFNtNtBb_5types11LlmToolCallEuNCNCNvCsiO9YwF8NZLc_12connectivitys_48drain_after_interrupt_returns_three_class_tokens0s_0E0s0_0B1R_
FN:332,_RNCNCINvMs_NtCs6KM4JgF65Wk_14novel_deepseek6clientNtB9_10ChatClient13create_streamFNtNtBb_5types11LlmToolCallEuNCNCNvCsiO9YwF8NZLc_12connectivitys_48drain_after_interrupt_returns_three_class_tokens0s_0E0s_0B1R_
FN:511,_RNCNvMs_NtCs6KM4JgF65Wk_14novel_deepseek6clientNtB6_10ChatClient11wait_cancel0CsiO9YwF8NZLc_12connectivity
FN:106,_RINvMNtCs6KM4JgF65Wk_14novel_deepseek6clientNtB3_18StreamAccumulators11apply_chunkNCNCNvMNtCskOvt1kg1spG_10novel_core15llm_stream_turnNtNtB1r_6engine11AgentEngine24run_live_llm_stream_turn0s_0NCB1k_s0_0ECsja0mJncq2tx_10fork_agent
FN:263,_RINvMs_NtCs6KM4JgF65Wk_14novel_deepseek6clientNtB5_10ChatClient13create_streamNCNCNvMNtCskOvt1kg1spG_10novel_core15llm_stream_turnNtNtB1n_6engine11AgentEngine24run_live_llm_stream_turn0s_0NCB1g_s0_0ECsja0mJncq2tx_10fork_agent
FN:413,_RINvMs_NtCs6KM4JgF65Wk_14novel_deepseek6clientNtB5_10ChatClient19try_emit_ready_toolNCNCNvMNtCskOvt1kg1spG_10novel_core15llm_stream_turnNtNtB1t_6engine11AgentEngine24run_live_llm_stream_turn0s_0ECsja0mJncq2tx_10fork_agent
FN:154,_RNCINvMNtCs6KM4JgF65Wk_14novel_deepseek6clientNtB5_18StreamAccumulators11apply_chunkNCNCNvMNtCskOvt1kg1spG_10novel_core15llm_stream_turnNtNtB1t_6engine11AgentEngine24run_live_llm_stream_turn0s_0NCB1m_s0_0Es_0Csja0mJncq2tx_10fork_agent
FN:275,_RNCINvMs_NtCs6KM4JgF65Wk_14novel_deepseek6clientNtB7_10ChatClient13create_streamNCNCNvMNtCskOvt1kg1spG_10novel_core15llm_stream_turnNtNtB1p_6engine11AgentEngine24run_live_llm_stream_turn0s_0NCB1i_s0_0E0Csja0mJncq2tx_10fork_agent
FN:430,_RNCINvMs_NtCs6KM4JgF65Wk_14novel_deepseek6clientNtB7_10ChatClient19try_emit_ready_toolNCNCNvMNtCskOvt1kg1spG_10novel_core15llm_stream_turnNtNtB1v_6engine11AgentEngine24run_live_llm_stream_turn0s_0E0Csja0mJncq2tx_10fork_agent
FN:303,_RNCNCINvMs_NtCs6KM4JgF65Wk_14novel_deepseek6clientNtB9_10ChatClient13create_streamNCNCNvMNtCskOvt1kg1spG_10novel_core15llm_stream_turnNtNtB1r_6engine11AgentEngine24run_live_llm_stream_turn0s_0NCB1k_s0_0E00Csja0mJncq2tx_10fork_agent
FN:349,_RNCNCINvMs_NtCs6KM4JgF65Wk_14novel_deepseek6clientNtB9_10ChatClient13create_streamNCNCNvMNtCskOvt1kg1spG_10novel_core15llm_stream_turnNtNtB1r_6engine11AgentEngine24run_live_llm_stream_turn0s_0NCB1k_s0_0E0s0_0Csja0mJncq2tx_10fork_agent
FN:332,_RNCNCINvMs_NtCs6KM4JgF65Wk_14novel_deepseek6clientNtB9_10ChatClient13create_streamNCNCNvMNtCskOvt1kg1spG_10novel_core15llm_stream_turnNtNtB1r_6engine11AgentEngine24run_live_llm_stream_turn0s_0NCB1k_s0_0E0s_0Csja0mJncq2tx_10fork_agent
FN:106,_RINvMNtCs6KM4JgF65Wk_14novel_deepseek6clientNtB3_18StreamAccumulators11apply_chunkNCNCNvMNtCskOvt1kg1spG_10novel_core15llm_stream_turnNtNtB1r_6engine11AgentEngine24run_live_llm_stream_turn0s_0NCB1k_s0_0ECs90uylq1XzCH_22live_invoke_skill_turn
FN:263,_RINvMs_NtCs6KM4JgF65Wk_14novel_deepseek6clientNtB5_10ChatClient13create_streamNCNCNvMNtCskOvt1kg1spG_10novel_core15llm_stream_turnNtNtB1n_6engine11AgentEngine24run_live_llm_stream_turn0s_0NCB1g_s0_0ECs90uylq1XzCH_22live_invoke_skill_turn
FN:413,_RINvMs_NtCs6KM4JgF65Wk_14novel_deepseek6clientNtB5_10ChatClient19try_emit_ready_toolNCNCNvMNtCskOvt1kg1spG_10novel_core15llm_stream_turnNtNtB1t_6engine11AgentEngine24run_live_llm_stream_turn0s_0ECs90uylq1XzCH_22live_invoke_skill_turn
FN:154,_RNCINvMNtCs6KM4JgF65Wk_14novel_deepseek6clientNtB5_18StreamAccumulators11apply_chunkNCNCNvMNtCskOvt1kg1spG_10novel_core15llm_stream_turnNtNtB1t_6engine11AgentEngine24run_live_llm_stream_turn0s_0NCB1m_s0_0Es_0Cs90uylq1XzCH_22live_invoke_skill_turn
FN:275,_RNCINvMs_NtCs6KM4JgF65Wk_14novel_deepseek6clientNtB7_10ChatClient13create_streamNCNCNvMNtCskOvt1kg1spG_10novel_core15llm_stream_turnNtNtB1p_6engine11AgentEngine24run_live_llm_stream_turn0s_0NCB1i_s0_0E0Cs90uylq1XzCH_22live_invoke_skill_turn
FN:430,_RNCINvMs_NtCs6KM4JgF65Wk_14novel_deepseek6clientNtB7_10ChatClient19try_emit_ready_toolNCNCNvMNtCskOvt1kg1spG_10novel_core15llm_stream_turnNtNtB1v_6engine11AgentEngine24run_live_llm_stream_turn0s_0E0Cs90uylq1XzCH_22live_invoke_skill_turn
FN:303,_RNCNCINvMs_NtCs6KM4JgF65Wk_14novel_deepseek6clientNtB9_10ChatClient13create_streamNCNCNvMNtCskOvt1kg1spG_10novel_core15llm_stream_turnNtNtB1r_6engine11AgentEngine24run_live_llm_stream_turn0s_0NCB1k_s0_0E00Cs90uylq1XzCH_22live_invoke_skill_turn
FN:349,_RNCNCINvMs_NtCs6KM4JgF65Wk_14novel_deepseek6clientNtB9_10ChatClient13create_streamNCNCNvMNtCskOvt1kg1spG_10novel_core15llm_stream_turnNtNtB1r_6engine11AgentEngine24run_live_llm_stream_turn0s_0NCB1k_s0_0E0s0_0Cs90uylq1XzCH_22live_invoke_skill_turn
FN:332,_RNCNCINvMs_NtCs6KM4JgF65Wk_14novel_deepseek6clientNtB9_10ChatClient13create_streamNCNCNvMNtCskOvt1kg1spG_10novel_core15llm_stream_turnNtNtB1r_6engine11AgentEngine24run_live_llm_stream_turn0s_0NCB1k_s0_0E0s_0Cs90uylq1XzCH_22live_invoke_skill_turn
FN:106,_RINvMNtCs6KM4JgF65Wk_14novel_deepseek6clientNtB3_18StreamAccumulators11apply_chunkNCNCNvMNtCskOvt1kg1spG_10novel_core15llm_stream_turnNtNtB1r_6engine11AgentEngine24run_live_llm_stream_turn0s_0NCB1k_s0_0ECs5ts0mUYpT8u_12novel_server
FN:263,_RINvMs_NtCs6KM4JgF65Wk_14novel_deepseek6clientNtB5_10ChatClient13create_streamNCNCNvMNtCskOvt1kg1spG_10novel_core15llm_stream_turnNtNtB1n_6engine11AgentEngine24run_live_llm_stream_turn0s_0NCB1g_s0_0ECs5ts0mUYpT8u_12novel_server
FN:413,_RINvMs_NtCs6KM4JgF65Wk_14novel_deepseek6clientNtB5_10ChatClient19try_emit_ready_toolNCNCNvMNtCskOvt1kg1spG_10novel_core15llm_stream_turnNtNtB1t_6engine11AgentEngine24run_live_llm_stream_turn0s_0ECs5ts0mUYpT8u_12novel_server
FN:154,_RNCINvMNtCs6KM4JgF65Wk_14novel_deepseek6clientNtB5_18StreamAccumulators11apply_chunkNCNCNvMNtCskOvt1kg1spG_10novel_core15llm_stream_turnNtNtB1t_6engine11AgentEngine24run_live_llm_stream_turn0s_0NCB1m_s0_0Es_0Cs5ts0mUYpT8u_12novel_server
FN:275,_RNCINvMs_NtCs6KM4JgF65Wk_14novel_deepseek6clientNtB7_10ChatClient13create_streamNCNCNvMNtCskOvt1kg1spG_10novel_core15llm_stream_turnNtNtB1p_6engine11AgentEngine24run_live_llm_stream_turn0s_0NCB1i_s0_0E0Cs5ts0mUYpT8u_12novel_server
FN:430,_RNCINvMs_NtCs6KM4JgF65Wk_14novel_deepseek6clientNtB7_10ChatClient19try_emit_ready_toolNCNCNvMNtCskOvt1kg1spG_10novel_core15llm_stream_turnNtNtB1v_6engine11AgentEngine24run_live_llm_stream_turn0s_0E0Cs5ts0mUYpT8u_12novel_server
FN:303,_RNCNCINvMs_NtCs6KM4JgF65Wk_14novel_deepseek6clientNtB9_10ChatClient13create_streamNCNCNvMNtCskOvt1kg1spG_10novel_core15llm_stream_turnNtNtB1r_6engine11AgentEngine24run_live_llm_stream_turn0s_0NCB1k_s0_0E00Cs5ts0mUYpT8u_12novel_server
FN:349,_RNCNCINvMs_NtCs6KM4JgF65Wk_14novel_deepseek6clientNtB9_10ChatClient13create_streamNCNCNvMNtCskOvt1kg1spG_10novel_core15llm_stream_turnNtNtB1r_6engine11AgentEngine24run_live_llm_stream_turn0s_0NCB1k_s0_0E0s0_0Cs5ts0mUYpT8u_12novel_server
FN:332,_RNCNCINvMs_NtCs6KM4JgF65Wk_14novel_deepseek6clientNtB9_10ChatClient13create_streamNCNCNvMNtCskOvt1kg1spG_10novel_core15llm_stream_turnNtNtB1r_6engine11AgentEngine24run_live_llm_stream_turn0s_0NCB1k_s0_0E0s_0Cs5ts0mUYpT8u_12novel_server
FN:106,_RINvMNtCs6KM4JgF65Wk_14novel_deepseek6clientNtB3_18StreamAccumulators11apply_chunkFNtNtB5_5types11LlmToolCallEuNCNCNvMs_B3_NtB3_10ChatClient19complete_via_stream00ECsgAl8xIys83E_10novel_core
FN:106,_RINvMNtCs6KM4JgF65Wk_14novel_deepseek6clientNtB3_18StreamAccumulators11apply_chunkNCNCNvMNtCsgAl8xIys83E_10novel_core15llm_stream_turnNtNtB1r_6engine11AgentEngine24run_live_llm_stream_turn0s_0NCB1k_s0_0EB1r_
FN:106,_RINvMNtCs6KM4JgF65Wk_14novel_deepseek6clientNtB3_18StreamAccumulators11apply_chunkNCNCNvNtCsgAl8xIys83E_10novel_core17subagent_llm_turn29fetch_subagent_llm_completion00NCB1k_s_0EB1q_
FN:263,_RINvMs_NtCs6KM4JgF65Wk_14novel_deepseek6clientNtB5_10ChatClient13create_streamFNtNtB7_5types11LlmToolCallEuNCNCNvB2_19complete_via_stream00ECsgAl8xIys83E_10novel_core
FN:263,_RINvMs_NtCs6KM4JgF65Wk_14novel_deepseek6clientNtB5_10ChatClient13create_streamNCNCNvMNtCsgAl8xIys83E_10novel_core15llm_stream_turnNtNtB1n_6engine11AgentEngine24run_live_llm_stream_turn0s_0NCB1g_s0_0EB1n_
FN:263,_RINvMs_NtCs6KM4JgF65Wk_14novel_deepseek6clientNtB5_10ChatClient13create_streamNCNCNvNtCsgAl8xIys83E_10novel_core17subagent_llm_turn29fetch_subagent_llm_completion00NCB1g_s_0EB1m_
FN:413,_RINvMs_NtCs6KM4JgF65Wk_14novel_deepseek6clientNtB5_10ChatClient19try_emit_ready_toolFNtNtB7_5types11LlmToolCallEuECsgAl8xIys83E_10novel_core
FN:413,_RINvMs_NtCs6KM4JgF65Wk_14novel_deepseek6clientNtB5_10ChatClient19try_emit_ready_toolNCNCNvMNtCsgAl8xIys83E_10novel_core15llm_stream_turnNtNtB1t_6engine11AgentEngine24run_live_llm_stream_turn0s_0EB1t_
FN:413,_RINvMs_NtCs6KM4JgF65Wk_14novel_deepseek6clientNtB5_10ChatClient19try_emit_ready_toolNCNCNvNtCsgAl8xIys83E_10novel_core17subagent_llm_turn29fetch_subagent_llm_completion00EB1s_
FN:154,_RNCINvMNtCs6KM4JgF65Wk_14novel_deepseek6clientNtB5_18StreamAccumulators11apply_chunkFNtNtB7_5types11LlmToolCallEuNCNCNvMs_B5_NtB5_10ChatClient19complete_via_stream00Es_0CsgAl8xIys83E_10novel_core
FN:154,_RNCINvMNtCs6KM4JgF65Wk_14novel_deepseek6clientNtB5_18StreamAccumulators11apply_chunkNCNCNvMNtCsgAl8xIys83E_10novel_core15llm_stream_turnNtNtB1t_6engine11AgentEngine24run_live_llm_stream_turn0s_0NCB1m_s0_0Es_0B1t_
FN:154,_RNCINvMNtCs6KM4JgF65Wk_14novel_deepseek6clientNtB5_18StreamAccumulators11apply_chunkNCNCNvNtCsgAl8xIys83E_10novel_core17subagent_llm_turn29fetch_subagent_llm_completion00NCB1m_s_0Es_0B1s_
FN:275,_RNCINvMs_NtCs6KM4JgF65Wk_14novel_deepseek6clientNtB7_10ChatClient13create_streamFNtNtB9_5types11LlmToolCallEuNCNCNvB4_19complete_via_stream00E0CsgAl8xIys83E_10novel_core
FN:275,_RNCINvMs_NtCs6KM4JgF65Wk_14novel_deepseek6clientNtB7_10ChatClient13create_streamNCNCNvMNtCsgAl8xIys83E_10novel_core15llm_stream_turnNtNtB1p_6engine11AgentEngine24run_live_llm_stream_turn0s_0NCB1i_s0_0E0B1p_
FN:275,_RNCINvMs_NtCs6KM4JgF65Wk_14novel_deepseek6clientNtB7_10ChatClient13create_streamNCNCNvNtCsgAl8xIys83E_10novel_core17subagent_llm_turn29fetch_subagent_llm_completion00NCB1i_s_0E0B1o_
FN:430,_RNCINvMs_NtCs6KM4JgF65Wk_14novel_deepseek6clientNtB7_10ChatClient19try_emit_ready_toolFNtNtB9_5types11LlmToolCallEuE0CsgAl8xIys83E_10novel_core
FN:430,_RNCINvMs_NtCs6KM4JgF65Wk_14novel_deepseek6clientNtB7_10ChatClient19try_emit_ready_toolNCNCNvMNtCsgAl8xIys83E_10novel_core15llm_stream_turnNtNtB1v_6engine11AgentEngine24run_live_llm_stream_turn0s_0E0B1v_
FN:430,_RNCINvMs_NtCs6KM4JgF65Wk_14novel_deepseek6clientNtB7_10ChatClient19try_emit_ready_toolNCNCNvNtCsgAl8xIys83E_10novel_core17subagent_llm_turn29fetch_subagent_llm_completion00E0B1u_
FN:303,_RNCNCINvMs_NtCs6KM4JgF65Wk_14novel_deepseek6clientNtB9_10ChatClient13create_streamFNtNtBb_5types11LlmToolCallEuNCNCNvB6_19complete_via_stream00E00CsgAl8xIys83E_10novel_core
FN:349,_RNCNCINvMs_NtCs6KM4JgF65Wk_14novel_deepseek6clientNtB9_10ChatClient13create_streamFNtNtBb_5types11LlmToolCallEuNCNCNvB6_19complete_via_stream00E0s0_0CsgAl8xIys83E_10novel_core
FN:332,_RNCNCINvMs_NtCs6KM4JgF65Wk_14novel_deepseek6clientNtB9_10ChatClient13create_streamFNtNtBb_5types11LlmToolCallEuNCNCNvB6_19complete_via_stream00E0s_0CsgAl8xIys83E_10novel_core
FN:303,_RNCNCINvMs_NtCs6KM4JgF65Wk_14novel_deepseek6clientNtB9_10ChatClient13create_streamNCNCNvMNtCsgAl8xIys83E_10novel_core15llm_stream_turnNtNtB1r_6engine11AgentEngine24run_live_llm_stream_turn0s_0NCB1k_s0_0E00B1r_
FN:349,_RNCNCINvMs_NtCs6KM4JgF65Wk_14novel_deepseek6clientNtB9_10ChatClient13create_streamNCNCNvMNtCsgAl8xIys83E_10novel_core15llm_stream_turnNtNtB1r_6engine11AgentEngine24run_live_llm_stream_turn0s_0NCB1k_s0_0E0s0_0B1r_
FN:332,_RNCNCINvMs_NtCs6KM4JgF65Wk_14novel_deepseek6clientNtB9_10ChatClient13create_streamNCNCNvMNtCsgAl8xIys83E_10novel_core15llm_stream_turnNtNtB1r_6engine11AgentEngine24run_live_llm_stream_turn0s_0NCB1k_s0_0E0s_0B1r_
FN:303,_RNCNCINvMs_NtCs6KM4JgF65Wk_14novel_deepseek6clientNtB9_10ChatClient13create_streamNCNCNvNtCsgAl8xIys83E_10novel_core17subagent_llm_turn29fetch_subagent_llm_completion00NCB1k_s_0E00B1q_
FN:349,_RNCNCINvMs_NtCs6KM4JgF65Wk_14novel_deepseek6clientNtB9_10ChatClient13create_streamNCNCNvNtCsgAl8xIys83E_10novel_core17subagent_llm_turn29fetch_subagent_llm_completion00NCB1k_s_0E0s0_0B1q_
FN:332,_RNCNCINvMs_NtCs6KM4JgF65Wk_14novel_deepseek6clientNtB9_10ChatClient13create_streamNCNCNvNtCsgAl8xIys83E_10novel_core17subagent_llm_turn29fetch_subagent_llm_completion00NCB1k_s_0E0s_0B1q_
FN:599,_RNCNCNvMs_NtCs6KM4JgF65Wk_14novel_deepseek6clientNtB8_10ChatClient19complete_via_stream00CsgAl8xIys83E_10novel_core
FN:511,_RNCNvMs_NtCs6KM4JgF65Wk_14novel_deepseek6clientNtB6_10ChatClient11wait_cancel0CsgAl8xIys83E_10novel_core
FN:593,_RNCNvMs_NtCs6KM4JgF65Wk_14novel_deepseek6clientNtB6_10ChatClient19complete_via_stream0CsgAl8xIys83E_10novel_core
FN:239,_RNCNvMs_NtCs6KM4JgF65Wk_14novel_deepseek6clientNtB6_10ChatClient20measure_prompt_usage0CsgAl8xIys83E_10novel_core
FN:599,_RNCNCNvMs_NtCslaEqcgAeMjZ_14novel_deepseek6clientNtB8_10ChatClient19complete_via_stream00Ba_
FN:593,_RNCNvMs_NtCslaEqcgAeMjZ_14novel_deepseek6clientNtB6_10ChatClient19complete_via_stream0B8_
FN:239,_RNCNvMs_NtCslaEqcgAeMjZ_14novel_deepseek6clientNtB6_10ChatClient20measure_prompt_usage0B8_
FN:208,_RNvMs_NtCslaEqcgAeMjZ_14novel_deepseek6clientNtB4_10ChatClient13cache_tracker
FN:212,_RNvMs_NtCslaEqcgAeMjZ_14novel_deepseek6clientNtB4_10ChatClient17cache_tracker_mut
FN:587,_RNvMs_NtCslaEqcgAeMjZ_14novel_deepseek6clientNtB4_10ChatClient19complete_via_stream
FN:234,_RNvMs_NtCslaEqcgAeMjZ_14novel_deepseek6clientNtB4_10ChatClient20measure_prompt_usage
FN:797,_RNvNtNtCslaEqcgAeMjZ_14novel_deepseek6client5testss_21build_tools_non_empty
FN:871,_RNvNtNtCslaEqcgAeMjZ_14novel_deepseek6client5testss_26sse_chunk_parses_tool_call
FN:784,_RNvNtNtCslaEqcgAeMjZ_14novel_deepseek6client5testss_28offline_complete_echoes_user
FN:818,_RNvNtNtCslaEqcgAeMjZ_14novel_deepseek6client5testss_28to_openai_messages_all_roles
FN:1048,_RNvNtNtCslaEqcgAeMjZ_14novel_deepseek6client5testss_31web_search_parses_mock_response
FN:807,_RNvNtNtCslaEqcgAeMjZ_14novel_deepseek6client5testss_33build_tools_preserves_full_schema
FN:889,_RNvNtNtCslaEqcgAeMjZ_14novel_deepseek6client5testss_34ready_tool_callback_once_per_index
FN:860,_RNvNtNtCslaEqcgAeMjZ_14novel_deepseek6client5testss_34sse_chunk_parses_reasoning_content
FN:929,_RNvNtNtCslaEqcgAeMjZ_14novel_deepseek6client5testss_36stream_accumulators_apply_tool_delta
FN:944,_RNvNtNtCslaEqcgAeMjZ_14novel_deepseek6client5testss_37create_stream_parses_sse_via_wiremock
FN:982,_RNvNtNtCslaEqcgAeMjZ_14novel_deepseek6client5testss_46create_stream_cancel_drains_usage_via_wiremock
FN:758,_RNvNtNtCslaEqcgAeMjZ_14novel_deepseek6client5testss_46from_api_key_or_env_uses_explicit_key_and_snap
FN:773,_RNvNtNtCslaEqcgAeMjZ_14novel_deepseek6client5testss_49from_api_key_or_env_none_without_env_returns_none
FN:96,_RNvMNtCslaEqcgAeMjZ_14novel_deepseek6clientNtB2_18StreamAccumulators3new
FN:629,_RNvMs_NtCslaEqcgAeMjZ_14novel_deepseek6clientNtB4_10ChatClient10web_search
FN:254,_RNvMs_NtCslaEqcgAeMjZ_14novel_deepseek6clientNtB4_10ChatClient11build_tools
FN:511,_RNvMs_NtCslaEqcgAeMjZ_14novel_deepseek6clientNtB4_10ChatClient11wait_cancel
FN:443,_RNvMs_NtCslaEqcgAeMjZ_14novel_deepseek6clientNtB4_10ChatClient13drain_pending
FN:487,_RNvMs_NtCslaEqcgAeMjZ_14novel_deepseek6clientNtB4_10ChatClient15make_completion
FN:610,_RNvMs_NtCslaEqcgAeMjZ_14novel_deepseek6clientNtB4_10ChatClient16offline_complete
FN:250,_RNvMs_NtCslaEqcgAeMjZ_14novel_deepseek6clientNtB4_10ChatClient18to_openai_messages
FN:222,_RNvMs_NtCslaEqcgAeMjZ_14novel_deepseek6clientNtB4_10ChatClient19from_api_key_or_env
FN:539,_RNvMs_NtCslaEqcgAeMjZ_14novel_deepseek6clientNtB4_10ChatClient22drain_usage_background
FN:457,_RNvMs_NtCslaEqcgAeMjZ_14novel_deepseek6clientNtB4_10ChatClient24cancelled_stream_outcome
FN:197,_RNvMs_NtCslaEqcgAeMjZ_14novel_deepseek6clientNtB4_10ChatClient8deepseek
FN:216,_RNvMs_NtCslaEqcgAeMjZ_14novel_deepseek6clientNtB4_10ChatClient8from_env
FN:714,_RNvNtCslaEqcgAeMjZ_14novel_deepseek6client11msg_to_json
FN:741,_RNvNtCslaEqcgAeMjZ_14novel_deepseek6client12tool_to_json
FN:106,_RINvMNtCslaEqcgAeMjZ_14novel_deepseek6clientNtB3_18StreamAccumulators11apply_chunkFNtNtB5_5types11LlmToolCallEuNCNCNvNtB3_5testss_37create_stream_parses_sse_via_wiremock00EB5_
FN:106,_RINvMNtCslaEqcgAeMjZ_14novel_deepseek6clientNtB3_18StreamAccumulators11apply_chunkFNtNtB5_5types11LlmToolCallEuNCNCNvNtB3_5testss_46create_stream_cancel_drains_usage_via_wiremock00EB5_
FN:106,_RINvMNtCslaEqcgAeMjZ_14novel_deepseek6clientNtB3_18StreamAccumulators11apply_chunkNCNvNtB3_5testss_36stream_accumulators_apply_tool_deltas_0NCB1k_0EB5_
FN:263,_RINvMs_NtCslaEqcgAeMjZ_14novel_deepseek6clientNtB5_10ChatClient13create_streamFNtNtB7_5types11LlmToolCallEuNCNCNvNtB5_5testss_37create_stream_parses_sse_via_wiremock00EB7_
FN:263,_RINvMs_NtCslaEqcgAeMjZ_14novel_deepseek6clientNtB5_10ChatClient13create_streamFNtNtB7_5types11LlmToolCallEuNCNCNvNtB5_5testss_46create_stream_cancel_drains_usage_via_wiremock00EB7_
FN:413,_RINvMs_NtCslaEqcgAeMjZ_14novel_deepseek6clientNtB5_10ChatClient19try_emit_ready_toolFNtNtB7_5types11LlmToolCallEuEB7_
FN:413,_RINvMs_NtCslaEqcgAeMjZ_14novel_deepseek6clientNtB5_10ChatClient19try_emit_ready_toolNCNvNtB5_5testss_34ready_tool_callback_once_per_index0EB7_
FN:413,_RINvMs_NtCslaEqcgAeMjZ_14novel_deepseek6clientNtB5_10ChatClient19try_emit_ready_toolNCNvNtB5_5testss_36stream_accumulators_apply_tool_deltas_0EB7_
FN:154,_RNCINvMNtCslaEqcgAeMjZ_14novel_deepseek6clientNtB5_18StreamAccumulators11apply_chunkFNtNtB7_5types11LlmToolCallEuNCNCNvNtB5_5testss_37create_stream_parses_sse_via_wiremock00Es_0B7_
FN:154,_RNCINvMNtCslaEqcgAeMjZ_14novel_deepseek6clientNtB5_18StreamAccumulators11apply_chunkFNtNtB7_5types11LlmToolCallEuNCNCNvNtB5_5testss_46create_stream_cancel_drains_usage_via_wiremock00Es_0B7_
FN:154,_RNCINvMNtCslaEqcgAeMjZ_14novel_deepseek6clientNtB5_18StreamAccumulators11apply_chunkNCNvNtB5_5testss_36stream_accumulators_apply_tool_deltas_0NCB1m_0Es_0B7_
FN:275,_RNCINvMs_NtCslaEqcgAeMjZ_14novel_deepseek6clientNtB7_10ChatClient13create_streamFNtNtB9_5types11LlmToolCallEuNCNCNvNtB7_5testss_37create_stream_parses_sse_via_wiremock00E0B9_
FN:275,_RNCINvMs_NtCslaEqcgAeMjZ_14novel_deepseek6clientNtB7_10ChatClient13create_streamFNtNtB9_5types11LlmToolCallEuNCNCNvNtB7_5testss_46create_stream_cancel_drains_usage_via_wiremock00E0B9_
FN:430,_RNCINvMs_NtCslaEqcgAeMjZ_14novel_deepseek6clientNtB7_10ChatClient19try_emit_ready_toolFNtNtB9_5types11LlmToolCallEuE0B9_
FN:430,_RNCINvMs_NtCslaEqcgAeMjZ_14novel_deepseek6clientNtB7_10ChatClient19try_emit_ready_toolNCNvNtB7_5testss_34ready_tool_callback_once_per_index0E0B9_
FN:430,_RNCINvMs_NtCslaEqcgAeMjZ_14novel_deepseek6clientNtB7_10ChatClient19try_emit_ready_toolNCNvNtB7_5testss_36stream_accumulators_apply_tool_deltas_0E0B9_
FN:303,_RNCNCINvMs_NtCslaEqcgAeMjZ_14novel_deepseek6clientNtB9_10ChatClient13create_streamFNtNtBb_5types11LlmToolCallEuNCNCNvNtB9_5testss_37create_stream_parses_sse_via_wiremock00E00Bb_
FN:349,_RNCNCINvMs_NtCslaEqcgAeMjZ_14novel_deepseek6clientNtB9_10ChatClient13create_streamFNtNtBb_5types11LlmToolCallEuNCNCNvNtB9_5testss_37create_stream_parses_sse_via_wiremock00E0s0_0Bb_
FN:332,_RNCNCINvMs_NtCslaEqcgAeMjZ_14novel_deepseek6clientNtB9_10ChatClient13create_streamFNtNtBb_5types11LlmToolCallEuNCNCNvNtB9_5testss_37create_stream_parses_sse_via_wiremock00E0s_0Bb_
FN:303,_RNCNCINvMs_NtCslaEqcgAeMjZ_14novel_deepseek6clientNtB9_10ChatClient13create_streamFNtNtBb_5types11LlmToolCallEuNCNCNvNtB9_5testss_46create_stream_cancel_drains_usage_via_wiremock00E00Bb_
FN:349,_RNCNCINvMs_NtCslaEqcgAeMjZ_14novel_deepseek6clientNtB9_10ChatClient13create_streamFNtNtBb_5types11LlmToolCallEuNCNCNvNtB9_5testss_46create_stream_cancel_drains_usage_via_wiremock00E0s0_0Bb_
FN:332,_RNCNCINvMs_NtCslaEqcgAeMjZ_14novel_deepseek6clientNtB9_10ChatClient13create_streamFNtNtBb_5types11LlmToolCallEuNCNCNvNtB9_5testss_46create_stream_cancel_drains_usage_via_wiremock00E0s_0Bb_
FN:571,_RNCNCNCNvMs_NtCslaEqcgAeMjZ_14novel_deepseek6clientNtBa_10ChatClient22drain_usage_background000Bc_
FN:574,_RNCNCNCNvMs_NtCslaEqcgAeMjZ_14novel_deepseek6clientNtBa_10ChatClient22drain_usage_background00s0_0Bc_
FN:577,_RNCNCNCNvMs_NtCslaEqcgAeMjZ_14novel_deepseek6clientNtBa_10ChatClient22drain_usage_background00s1_0Bc_
FN:572,_RNCNCNCNvMs_NtCslaEqcgAeMjZ_14novel_deepseek6clientNtBa_10ChatClient22drain_usage_background00s_0Bc_
FN:654,_RNCNCNvMs_NtCslaEqcgAeMjZ_14novel_deepseek6clientNtB8_10ChatClient10web_search00Ba_
FN:673,_RNCNCNvMs_NtCslaEqcgAeMjZ_14novel_deepseek6clientNtB8_10ChatClient10web_search0s0_0Ba_
FN:676,_RNCNCNvMs_NtCslaEqcgAeMjZ_14novel_deepseek6clientNtB8_10ChatClient10web_search0s1_0Ba_
FN:678,_RNCNCNvMs_NtCslaEqcgAeMjZ_14novel_deepseek6clientNtB8_10ChatClient10web_search0s2_0Ba_
FN:679,_RNCNCNvMs_NtCslaEqcgAeMjZ_14novel_deepseek6clientNtB8_10ChatClient10web_search0s3_0Ba_
FN:683,_RNCNCNvMs_NtCslaEqcgAeMjZ_14novel_deepseek6clientNtB8_10ChatClient10web_search0s4_0Ba_
FN:688,_RNCNCNvMs_NtCslaEqcgAeMjZ_14novel_deepseek6clientNtB8_10ChatClient10web_search0s5_0Ba_
FN:693,_RNCNCNvMs_NtCslaEqcgAeMjZ_14novel_deepseek6clientNtB8_10ChatClient10web_search0s6_0Ba_
FN:663,_RNCNCNvMs_NtCslaEqcgAeMjZ_14novel_deepseek6clientNtB8_10ChatClient10web_search0s_0Ba_
FN:558,_RNCNCNvMs_NtCslaEqcgAeMjZ_14novel_deepseek6clientNtB8_10ChatClient22drain_usage_background00Ba_
FN:633,_RNCNvMs_NtCslaEqcgAeMjZ_14novel_deepseek6clientNtB6_10ChatClient10web_search0B8_
FN:257,_RNCNvMs_NtCslaEqcgAeMjZ_14novel_deepseek6clientNtB6_10ChatClient11build_tools0B8_
FN:511,_RNCNvMs_NtCslaEqcgAeMjZ_14novel_deepseek6clientNtB6_10ChatClient11wait_cancel0B8_
FN:614,_RNCNvMs_NtCslaEqcgAeMjZ_14novel_deepseek6clientNtB6_10ChatClient16offline_complete0B8_
FN:615,_RNCNvMs_NtCslaEqcgAeMjZ_14novel_deepseek6clientNtB6_10ChatClient16offline_completes_0B8_
FN:229,_RNCNvMs_NtCslaEqcgAeMjZ_14novel_deepseek6clientNtB6_10ChatClient19from_api_key_or_env0B8_
FN:230,_RNCNvMs_NtCslaEqcgAeMjZ_14novel_deepseek6clientNtB6_10ChatClient19from_api_key_or_envs_0B8_
FN:546,_RNCNvMs_NtCslaEqcgAeMjZ_14novel_deepseek6clientNtB6_10ChatClient22drain_usage_background0B8_
FN:476,_RNCNvMs_NtCslaEqcgAeMjZ_14novel_deepseek6clientNtB6_10ChatClient24cancelled_stream_outcome0B8_
FN:729,_RNCNvNtCslaEqcgAeMjZ_14novel_deepseek6client11msg_to_json0B5_
FN:969,_RNCNCNvNtNtCslaEqcgAeMjZ_14novel_deepseek6client5testss_37create_stream_parses_sse_via_wiremock00B9_
FN:1025,_RNCNCNvNtNtCslaEqcgAeMjZ_14novel_deepseek6client5testss_46create_stream_cancel_drains_usage_via_wiremock00B9_
FN:1048,_RNCNvNtNtCslaEqcgAeMjZ_14novel_deepseek6client5testss_31web_search_parses_mock_response0B7_
FN:891,_RNCNvNtNtCslaEqcgAeMjZ_14novel_deepseek6client5testss_34ready_tool_callback_once_per_index0B7_
FN:936,_RNCNvNtNtCslaEqcgAeMjZ_14novel_deepseek6client5testss_36stream_accumulators_apply_tool_delta0B7_
FN:937,_RNCNvNtNtCslaEqcgAeMjZ_14novel_deepseek6client5testss_36stream_accumulators_apply_tool_deltas_0B7_
FN:944,_RNCNvNtNtCslaEqcgAeMjZ_14novel_deepseek6client5testss_37create_stream_parses_sse_via_wiremock0B7_
FN:982,_RNCNvNtNtCslaEqcgAeMjZ_14novel_deepseek6client5testss_46create_stream_cancel_drains_usage_via_wiremock0B7_
FN:106,_RINvMNtCs6KM4JgF65Wk_14novel_deepseek6clientNtB3_18StreamAccumulators11apply_chunkNCNCNvMNtCskOvt1kg1spG_10novel_core15llm_stream_turnNtNtB1r_6engine11AgentEngine24run_live_llm_stream_turn0s_0NCB1k_s0_0ECs4uMLwczbohT_12novel_server
FN:263,_RINvMs_NtCs6KM4JgF65Wk_14novel_deepseek6clientNtB5_10ChatClient13create_streamNCNCNvMNtCskOvt1kg1spG_10novel_core15llm_stream_turnNtNtB1n_6engine11AgentEngine24run_live_llm_stream_turn0s_0NCB1g_s0_0ECs4uMLwczbohT_12novel_server
FN:413,_RINvMs_NtCs6KM4JgF65Wk_14novel_deepseek6clientNtB5_10ChatClient19try_emit_ready_toolNCNCNvMNtCskOvt1kg1spG_10novel_core15llm_stream_turnNtNtB1t_6engine11AgentEngine24run_live_llm_stream_turn0s_0ECs4uMLwczbohT_12novel_server
FN:154,_RNCINvMNtCs6KM4JgF65Wk_14novel_deepseek6clientNtB5_18StreamAccumulators11apply_chunkNCNCNvMNtCskOvt1kg1spG_10novel_core15llm_stream_turnNtNtB1t_6engine11AgentEngine24run_live_llm_stream_turn0s_0NCB1m_s0_0Es_0Cs4uMLwczbohT_12novel_server
FN:275,_RNCINvMs_NtCs6KM4JgF65Wk_14novel_deepseek6clientNtB7_10ChatClient13create_streamNCNCNvMNtCskOvt1kg1spG_10novel_core15llm_stream_turnNtNtB1p_6engine11AgentEngine24run_live_llm_stream_turn0s_0NCB1i_s0_0E0Cs4uMLwczbohT_12novel_server
FN:430,_RNCINvMs_NtCs6KM4JgF65Wk_14novel_deepseek6clientNtB7_10ChatClient19try_emit_ready_toolNCNCNvMNtCskOvt1kg1spG_10novel_core15llm_stream_turnNtNtB1v_6engine11AgentEngine24run_live_llm_stream_turn0s_0E0Cs4uMLwczbohT_12novel_server
FN:303,_RNCNCINvMs_NtCs6KM4JgF65Wk_14novel_deepseek6clientNtB9_10ChatClient13create_streamNCNCNvMNtCskOvt1kg1spG_10novel_core15llm_stream_turnNtNtB1r_6engine11AgentEngine24run_live_llm_stream_turn0s_0NCB1k_s0_0E00Cs4uMLwczbohT_12novel_server
FN:349,_RNCNCINvMs_NtCs6KM4JgF65Wk_14novel_deepseek6clientNtB9_10ChatClient13create_streamNCNCNvMNtCskOvt1kg1spG_10novel_core15llm_stream_turnNtNtB1r_6engine11AgentEngine24run_live_llm_stream_turn0s_0NCB1k_s0_0E0s0_0Cs4uMLwczbohT_12novel_server
FN:332,_RNCNCINvMs_NtCs6KM4JgF65Wk_14novel_deepseek6clientNtB9_10ChatClient13create_streamNCNCNvMNtCskOvt1kg1spG_10novel_core15llm_stream_turnNtNtB1r_6engine11AgentEngine24run_live_llm_stream_turn0s_0NCB1k_s0_0E0s_0Cs4uMLwczbohT_12novel_server
FN:654,_RNCNCNvMs_NtCs6KM4JgF65Wk_14novel_deepseek6clientNtB8_10ChatClient10web_search00Cs6KAoqn40E16_11novel_tools
FN:673,_RNCNCNvMs_NtCs6KM4JgF65Wk_14novel_deepseek6clientNtB8_10ChatClient10web_search0s0_0Cs6KAoqn40E16_11novel_tools
FN:676,_RNCNCNvMs_NtCs6KM4JgF65Wk_14novel_deepseek6clientNtB8_10ChatClient10web_search0s1_0Cs6KAoqn40E16_11novel_tools
FN:678,_RNCNCNvMs_NtCs6KM4JgF65Wk_14novel_deepseek6clientNtB8_10ChatClient10web_search0s2_0Cs6KAoqn40E16_11novel_tools
FN:679,_RNCNCNvMs_NtCs6KM4JgF65Wk_14novel_deepseek6clientNtB8_10ChatClient10web_search0s3_0Cs6KAoqn40E16_11novel_tools
FN:683,_RNCNCNvMs_NtCs6KM4JgF65Wk_14novel_deepseek6clientNtB8_10ChatClient10web_search0s4_0Cs6KAoqn40E16_11novel_tools
FN:688,_RNCNCNvMs_NtCs6KM4JgF65Wk_14novel_deepseek6clientNtB8_10ChatClient10web_search0s5_0Cs6KAoqn40E16_11novel_tools
FN:693,_RNCNCNvMs_NtCs6KM4JgF65Wk_14novel_deepseek6clientNtB8_10ChatClient10web_search0s6_0Cs6KAoqn40E16_11novel_tools
FN:663,_RNCNCNvMs_NtCs6KM4JgF65Wk_14novel_deepseek6clientNtB8_10ChatClient10web_search0s_0Cs6KAoqn40E16_11novel_tools
FN:633,_RNCNvMs_NtCs6KM4JgF65Wk_14novel_deepseek6clientNtB6_10ChatClient10web_search0Cs6KAoqn40E16_11novel_tools
FNDA:0,_RINvMNtCs6KM4JgF65Wk_14novel_deepseek6clientNtB3_18StreamAccumulators11apply_chunkFNtNtB5_5types11LlmToolCallEuNCNCNvMs_B3_NtB3_10ChatClient19complete_via_stream00ECskOvt1kg1spG_10novel_core
FNDA:0,_RINvMNtCs6KM4JgF65Wk_14novel_deepseek6clientNtB3_18StreamAccumulators11apply_chunkNCNCNvNtCskOvt1kg1spG_10novel_core17subagent_llm_turn29fetch_subagent_llm_completion00NCB1k_s_0EB1q_
FNDA:0,_RINvMs_NtCs6KM4JgF65Wk_14novel_deepseek6clientNtB5_10ChatClient13create_streamFNtNtB7_5types11LlmToolCallEuNCNCNvB2_19complete_via_stream00ECskOvt1kg1spG_10novel_core
FNDA:0,_RINvMs_NtCs6KM4JgF65Wk_14novel_deepseek6clientNtB5_10ChatClient13create_streamNCNCNvNtCskOvt1kg1spG_10novel_core17subagent_llm_turn29fetch_subagent_llm_completion00NCB1g_s_0EB1m_
FNDA:0,_RINvMs_NtCs6KM4JgF65Wk_14novel_deepseek6clientNtB5_10ChatClient19try_emit_ready_toolFNtNtB7_5types11LlmToolCallEuECskOvt1kg1spG_10novel_core
FNDA:0,_RINvMs_NtCs6KM4JgF65Wk_14novel_deepseek6clientNtB5_10ChatClient19try_emit_ready_toolNCNCNvNtCskOvt1kg1spG_10novel_core17subagent_llm_turn29fetch_subagent_llm_completion00EB1s_
FNDA:0,_RNCINvMNtCs6KM4JgF65Wk_14novel_deepseek6clientNtB5_18StreamAccumulators11apply_chunkFNtNtB7_5types11LlmToolCallEuNCNCNvMs_B5_NtB5_10ChatClient19complete_via_stream00Es_0CskOvt1kg1spG_10novel_core
FNDA:0,_RNCINvMNtCs6KM4JgF65Wk_14novel_deepseek6clientNtB5_18StreamAccumulators11apply_chunkNCNCNvNtCskOvt1kg1spG_10novel_core17subagent_llm_turn29fetch_subagent_llm_completion00NCB1m_s_0Es_0B1s_
FNDA:0,_RNCINvMs_NtCs6KM4JgF65Wk_14novel_deepseek6clientNtB7_10ChatClient13create_streamFNtNtB9_5types11LlmToolCallEuNCNCNvB4_19complete_via_stream00E0CskOvt1kg1spG_10novel_core
FNDA:0,_RNCINvMs_NtCs6KM4JgF65Wk_14novel_deepseek6clientNtB7_10ChatClient13create_streamNCNCNvNtCskOvt1kg1spG_10novel_core17subagent_llm_turn29fetch_subagent_llm_completion00NCB1i_s_0E0B1o_
FNDA:0,_RNCINvMs_NtCs6KM4JgF65Wk_14novel_deepseek6clientNtB7_10ChatClient19try_emit_ready_toolFNtNtB9_5types11LlmToolCallEuE0CskOvt1kg1spG_10novel_core
FNDA:0,_RNCINvMs_NtCs6KM4JgF65Wk_14novel_deepseek6clientNtB7_10ChatClient19try_emit_ready_toolNCNCNvNtCskOvt1kg1spG_10novel_core17subagent_llm_turn29fetch_subagent_llm_completion00E0B1u_
FNDA:0,_RNCNCINvMs_NtCs6KM4JgF65Wk_14novel_deepseek6clientNtB9_10ChatClient13create_streamFNtNtBb_5types11LlmToolCallEuNCNCNvB6_19complete_via_stream00E00CskOvt1kg1spG_10novel_core
FNDA:0,_RNCNCINvMs_NtCs6KM4JgF65Wk_14novel_deepseek6clientNtB9_10ChatClient13create_streamFNtNtBb_5types11LlmToolCallEuNCNCNvB6_19complete_via_stream00E0s0_0CskOvt1kg1spG_10novel_core
FNDA:0,_RNCNCINvMs_NtCs6KM4JgF65Wk_14novel_deepseek6clientNtB9_10ChatClient13create_streamFNtNtBb_5types11LlmToolCallEuNCNCNvB6_19complete_via_stream00E0s_0CskOvt1kg1spG_10novel_core
FNDA:0,_RNCNCINvMs_NtCs6KM4JgF65Wk_14novel_deepseek6clientNtB9_10ChatClient13create_streamNCNCNvNtCskOvt1kg1spG_10novel_core17subagent_llm_turn29fetch_subagent_llm_completion00NCB1k_s_0E00B1q_
FNDA:0,_RNCNCINvMs_NtCs6KM4JgF65Wk_14novel_deepseek6clientNtB9_10ChatClient13create_streamNCNCNvNtCskOvt1kg1spG_10novel_core17subagent_llm_turn29fetch_subagent_llm_completion00NCB1k_s_0E0s0_0B1q_
FNDA:0,_RNCNCINvMs_NtCs6KM4JgF65Wk_14novel_deepseek6clientNtB9_10ChatClient13create_streamNCNCNvNtCskOvt1kg1spG_10novel_core17subagent_llm_turn29fetch_subagent_llm_completion00NCB1k_s_0E0s_0B1q_
FNDA:0,_RNCNCNvMs_NtCs6KM4JgF65Wk_14novel_deepseek6clientNtB8_10ChatClient19complete_via_stream00CskOvt1kg1spG_10novel_core
FNDA:0,_RNCNvMs_NtCs6KM4JgF65Wk_14novel_deepseek6clientNtB6_10ChatClient11wait_cancel0CskOvt1kg1spG_10novel_core
FNDA:0,_RNCNvMs_NtCs6KM4JgF65Wk_14novel_deepseek6clientNtB6_10ChatClient19complete_via_stream0CskOvt1kg1spG_10novel_core
FNDA:0,_RNCNvMs_NtCs6KM4JgF65Wk_14novel_deepseek6clientNtB6_10ChatClient20measure_prompt_usage0CskOvt1kg1spG_10novel_core
FNDA:0,_RNCNCNvMs_NtCs6KM4JgF65Wk_14novel_deepseek6clientNtB8_10ChatClient10web_search00CsdRyXZbE8rru_11novel_tools
FNDA:0,_RNCNCNvMs_NtCs6KM4JgF65Wk_14novel_deepseek6clientNtB8_10ChatClient10web_search0s0_0CsdRyXZbE8rru_11novel_tools
FNDA:0,_RNCNCNvMs_NtCs6KM4JgF65Wk_14novel_deepseek6clientNtB8_10ChatClient10web_search0s1_0CsdRyXZbE8rru_11novel_tools
FNDA:0,_RNCNCNvMs_NtCs6KM4JgF65Wk_14novel_deepseek6clientNtB8_10ChatClient10web_search0s2_0CsdRyXZbE8rru_11novel_tools
FNDA:0,_RNCNCNvMs_NtCs6KM4JgF65Wk_14novel_deepseek6clientNtB8_10ChatClient10web_search0s3_0CsdRyXZbE8rru_11novel_tools
FNDA:0,_RNCNCNvMs_NtCs6KM4JgF65Wk_14novel_deepseek6clientNtB8_10ChatClient10web_search0s4_0CsdRyXZbE8rru_11novel_tools
FNDA:0,_RNCNCNvMs_NtCs6KM4JgF65Wk_14novel_deepseek6clientNtB8_10ChatClient10web_search0s5_0CsdRyXZbE8rru_11novel_tools
FNDA:0,_RNCNCNvMs_NtCs6KM4JgF65Wk_14novel_deepseek6clientNtB8_10ChatClient10web_search0s6_0CsdRyXZbE8rru_11novel_tools
FNDA:0,_RNCNCNvMs_NtCs6KM4JgF65Wk_14novel_deepseek6clientNtB8_10ChatClient10web_search0s_0CsdRyXZbE8rru_11novel_tools
FNDA:0,_RNCNvMs_NtCs6KM4JgF65Wk_14novel_deepseek6clientNtB6_10ChatClient10web_search0CsdRyXZbE8rru_11novel_tools
FNDA:82,_RNvMNtCs6KM4JgF65Wk_14novel_deepseek6clientNtB2_18StreamAccumulators3new
FNDA:0,_RNvMs_NtCs6KM4JgF65Wk_14novel_deepseek6clientNtB4_10ChatClient10web_search
FNDA:82,_RNvMs_NtCs6KM4JgF65Wk_14novel_deepseek6clientNtB4_10ChatClient11build_tools
FNDA:164,_RNvMs_NtCs6KM4JgF65Wk_14novel_deepseek6clientNtB4_10ChatClient11wait_cancel
FNDA:0,_RNvMs_NtCs6KM4JgF65Wk_14novel_deepseek6clientNtB4_10ChatClient13cache_tracker
FNDA:82,_RNvMs_NtCs6KM4JgF65Wk_14novel_deepseek6clientNtB4_10ChatClient13drain_pending
FNDA:82,_RNvMs_NtCs6KM4JgF65Wk_14novel_deepseek6clientNtB4_10ChatClient15make_completion
FNDA:18,_RNvMs_NtCs6KM4JgF65Wk_14novel_deepseek6clientNtB4_10ChatClient16offline_complete
FNDA:0,_RNvMs_NtCs6KM4JgF65Wk_14novel_deepseek6clientNtB4_10ChatClient17cache_tracker_mut
FNDA:164,_RNvMs_NtCs6KM4JgF65Wk_14novel_deepseek6clientNtB4_10ChatClient18to_openai_messages
FNDA:0,_RNvMs_NtCs6KM4JgF65Wk_14novel_deepseek6clientNtB4_10ChatClient19complete_via_stream
FNDA:22,_RNvMs_NtCs6KM4JgF65Wk_14novel_deepseek6clientNtB4_10ChatClient19from_api_key_or_env
FNDA:0,_RNvMs_NtCs6KM4JgF65Wk_14novel_deepseek6clientNtB4_10ChatClient20measure_prompt_usage
FNDA:0,_RNvMs_NtCs6KM4JgF65Wk_14novel_deepseek6clientNtB4_10ChatClient22drain_usage_background
FNDA:0,_RNvMs_NtCs6KM4JgF65Wk_14novel_deepseek6clientNtB4_10ChatClient24cancelled_stream_outcome
FNDA:3,_RNvMs_NtCs6KM4JgF65Wk_14novel_deepseek6clientNtB4_10ChatClient8deepseek
FNDA:19,_RNvMs_NtCs6KM4JgF65Wk_14novel_deepseek6clientNtB4_10ChatClient8from_env
FNDA:12966,_RNvNtCs6KM4JgF65Wk_14novel_deepseek6client11msg_to_json
FNDA:1863,_RNvNtCs6KM4JgF65Wk_14novel_deepseek6client12tool_to_json
FNDA:0,_RNCNCNCNvMs_NtCs6KM4JgF65Wk_14novel_deepseek6clientNtBa_10ChatClient22drain_usage_background000Bc_
FNDA:0,_RNCNCNCNvMs_NtCs6KM4JgF65Wk_14novel_deepseek6clientNtBa_10ChatClient22drain_usage_background00s0_0Bc_
FNDA:0,_RNCNCNCNvMs_NtCs6KM4JgF65Wk_14novel_deepseek6clientNtBa_10ChatClient22drain_usage_background00s1_0Bc_
FNDA:0,_RNCNCNCNvMs_NtCs6KM4JgF65Wk_14novel_deepseek6clientNtBa_10ChatClient22drain_usage_background00s_0Bc_
FNDA:0,_RNCNCNvMs_NtCs6KM4JgF65Wk_14novel_deepseek6clientNtB8_10ChatClient22drain_usage_background00Ba_
FNDA:1863,_RNCNvMs_NtCs6KM4JgF65Wk_14novel_deepseek6clientNtB6_10ChatClient11build_tools0B8_
FNDA:18,_RNCNvMs_NtCs6KM4JgF65Wk_14novel_deepseek6clientNtB6_10ChatClient16offline_complete0B8_
FNDA:16,_RNCNvMs_NtCs6KM4JgF65Wk_14novel_deepseek6clientNtB6_10ChatClient16offline_completes_0B8_
FNDA:3,_RNCNvMs_NtCs6KM4JgF65Wk_14novel_deepseek6clientNtB6_10ChatClient19from_api_key_or_env0B8_
FNDA:19,_RNCNvMs_NtCs6KM4JgF65Wk_14novel_deepseek6clientNtB6_10ChatClient19from_api_key_or_envs_0B8_
FNDA:0,_RNCNvMs_NtCs6KM4JgF65Wk_14novel_deepseek6clientNtB6_10ChatClient22drain_usage_background0B8_
FNDA:0,_RNCNvMs_NtCs6KM4JgF65Wk_14novel_deepseek6clientNtB6_10ChatClient24cancelled_stream_outcome0B8_
FNDA:6320,_RNCNvNtCs6KM4JgF65Wk_14novel_deepseek6client11msg_to_json0B5_
FNDA:0,_RINvMNtCs6KM4JgF65Wk_14novel_deepseek6clientNtB3_18StreamAccumulators11apply_chunkFNtNtB5_5types11LlmToolCallEuNCNCNvCsiO9YwF8NZLc_12connectivitys_46drain_with_thinking_returns_three_class_tokens0s_0EB1R_
FNDA:0,_RINvMNtCs6KM4JgF65Wk_14novel_deepseek6clientNtB3_18StreamAccumulators11apply_chunkFNtNtB5_5types11LlmToolCallEuNCNCNvCsiO9YwF8NZLc_12connectivitys_48drain_after_interrupt_returns_three_class_tokens0s_0EB1R_
FNDA:0,_RINvMs_NtCs6KM4JgF65Wk_14novel_deepseek6clientNtB5_10ChatClient13create_streamFNtNtB7_5types11LlmToolCallEuNCNCNvCsiO9YwF8NZLc_12connectivitys_46drain_with_thinking_returns_three_class_tokens0s_0EB1N_
FNDA:0,_RINvMs_NtCs6KM4JgF65Wk_14novel_deepseek6clientNtB5_10ChatClient13create_streamFNtNtB7_5types11LlmToolCallEuNCNCNvCsiO9YwF8NZLc_12connectivitys_48drain_after_interrupt_returns_three_class_tokens0s_0EB1N_
FNDA:0,_RINvMs_NtCs6KM4JgF65Wk_14novel_deepseek6clientNtB5_10ChatClient19try_emit_ready_toolFNtNtB7_5types11LlmToolCallEuECsiO9YwF8NZLc_12connectivity
FNDA:0,_RNCINvMNtCs6KM4JgF65Wk_14novel_deepseek6clientNtB5_18StreamAccumulators11apply_chunkFNtNtB7_5types11LlmToolCallEuNCNCNvCsiO9YwF8NZLc_12connectivitys_46drain_with_thinking_returns_three_class_tokens0s_0Es_0B1T_
FNDA:0,_RNCINvMNtCs6KM4JgF65Wk_14novel_deepseek6clientNtB5_18StreamAccumulators11apply_chunkFNtNtB7_5types11LlmToolCallEuNCNCNvCsiO9YwF8NZLc_12connectivitys_48drain_after_interrupt_returns_three_class_tokens0s_0Es_0B1T_
FNDA:0,_RNCINvMs_NtCs6KM4JgF65Wk_14novel_deepseek6clientNtB7_10ChatClient13create_streamFNtNtB9_5types11LlmToolCallEuNCNCNvCsiO9YwF8NZLc_12connectivitys_46drain_with_thinking_returns_three_class_tokens0s_0E0B1P_
FNDA:0,_RNCINvMs_NtCs6KM4JgF65Wk_14novel_deepseek6clientNtB7_10ChatClient13create_streamFNtNtB9_5types11LlmToolCallEuNCNCNvCsiO9YwF8NZLc_12connectivitys_48drain_after_interrupt_returns_three_class_tokens0s_0E0B1P_
FNDA:0,_RNCINvMs_NtCs6KM4JgF65Wk_14novel_deepseek6clientNtB7_10ChatClient19try_emit_ready_toolFNtNtB9_5types11LlmToolCallEuE0CsiO9YwF8NZLc_12connectivity
FNDA:0,_RNCNCINvMs_NtCs6KM4JgF65Wk_14novel_deepseek6clientNtB9_10ChatClient13create_streamFNtNtBb_5types11LlmToolCallEuNCNCNvCsiO9YwF8NZLc_12connectivitys_46drain_with_thinking_returns_three_class_tokens0s_0E00B1R_
FNDA:0,_RNCNCINvMs_NtCs6KM4JgF65Wk_14novel_deepseek6clientNtB9_10ChatClient13create_streamFNtNtBb_5types11LlmToolCallEuNCNCNvCsiO9YwF8NZLc_12connectivitys_46drain_with_thinking_returns_three_class_tokens0s_0E0s0_0B1R_
FNDA:0,_RNCNCINvMs_NtCs6KM4JgF65Wk_14novel_deepseek6clientNtB9_10ChatClient13create_streamFNtNtBb_5types11LlmToolCallEuNCNCNvCsiO9YwF8NZLc_12connectivitys_46drain_with_thinking_returns_three_class_tokens0s_0E0s_0B1R_
FNDA:0,_RNCNCINvMs_NtCs6KM4JgF65Wk_14novel_deepseek6clientNtB9_10ChatClient13create_streamFNtNtBb_5types11LlmToolCallEuNCNCNvCsiO9YwF8NZLc_12connectivitys_48drain_after_interrupt_returns_three_class_tokens0s_0E00B1R_
FNDA:0,_RNCNCINvMs_NtCs6KM4JgF65Wk_14novel_deepseek6clientNtB9_10ChatClient13create_streamFNtNtBb_5types11LlmToolCallEuNCNCNvCsiO9YwF8NZLc_12connectivitys_48drain_after_interrupt_returns_three_class_tokens0s_0E0s0_0B1R_
FNDA:0,_RNCNCINvMs_NtCs6KM4JgF65Wk_14novel_deepseek6clientNtB9_10ChatClient13create_streamFNtNtBb_5types11LlmToolCallEuNCNCNvCsiO9YwF8NZLc_12connectivitys_48drain_after_interrupt_returns_three_class_tokens0s_0E0s_0B1R_
FNDA:0,_RNCNvMs_NtCs6KM4JgF65Wk_14novel_deepseek6clientNtB6_10ChatClient11wait_cancel0CsiO9YwF8NZLc_12connectivity
FNDA:0,_RINvMNtCs6KM4JgF65Wk_14novel_deepseek6clientNtB3_18StreamAccumulators11apply_chunkNCNCNvMNtCskOvt1kg1spG_10novel_core15llm_stream_turnNtNtB1r_6engine11AgentEngine24run_live_llm_stream_turn0s_0NCB1k_s0_0ECsja0mJncq2tx_10fork_agent
FNDA:0,_RINvMs_NtCs6KM4JgF65Wk_14novel_deepseek6clientNtB5_10ChatClient13create_streamNCNCNvMNtCskOvt1kg1spG_10novel_core15llm_stream_turnNtNtB1n_6engine11AgentEngine24run_live_llm_stream_turn0s_0NCB1g_s0_0ECsja0mJncq2tx_10fork_agent
FNDA:0,_RINvMs_NtCs6KM4JgF65Wk_14novel_deepseek6clientNtB5_10ChatClient19try_emit_ready_toolNCNCNvMNtCskOvt1kg1spG_10novel_core15llm_stream_turnNtNtB1t_6engine11AgentEngine24run_live_llm_stream_turn0s_0ECsja0mJncq2tx_10fork_agent
FNDA:0,_RNCINvMNtCs6KM4JgF65Wk_14novel_deepseek6clientNtB5_18StreamAccumulators11apply_chunkNCNCNvMNtCskOvt1kg1spG_10novel_core15llm_stream_turnNtNtB1t_6engine11AgentEngine24run_live_llm_stream_turn0s_0NCB1m_s0_0Es_0Csja0mJncq2tx_10fork_agent
FNDA:0,_RNCINvMs_NtCs6KM4JgF65Wk_14novel_deepseek6clientNtB7_10ChatClient13create_streamNCNCNvMNtCskOvt1kg1spG_10novel_core15llm_stream_turnNtNtB1p_6engine11AgentEngine24run_live_llm_stream_turn0s_0NCB1i_s0_0E0Csja0mJncq2tx_10fork_agent
FNDA:0,_RNCINvMs_NtCs6KM4JgF65Wk_14novel_deepseek6clientNtB7_10ChatClient19try_emit_ready_toolNCNCNvMNtCskOvt1kg1spG_10novel_core15llm_stream_turnNtNtB1v_6engine11AgentEngine24run_live_llm_stream_turn0s_0E0Csja0mJncq2tx_10fork_agent
FNDA:0,_RNCNCINvMs_NtCs6KM4JgF65Wk_14novel_deepseek6clientNtB9_10ChatClient13create_streamNCNCNvMNtCskOvt1kg1spG_10novel_core15llm_stream_turnNtNtB1r_6engine11AgentEngine24run_live_llm_stream_turn0s_0NCB1k_s0_0E00Csja0mJncq2tx_10fork_agent
FNDA:0,_RNCNCINvMs_NtCs6KM4JgF65Wk_14novel_deepseek6clientNtB9_10ChatClient13create_streamNCNCNvMNtCskOvt1kg1spG_10novel_core15llm_stream_turnNtNtB1r_6engine11AgentEngine24run_live_llm_stream_turn0s_0NCB1k_s0_0E0s0_0Csja0mJncq2tx_10fork_agent
FNDA:0,_RNCNCINvMs_NtCs6KM4JgF65Wk_14novel_deepseek6clientNtB9_10ChatClient13create_streamNCNCNvMNtCskOvt1kg1spG_10novel_core15llm_stream_turnNtNtB1r_6engine11AgentEngine24run_live_llm_stream_turn0s_0NCB1k_s0_0E0s_0Csja0mJncq2tx_10fork_agent
FNDA:0,_RINvMNtCs6KM4JgF65Wk_14novel_deepseek6clientNtB3_18StreamAccumulators11apply_chunkNCNCNvMNtCskOvt1kg1spG_10novel_core15llm_stream_turnNtNtB1r_6engine11AgentEngine24run_live_llm_stream_turn0s_0NCB1k_s0_0ECs90uylq1XzCH_22live_invoke_skill_turn
FNDA:0,_RINvMs_NtCs6KM4JgF65Wk_14novel_deepseek6clientNtB5_10ChatClient13create_streamNCNCNvMNtCskOvt1kg1spG_10novel_core15llm_stream_turnNtNtB1n_6engine11AgentEngine24run_live_llm_stream_turn0s_0NCB1g_s0_0ECs90uylq1XzCH_22live_invoke_skill_turn
FNDA:0,_RINvMs_NtCs6KM4JgF65Wk_14novel_deepseek6clientNtB5_10ChatClient19try_emit_ready_toolNCNCNvMNtCskOvt1kg1spG_10novel_core15llm_stream_turnNtNtB1t_6engine11AgentEngine24run_live_llm_stream_turn0s_0ECs90uylq1XzCH_22live_invoke_skill_turn
FNDA:0,_RNCINvMNtCs6KM4JgF65Wk_14novel_deepseek6clientNtB5_18StreamAccumulators11apply_chunkNCNCNvMNtCskOvt1kg1spG_10novel_core15llm_stream_turnNtNtB1t_6engine11AgentEngine24run_live_llm_stream_turn0s_0NCB1m_s0_0Es_0Cs90uylq1XzCH_22live_invoke_skill_turn
FNDA:0,_RNCINvMs_NtCs6KM4JgF65Wk_14novel_deepseek6clientNtB7_10ChatClient13create_streamNCNCNvMNtCskOvt1kg1spG_10novel_core15llm_stream_turnNtNtB1p_6engine11AgentEngine24run_live_llm_stream_turn0s_0NCB1i_s0_0E0Cs90uylq1XzCH_22live_invoke_skill_turn
FNDA:0,_RNCINvMs_NtCs6KM4JgF65Wk_14novel_deepseek6clientNtB7_10ChatClient19try_emit_ready_toolNCNCNvMNtCskOvt1kg1spG_10novel_core15llm_stream_turnNtNtB1v_6engine11AgentEngine24run_live_llm_stream_turn0s_0E0Cs90uylq1XzCH_22live_invoke_skill_turn
FNDA:0,_RNCNCINvMs_NtCs6KM4JgF65Wk_14novel_deepseek6clientNtB9_10ChatClient13create_streamNCNCNvMNtCskOvt1kg1spG_10novel_core15llm_stream_turnNtNtB1r_6engine11AgentEngine24run_live_llm_stream_turn0s_0NCB1k_s0_0E00Cs90uylq1XzCH_22live_invoke_skill_turn
FNDA:0,_RNCNCINvMs_NtCs6KM4JgF65Wk_14novel_deepseek6clientNtB9_10ChatClient13create_streamNCNCNvMNtCskOvt1kg1spG_10novel_core15llm_stream_turnNtNtB1r_6engine11AgentEngine24run_live_llm_stream_turn0s_0NCB1k_s0_0E0s0_0Cs90uylq1XzCH_22live_invoke_skill_turn
FNDA:0,_RNCNCINvMs_NtCs6KM4JgF65Wk_14novel_deepseek6clientNtB9_10ChatClient13create_streamNCNCNvMNtCskOvt1kg1spG_10novel_core15llm_stream_turnNtNtB1r_6engine11AgentEngine24run_live_llm_stream_turn0s_0NCB1k_s0_0E0s_0Cs90uylq1XzCH_22live_invoke_skill_turn
FNDA:0,_RINvMNtCs6KM4JgF65Wk_14novel_deepseek6clientNtB3_18StreamAccumulators11apply_chunkNCNCNvMNtCskOvt1kg1spG_10novel_core15llm_stream_turnNtNtB1r_6engine11AgentEngine24run_live_llm_stream_turn0s_0NCB1k_s0_0ECs5ts0mUYpT8u_12novel_server
FNDA:0,_RINvMs_NtCs6KM4JgF65Wk_14novel_deepseek6clientNtB5_10ChatClient13create_streamNCNCNvMNtCskOvt1kg1spG_10novel_core15llm_stream_turnNtNtB1n_6engine11AgentEngine24run_live_llm_stream_turn0s_0NCB1g_s0_0ECs5ts0mUYpT8u_12novel_server
FNDA:0,_RINvMs_NtCs6KM4JgF65Wk_14novel_deepseek6clientNtB5_10ChatClient19try_emit_ready_toolNCNCNvMNtCskOvt1kg1spG_10novel_core15llm_stream_turnNtNtB1t_6engine11AgentEngine24run_live_llm_stream_turn0s_0ECs5ts0mUYpT8u_12novel_server
FNDA:0,_RNCINvMNtCs6KM4JgF65Wk_14novel_deepseek6clientNtB5_18StreamAccumulators11apply_chunkNCNCNvMNtCskOvt1kg1spG_10novel_core15llm_stream_turnNtNtB1t_6engine11AgentEngine24run_live_llm_stream_turn0s_0NCB1m_s0_0Es_0Cs5ts0mUYpT8u_12novel_server
FNDA:0,_RNCINvMs_NtCs6KM4JgF65Wk_14novel_deepseek6clientNtB7_10ChatClient13create_streamNCNCNvMNtCskOvt1kg1spG_10novel_core15llm_stream_turnNtNtB1p_6engine11AgentEngine24run_live_llm_stream_turn0s_0NCB1i_s0_0E0Cs5ts0mUYpT8u_12novel_server
FNDA:0,_RNCINvMs_NtCs6KM4JgF65Wk_14novel_deepseek6clientNtB7_10ChatClient19try_emit_ready_toolNCNCNvMNtCskOvt1kg1spG_10novel_core15llm_stream_turnNtNtB1v_6engine11AgentEngine24run_live_llm_stream_turn0s_0E0Cs5ts0mUYpT8u_12novel_server
FNDA:0,_RNCNCINvMs_NtCs6KM4JgF65Wk_14novel_deepseek6clientNtB9_10ChatClient13create_streamNCNCNvMNtCskOvt1kg1spG_10novel_core15llm_stream_turnNtNtB1r_6engine11AgentEngine24run_live_llm_stream_turn0s_0NCB1k_s0_0E00Cs5ts0mUYpT8u_12novel_server
FNDA:0,_RNCNCINvMs_NtCs6KM4JgF65Wk_14novel_deepseek6clientNtB9_10ChatClient13create_streamNCNCNvMNtCskOvt1kg1spG_10novel_core15llm_stream_turnNtNtB1r_6engine11AgentEngine24run_live_llm_stream_turn0s_0NCB1k_s0_0E0s0_0Cs5ts0mUYpT8u_12novel_server
FNDA:0,_RNCNCINvMs_NtCs6KM4JgF65Wk_14novel_deepseek6clientNtB9_10ChatClient13create_streamNCNCNvMNtCskOvt1kg1spG_10novel_core15llm_stream_turnNtNtB1r_6engine11AgentEngine24run_live_llm_stream_turn0s_0NCB1k_s0_0E0s_0Cs5ts0mUYpT8u_12novel_server
FNDA:0,_RINvMNtCs6KM4JgF65Wk_14novel_deepseek6clientNtB3_18StreamAccumulators11apply_chunkFNtNtB5_5types11LlmToolCallEuNCNCNvMs_B3_NtB3_10ChatClient19complete_via_stream00ECsgAl8xIys83E_10novel_core
FNDA:161,_RINvMNtCs6KM4JgF65Wk_14novel_deepseek6clientNtB3_18StreamAccumulators11apply_chunkNCNCNvMNtCsgAl8xIys83E_10novel_core15llm_stream_turnNtNtB1r_6engine11AgentEngine24run_live_llm_stream_turn0s_0NCB1k_s0_0EB1r_
FNDA:1,_RINvMNtCs6KM4JgF65Wk_14novel_deepseek6clientNtB3_18StreamAccumulators11apply_chunkNCNCNvNtCsgAl8xIys83E_10novel_core17subagent_llm_turn29fetch_subagent_llm_completion00NCB1k_s_0EB1q_
FNDA:0,_RINvMs_NtCs6KM4JgF65Wk_14novel_deepseek6clientNtB5_10ChatClient13create_streamFNtNtB7_5types11LlmToolCallEuNCNCNvB2_19complete_via_stream00ECsgAl8xIys83E_10novel_core
FNDA:81,_RINvMs_NtCs6KM4JgF65Wk_14novel_deepseek6clientNtB5_10ChatClient13create_streamNCNCNvMNtCsgAl8xIys83E_10novel_core15llm_stream_turnNtNtB1n_6engine11AgentEngine24run_live_llm_stream_turn0s_0NCB1g_s0_0EB1n_
FNDA:1,_RINvMs_NtCs6KM4JgF65Wk_14novel_deepseek6clientNtB5_10ChatClient13create_streamNCNCNvNtCsgAl8xIys83E_10novel_core17subagent_llm_turn29fetch_subagent_llm_completion00NCB1g_s_0EB1m_
FNDA:0,_RINvMs_NtCs6KM4JgF65Wk_14novel_deepseek6clientNtB5_10ChatClient19try_emit_ready_toolFNtNtB7_5types11LlmToolCallEuECsgAl8xIys83E_10novel_core
FNDA:160,_RINvMs_NtCs6KM4JgF65Wk_14novel_deepseek6clientNtB5_10ChatClient19try_emit_ready_toolNCNCNvMNtCsgAl8xIys83E_10novel_core15llm_stream_turnNtNtB1t_6engine11AgentEngine24run_live_llm_stream_turn0s_0EB1t_
FNDA:0,_RINvMs_NtCs6KM4JgF65Wk_14novel_deepseek6clientNtB5_10ChatClient19try_emit_ready_toolNCNCNvNtCsgAl8xIys83E_10novel_core17subagent_llm_turn29fetch_subagent_llm_completion00EB1s_
FNDA:0,_RNCINvMNtCs6KM4JgF65Wk_14novel_deepseek6clientNtB5_18StreamAccumulators11apply_chunkFNtNtB7_5types11LlmToolCallEuNCNCNvMs_B5_NtB5_10ChatClient19complete_via_stream00Es_0CsgAl8xIys83E_10novel_core
FNDA:80,_RNCINvMNtCs6KM4JgF65Wk_14novel_deepseek6clientNtB5_18StreamAccumulators11apply_chunkNCNCNvMNtCsgAl8xIys83E_10novel_core15llm_stream_turnNtNtB1t_6engine11AgentEngine24run_live_llm_stream_turn0s_0NCB1m_s0_0Es_0B1t_
FNDA:0,_RNCINvMNtCs6KM4JgF65Wk_14novel_deepseek6clientNtB5_18StreamAccumulators11apply_chunkNCNCNvNtCsgAl8xIys83E_10novel_core17subagent_llm_turn29fetch_subagent_llm_completion00NCB1m_s_0Es_0B1s_
FNDA:0,_RNCINvMs_NtCs6KM4JgF65Wk_14novel_deepseek6clientNtB7_10ChatClient13create_streamFNtNtB9_5types11LlmToolCallEuNCNCNvB4_19complete_via_stream00E0CsgAl8xIys83E_10novel_core
FNDA:81,_RNCINvMs_NtCs6KM4JgF65Wk_14novel_deepseek6clientNtB7_10ChatClient13create_streamNCNCNvMNtCsgAl8xIys83E_10novel_core15llm_stream_turnNtNtB1p_6engine11AgentEngine24run_live_llm_stream_turn0s_0NCB1i_s0_0E0B1p_
FNDA:1,_RNCINvMs_NtCs6KM4JgF65Wk_14novel_deepseek6clientNtB7_10ChatClient13create_streamNCNCNvNtCsgAl8xIys83E_10novel_core17subagent_llm_turn29fetch_subagent_llm_completion00NCB1i_s_0E0B1o_
FNDA:0,_RNCINvMs_NtCs6KM4JgF65Wk_14novel_deepseek6clientNtB7_10ChatClient19try_emit_ready_toolFNtNtB9_5types11LlmToolCallEuE0CsgAl8xIys83E_10novel_core
FNDA:80,_RNCINvMs_NtCs6KM4JgF65Wk_14novel_deepseek6clientNtB7_10ChatClient19try_emit_ready_toolNCNCNvMNtCsgAl8xIys83E_10novel_core15llm_stream_turnNtNtB1v_6engine11AgentEngine24run_live_llm_stream_turn0s_0E0B1v_
FNDA:0,_RNCINvMs_NtCs6KM4JgF65Wk_14novel_deepseek6clientNtB7_10ChatClient19try_emit_ready_toolNCNCNvNtCsgAl8xIys83E_10novel_core17subagent_llm_turn29fetch_subagent_llm_completion00E0B1u_
FNDA:0,_RNCNCINvMs_NtCs6KM4JgF65Wk_14novel_deepseek6clientNtB9_10ChatClient13create_streamFNtNtBb_5types11LlmToolCallEuNCNCNvB6_19complete_via_stream00E00CsgAl8xIys83E_10novel_core
FNDA:0,_RNCNCINvMs_NtCs6KM4JgF65Wk_14novel_deepseek6clientNtB9_10ChatClient13create_streamFNtNtBb_5types11LlmToolCallEuNCNCNvB6_19complete_via_stream00E0s0_0CsgAl8xIys83E_10novel_core
FNDA:0,_RNCNCINvMs_NtCs6KM4JgF65Wk_14novel_deepseek6clientNtB9_10ChatClient13create_streamFNtNtBb_5types11LlmToolCallEuNCNCNvB6_19complete_via_stream00E0s_0CsgAl8xIys83E_10novel_core
FNDA:0,_RNCNCINvMs_NtCs6KM4JgF65Wk_14novel_deepseek6clientNtB9_10ChatClient13create_streamNCNCNvMNtCsgAl8xIys83E_10novel_core15llm_stream_turnNtNtB1r_6engine11AgentEngine24run_live_llm_stream_turn0s_0NCB1k_s0_0E00B1r_
FNDA:0,_RNCNCINvMs_NtCs6KM4JgF65Wk_14novel_deepseek6clientNtB9_10ChatClient13create_streamNCNCNvMNtCsgAl8xIys83E_10novel_core15llm_stream_turnNtNtB1r_6engine11AgentEngine24run_live_llm_stream_turn0s_0NCB1k_s0_0E0s0_0B1r_
FNDA:0,_RNCNCINvMs_NtCs6KM4JgF65Wk_14novel_deepseek6clientNtB9_10ChatClient13create_streamNCNCNvMNtCsgAl8xIys83E_10novel_core15llm_stream_turnNtNtB1r_6engine11AgentEngine24run_live_llm_stream_turn0s_0NCB1k_s0_0E0s_0B1r_
FNDA:0,_RNCNCINvMs_NtCs6KM4JgF65Wk_14novel_deepseek6clientNtB9_10ChatClient13create_streamNCNCNvNtCsgAl8xIys83E_10novel_core17subagent_llm_turn29fetch_subagent_llm_completion00NCB1k_s_0E00B1q_
FNDA:0,_RNCNCINvMs_NtCs6KM4JgF65Wk_14novel_deepseek6clientNtB9_10ChatClient13create_streamNCNCNvNtCsgAl8xIys83E_10novel_core17subagent_llm_turn29fetch_subagent_llm_completion00NCB1k_s_0E0s0_0B1q_
FNDA:0,_RNCNCINvMs_NtCs6KM4JgF65Wk_14novel_deepseek6clientNtB9_10ChatClient13create_streamNCNCNvNtCsgAl8xIys83E_10novel_core17subagent_llm_turn29fetch_subagent_llm_completion00NCB1k_s_0E0s_0B1q_
FNDA:0,_RNCNCNvMs_NtCs6KM4JgF65Wk_14novel_deepseek6clientNtB8_10ChatClient19complete_via_stream00CsgAl8xIys83E_10novel_core
FNDA:84,_RNCNvMs_NtCs6KM4JgF65Wk_14novel_deepseek6clientNtB6_10ChatClient11wait_cancel0CsgAl8xIys83E_10novel_core
FNDA:0,_RNCNvMs_NtCs6KM4JgF65Wk_14novel_deepseek6clientNtB6_10ChatClient19complete_via_stream0CsgAl8xIys83E_10novel_core
FNDA:0,_RNCNvMs_NtCs6KM4JgF65Wk_14novel_deepseek6clientNtB6_10ChatClient20measure_prompt_usage0CsgAl8xIys83E_10novel_core
FNDA:0,_RNCNCNvMs_NtCslaEqcgAeMjZ_14novel_deepseek6clientNtB8_10ChatClient19complete_via_stream00Ba_
FNDA:0,_RNCNvMs_NtCslaEqcgAeMjZ_14novel_deepseek6clientNtB6_10ChatClient19complete_via_stream0B8_
FNDA:0,_RNCNvMs_NtCslaEqcgAeMjZ_14novel_deepseek6clientNtB6_10ChatClient20measure_prompt_usage0B8_
FNDA:0,_RNvMs_NtCslaEqcgAeMjZ_14novel_deepseek6clientNtB4_10ChatClient13cache_tracker
FNDA:0,_RNvMs_NtCslaEqcgAeMjZ_14novel_deepseek6clientNtB4_10ChatClient17cache_tracker_mut
FNDA:0,_RNvMs_NtCslaEqcgAeMjZ_14novel_deepseek6clientNtB4_10ChatClient19complete_via_stream
FNDA:0,_RNvMs_NtCslaEqcgAeMjZ_14novel_deepseek6clientNtB4_10ChatClient20measure_prompt_usage
FNDA:1,_RNvNtNtCslaEqcgAeMjZ_14novel_deepseek6client5testss_21build_tools_non_empty
FNDA:1,_RNvNtNtCslaEqcgAeMjZ_14novel_deepseek6client5testss_26sse_chunk_parses_tool_call
FNDA:1,_RNvNtNtCslaEqcgAeMjZ_14novel_deepseek6client5testss_28offline_complete_echoes_user
FNDA:1,_RNvNtNtCslaEqcgAeMjZ_14novel_deepseek6client5testss_28to_openai_messages_all_roles
FNDA:1,_RNvNtNtCslaEqcgAeMjZ_14novel_deepseek6client5testss_31web_search_parses_mock_response
FNDA:1,_RNvNtNtCslaEqcgAeMjZ_14novel_deepseek6client5testss_33build_tools_preserves_full_schema
FNDA:1,_RNvNtNtCslaEqcgAeMjZ_14novel_deepseek6client5testss_34ready_tool_callback_once_per_index
FNDA:1,_RNvNtNtCslaEqcgAeMjZ_14novel_deepseek6client5testss_34sse_chunk_parses_reasoning_content
FNDA:1,_RNvNtNtCslaEqcgAeMjZ_14novel_deepseek6client5testss_36stream_accumulators_apply_tool_delta
FNDA:1,_RNvNtNtCslaEqcgAeMjZ_14novel_deepseek6client5testss_37create_stream_parses_sse_via_wiremock
FNDA:1,_RNvNtNtCslaEqcgAeMjZ_14novel_deepseek6client5testss_46create_stream_cancel_drains_usage_via_wiremock
FNDA:1,_RNvNtNtCslaEqcgAeMjZ_14novel_deepseek6client5testss_46from_api_key_or_env_uses_explicit_key_and_snap
FNDA:1,_RNvNtNtCslaEqcgAeMjZ_14novel_deepseek6client5testss_49from_api_key_or_env_none_without_env_returns_none
FNDA:3,_RNvMNtCslaEqcgAeMjZ_14novel_deepseek6clientNtB2_18StreamAccumulators3new
FNDA:1,_RNvMs_NtCslaEqcgAeMjZ_14novel_deepseek6clientNtB4_10ChatClient10web_search
FNDA:4,_RNvMs_NtCslaEqcgAeMjZ_14novel_deepseek6clientNtB4_10ChatClient11build_tools
FNDA:1,_RNvMs_NtCslaEqcgAeMjZ_14novel_deepseek6clientNtB4_10ChatClient11wait_cancel
FNDA:2,_RNvMs_NtCslaEqcgAeMjZ_14novel_deepseek6clientNtB4_10ChatClient13drain_pending
FNDA:2,_RNvMs_NtCslaEqcgAeMjZ_14novel_deepseek6clientNtB4_10ChatClient15make_completion
FNDA:1,_RNvMs_NtCslaEqcgAeMjZ_14novel_deepseek6clientNtB4_10ChatClient16offline_complete
FNDA:5,_RNvMs_NtCslaEqcgAeMjZ_14novel_deepseek6clientNtB4_10ChatClient18to_openai_messages
FNDA:2,_RNvMs_NtCslaEqcgAeMjZ_14novel_deepseek6clientNtB4_10ChatClient19from_api_key_or_env
FNDA:1,_RNvMs_NtCslaEqcgAeMjZ_14novel_deepseek6clientNtB4_10ChatClient22drain_usage_background
FNDA:1,_RNvMs_NtCslaEqcgAeMjZ_14novel_deepseek6clientNtB4_10ChatClient24cancelled_stream_outcome
FNDA:3,_RNvMs_NtCslaEqcgAeMjZ_14novel_deepseek6clientNtB4_10ChatClient8deepseek
FNDA:1,_RNvMs_NtCslaEqcgAeMjZ_14novel_deepseek6clientNtB4_10ChatClient8from_env
FNDA:8,_RNvNtCslaEqcgAeMjZ_14novel_deepseek6client11msg_to_json
FNDA:2,_RNvNtCslaEqcgAeMjZ_14novel_deepseek6client12tool_to_json
FNDA:1,_RINvMNtCslaEqcgAeMjZ_14novel_deepseek6clientNtB3_18StreamAccumulators11apply_chunkFNtNtB5_5types11LlmToolCallEuNCNCNvNtB3_5testss_37create_stream_parses_sse_via_wiremock00EB5_
FNDA:1,_RINvMNtCslaEqcgAeMjZ_14novel_deepseek6clientNtB3_18StreamAccumulators11apply_chunkFNtNtB5_5types11LlmToolCallEuNCNCNvNtB3_5testss_46create_stream_cancel_drains_usage_via_wiremock00EB5_
FNDA:1,_RINvMNtCslaEqcgAeMjZ_14novel_deepseek6clientNtB3_18StreamAccumulators11apply_chunkNCNvNtB3_5testss_36stream_accumulators_apply_tool_deltas_0NCB1k_0EB5_
FNDA:1,_RINvMs_NtCslaEqcgAeMjZ_14novel_deepseek6clientNtB5_10ChatClient13create_streamFNtNtB7_5types11LlmToolCallEuNCNCNvNtB5_5testss_37create_stream_parses_sse_via_wiremock00EB7_
FNDA:1,_RINvMs_NtCslaEqcgAeMjZ_14novel_deepseek6clientNtB5_10ChatClient13create_streamFNtNtB7_5types11LlmToolCallEuNCNCNvNtB5_5testss_46create_stream_cancel_drains_usage_via_wiremock00EB7_
FNDA:0,_RINvMs_NtCslaEqcgAeMjZ_14novel_deepseek6clientNtB5_10ChatClient19try_emit_ready_toolFNtNtB7_5types11LlmToolCallEuEB7_
FNDA:4,_RINvMs_NtCslaEqcgAeMjZ_14novel_deepseek6clientNtB5_10ChatClient19try_emit_ready_toolNCNvNtB5_5testss_34ready_tool_callback_once_per_index0EB7_
FNDA:1,_RINvMs_NtCslaEqcgAeMjZ_14novel_deepseek6clientNtB5_10ChatClient19try_emit_ready_toolNCNvNtB5_5testss_36stream_accumulators_apply_tool_deltas_0EB7_
FNDA:0,_RNCINvMNtCslaEqcgAeMjZ_14novel_deepseek6clientNtB5_18StreamAccumulators11apply_chunkFNtNtB7_5types11LlmToolCallEuNCNCNvNtB5_5testss_37create_stream_parses_sse_via_wiremock00Es_0B7_
FNDA:0,_RNCINvMNtCslaEqcgAeMjZ_14novel_deepseek6clientNtB5_18StreamAccumulators11apply_chunkFNtNtB7_5types11LlmToolCallEuNCNCNvNtB5_5testss_46create_stream_cancel_drains_usage_via_wiremock00Es_0B7_
FNDA:1,_RNCINvMNtCslaEqcgAeMjZ_14novel_deepseek6clientNtB5_18StreamAccumulators11apply_chunkNCNvNtB5_5testss_36stream_accumulators_apply_tool_deltas_0NCB1m_0Es_0B7_
FNDA:1,_RNCINvMs_NtCslaEqcgAeMjZ_14novel_deepseek6clientNtB7_10ChatClient13create_streamFNtNtB9_5types11LlmToolCallEuNCNCNvNtB7_5testss_37create_stream_parses_sse_via_wiremock00E0B9_
FNDA:1,_RNCINvMs_NtCslaEqcgAeMjZ_14novel_deepseek6clientNtB7_10ChatClient13create_streamFNtNtB9_5types11LlmToolCallEuNCNCNvNtB7_5testss_46create_stream_cancel_drains_usage_via_wiremock00E0B9_
FNDA:0,_RNCINvMs_NtCslaEqcgAeMjZ_14novel_deepseek6clientNtB7_10ChatClient19try_emit_ready_toolFNtNtB9_5types11LlmToolCallEuE0B9_
FNDA:2,_RNCINvMs_NtCslaEqcgAeMjZ_14novel_deepseek6clientNtB7_10ChatClient19try_emit_ready_toolNCNvNtB7_5testss_34ready_tool_callback_once_per_index0E0B9_
FNDA:1,_RNCINvMs_NtCslaEqcgAeMjZ_14novel_deepseek6clientNtB7_10ChatClient19try_emit_ready_toolNCNvNtB7_5testss_36stream_accumulators_apply_tool_deltas_0E0B9_
FNDA:0,_RNCNCINvMs_NtCslaEqcgAeMjZ_14novel_deepseek6clientNtB9_10ChatClient13create_streamFNtNtBb_5types11LlmToolCallEuNCNCNvNtB9_5testss_37create_stream_parses_sse_via_wiremock00E00Bb_
FNDA:0,_RNCNCINvMs_NtCslaEqcgAeMjZ_14novel_deepseek6clientNtB9_10ChatClient13create_streamFNtNtBb_5types11LlmToolCallEuNCNCNvNtB9_5testss_37create_stream_parses_sse_via_wiremock00E0s0_0Bb_
FNDA:0,_RNCNCINvMs_NtCslaEqcgAeMjZ_14novel_deepseek6clientNtB9_10ChatClient13create_streamFNtNtBb_5types11LlmToolCallEuNCNCNvNtB9_5testss_37create_stream_parses_sse_via_wiremock00E0s_0Bb_
FNDA:0,_RNCNCINvMs_NtCslaEqcgAeMjZ_14novel_deepseek6clientNtB9_10ChatClient13create_streamFNtNtBb_5types11LlmToolCallEuNCNCNvNtB9_5testss_46create_stream_cancel_drains_usage_via_wiremock00E00Bb_
FNDA:0,_RNCNCINvMs_NtCslaEqcgAeMjZ_14novel_deepseek6clientNtB9_10ChatClient13create_streamFNtNtBb_5types11LlmToolCallEuNCNCNvNtB9_5testss_46create_stream_cancel_drains_usage_via_wiremock00E0s0_0Bb_
FNDA:1,_RNCNCINvMs_NtCslaEqcgAeMjZ_14novel_deepseek6clientNtB9_10ChatClient13create_streamFNtNtBb_5types11LlmToolCallEuNCNCNvNtB9_5testss_46create_stream_cancel_drains_usage_via_wiremock00E0s_0Bb_
FNDA:1,_RNCNCNCNvMs_NtCslaEqcgAeMjZ_14novel_deepseek6clientNtBa_10ChatClient22drain_usage_background000Bc_
FNDA:1,_RNCNCNCNvMs_NtCslaEqcgAeMjZ_14novel_deepseek6clientNtBa_10ChatClient22drain_usage_background00s0_0Bc_
FNDA:1,_RNCNCNCNvMs_NtCslaEqcgAeMjZ_14novel_deepseek6clientNtBa_10ChatClient22drain_usage_background00s1_0Bc_
FNDA:1,_RNCNCNCNvMs_NtCslaEqcgAeMjZ_14novel_deepseek6clientNtBa_10ChatClient22drain_usage_background00s_0Bc_
FNDA:0,_RNCNCNvMs_NtCslaEqcgAeMjZ_14novel_deepseek6clientNtB8_10ChatClient10web_search00Ba_
FNDA:0,_RNCNCNvMs_NtCslaEqcgAeMjZ_14novel_deepseek6clientNtB8_10ChatClient10web_search0s0_0Ba_
FNDA:1,_RNCNCNvMs_NtCslaEqcgAeMjZ_14novel_deepseek6clientNtB8_10ChatClient10web_search0s1_0Ba_
FNDA:1,_RNCNCNvMs_NtCslaEqcgAeMjZ_14novel_deepseek6clientNtB8_10ChatClient10web_search0s2_0Ba_
FNDA:1,_RNCNCNvMs_NtCslaEqcgAeMjZ_14novel_deepseek6clientNtB8_10ChatClient10web_search0s3_0Ba_
FNDA:1,_RNCNCNvMs_NtCslaEqcgAeMjZ_14novel_deepseek6clientNtB8_10ChatClient10web_search0s4_0Ba_
FNDA:1,_RNCNCNvMs_NtCslaEqcgAeMjZ_14novel_deepseek6clientNtB8_10ChatClient10web_search0s5_0Ba_
FNDA:1,_RNCNCNvMs_NtCslaEqcgAeMjZ_14novel_deepseek6clientNtB8_10ChatClient10web_search0s6_0Ba_
FNDA:0,_RNCNCNvMs_NtCslaEqcgAeMjZ_14novel_deepseek6clientNtB8_10ChatClient10web_search0s_0Ba_
FNDA:1,_RNCNCNvMs_NtCslaEqcgAeMjZ_14novel_deepseek6clientNtB8_10ChatClient22drain_usage_background00Ba_
FNDA:1,_RNCNvMs_NtCslaEqcgAeMjZ_14novel_deepseek6clientNtB6_10ChatClient10web_search0B8_
FNDA:2,_RNCNvMs_NtCslaEqcgAeMjZ_14novel_deepseek6clientNtB6_10ChatClient11build_tools0B8_
FNDA:0,_RNCNvMs_NtCslaEqcgAeMjZ_14novel_deepseek6clientNtB6_10ChatClient11wait_cancel0B8_
FNDA:1,_RNCNvMs_NtCslaEqcgAeMjZ_14novel_deepseek6clientNtB6_10ChatClient16offline_complete0B8_
FNDA:1,_RNCNvMs_NtCslaEqcgAeMjZ_14novel_deepseek6clientNtB6_10ChatClient16offline_completes_0B8_
FNDA:1,_RNCNvMs_NtCslaEqcgAeMjZ_14novel_deepseek6clientNtB6_10ChatClient19from_api_key_or_env0B8_
FNDA:1,_RNCNvMs_NtCslaEqcgAeMjZ_14novel_deepseek6clientNtB6_10ChatClient19from_api_key_or_envs_0B8_
FNDA:1,_RNCNvMs_NtCslaEqcgAeMjZ_14novel_deepseek6clientNtB6_10ChatClient22drain_usage_background0B8_
FNDA:1,_RNCNvMs_NtCslaEqcgAeMjZ_14novel_deepseek6clientNtB6_10ChatClient24cancelled_stream_outcome0B8_
FNDA:1,_RNCNvNtCslaEqcgAeMjZ_14novel_deepseek6client11msg_to_json0B5_
FNDA:2,_RNCNCNvNtNtCslaEqcgAeMjZ_14novel_deepseek6client5testss_37create_stream_parses_sse_via_wiremock00B9_
FNDA:1,_RNCNCNvNtNtCslaEqcgAeMjZ_14novel_deepseek6client5testss_46create_stream_cancel_drains_usage_via_wiremock00B9_
FNDA:1,_RNCNvNtNtCslaEqcgAeMjZ_14novel_deepseek6client5testss_31web_search_parses_mock_response0B7_
FNDA:2,_RNCNvNtNtCslaEqcgAeMjZ_14novel_deepseek6client5testss_34ready_tool_callback_once_per_index0B7_
FNDA:2,_RNCNvNtNtCslaEqcgAeMjZ_14novel_deepseek6client5testss_36stream_accumulators_apply_tool_delta0B7_
FNDA:1,_RNCNvNtNtCslaEqcgAeMjZ_14novel_deepseek6client5testss_36stream_accumulators_apply_tool_deltas_0B7_
FNDA:1,_RNCNvNtNtCslaEqcgAeMjZ_14novel_deepseek6client5testss_37create_stream_parses_sse_via_wiremock0B7_
FNDA:1,_RNCNvNtNtCslaEqcgAeMjZ_14novel_deepseek6client5testss_46create_stream_cancel_drains_usage_via_wiremock0B7_
FNDA:0,_RINvMNtCs6KM4JgF65Wk_14novel_deepseek6clientNtB3_18StreamAccumulators11apply_chunkNCNCNvMNtCskOvt1kg1spG_10novel_core15llm_stream_turnNtNtB1r_6engine11AgentEngine24run_live_llm_stream_turn0s_0NCB1k_s0_0ECs4uMLwczbohT_12novel_server
FNDA:0,_RINvMs_NtCs6KM4JgF65Wk_14novel_deepseek6clientNtB5_10ChatClient13create_streamNCNCNvMNtCskOvt1kg1spG_10novel_core15llm_stream_turnNtNtB1n_6engine11AgentEngine24run_live_llm_stream_turn0s_0NCB1g_s0_0ECs4uMLwczbohT_12novel_server
FNDA:0,_RINvMs_NtCs6KM4JgF65Wk_14novel_deepseek6clientNtB5_10ChatClient19try_emit_ready_toolNCNCNvMNtCskOvt1kg1spG_10novel_core15llm_stream_turnNtNtB1t_6engine11AgentEngine24run_live_llm_stream_turn0s_0ECs4uMLwczbohT_12novel_server
FNDA:0,_RNCINvMNtCs6KM4JgF65Wk_14novel_deepseek6clientNtB5_18StreamAccumulators11apply_chunkNCNCNvMNtCskOvt1kg1spG_10novel_core15llm_stream_turnNtNtB1t_6engine11AgentEngine24run_live_llm_stream_turn0s_0NCB1m_s0_0Es_0Cs4uMLwczbohT_12novel_server
FNDA:0,_RNCINvMs_NtCs6KM4JgF65Wk_14novel_deepseek6clientNtB7_10ChatClient13create_streamNCNCNvMNtCskOvt1kg1spG_10novel_core15llm_stream_turnNtNtB1p_6engine11AgentEngine24run_live_llm_stream_turn0s_0NCB1i_s0_0E0Cs4uMLwczbohT_12novel_server
FNDA:0,_RNCINvMs_NtCs6KM4JgF65Wk_14novel_deepseek6clientNtB7_10ChatClient19try_emit_ready_toolNCNCNvMNtCskOvt1kg1spG_10novel_core15llm_stream_turnNtNtB1v_6engine11AgentEngine24run_live_llm_stream_turn0s_0E0Cs4uMLwczbohT_12novel_server
FNDA:0,_RNCNCINvMs_NtCs6KM4JgF65Wk_14novel_deepseek6clientNtB9_10ChatClient13create_streamNCNCNvMNtCskOvt1kg1spG_10novel_core15llm_stream_turnNtNtB1r_6engine11AgentEngine24run_live_llm_stream_turn0s_0NCB1k_s0_0E00Cs4uMLwczbohT_12novel_server
FNDA:0,_RNCNCINvMs_NtCs6KM4JgF65Wk_14novel_deepseek6clientNtB9_10ChatClient13create_streamNCNCNvMNtCskOvt1kg1spG_10novel_core15llm_stream_turnNtNtB1r_6engine11AgentEngine24run_live_llm_stream_turn0s_0NCB1k_s0_0E0s0_0Cs4uMLwczbohT_12novel_server
FNDA:0,_RNCNCINvMs_NtCs6KM4JgF65Wk_14novel_deepseek6clientNtB9_10ChatClient13create_streamNCNCNvMNtCskOvt1kg1spG_10novel_core15llm_stream_turnNtNtB1r_6engine11AgentEngine24run_live_llm_stream_turn0s_0NCB1k_s0_0E0s_0Cs4uMLwczbohT_12novel_server
FNDA:0,_RNCNCNvMs_NtCs6KM4JgF65Wk_14novel_deepseek6clientNtB8_10ChatClient10web_search00Cs6KAoqn40E16_11novel_tools
FNDA:0,_RNCNCNvMs_NtCs6KM4JgF65Wk_14novel_deepseek6clientNtB8_10ChatClient10web_search0s0_0Cs6KAoqn40E16_11novel_tools
FNDA:0,_RNCNCNvMs_NtCs6KM4JgF65Wk_14novel_deepseek6clientNtB8_10ChatClient10web_search0s1_0Cs6KAoqn40E16_11novel_tools
FNDA:0,_RNCNCNvMs_NtCs6KM4JgF65Wk_14novel_deepseek6clientNtB8_10ChatClient10web_search0s2_0Cs6KAoqn40E16_11novel_tools
FNDA:0,_RNCNCNvMs_NtCs6KM4JgF65Wk_14novel_deepseek6clientNtB8_10ChatClient10web_search0s3_0Cs6KAoqn40E16_11novel_tools
FNDA:0,_RNCNCNvMs_NtCs6KM4JgF65Wk_14novel_deepseek6clientNtB8_10ChatClient10web_search0s4_0Cs6KAoqn40E16_11novel_tools
FNDA:0,_RNCNCNvMs_NtCs6KM4JgF65Wk_14novel_deepseek6clientNtB8_10ChatClient10web_search0s5_0Cs6KAoqn40E16_11novel_tools
FNDA:0,_RNCNCNvMs_NtCs6KM4JgF65Wk_14novel_deepseek6clientNtB8_10ChatClient10web_search0s6_0Cs6KAoqn40E16_11novel_tools
FNDA:0,_RNCNCNvMs_NtCs6KM4JgF65Wk_14novel_deepseek6clientNtB8_10ChatClient10web_search0s_0Cs6KAoqn40E16_11novel_tools
FNDA:0,_RNCNvMs_NtCs6KM4JgF65Wk_14novel_deepseek6clientNtB6_10ChatClient10web_search0Cs6KAoqn40E16_11novel_tools
FNF:76
FNH:64
DA:96,85
DA:97,85
DA:98,85
DA:99,85
DA:100,85
DA:101,85
DA:102,85
DA:103,85
DA:104,85
DA:106,165
DA:107,165
DA:108,165
DA:109,165
DA:110,165
DA:111,165
DA:112,165
DA:114,165
DA:115,83
DA:116,83
DA:117,83
DA:118,83
DA:119,83
DA:120,83
DA:121,83
DA:122,83
DA:123,82
DA:124,165
DA:125,0
DA:127,165
DA:128,165
DA:129,80
DA:130,85
DA:131,165
DA:132,165
DA:133,0
DA:134,0
DA:135,0
DA:136,0
DA:137,0
DA:138,0
DA:139,0
DA:140,0
DA:141,165
DA:142,165
DA:143,4
DA:144,4
DA:145,4
DA:146,4
DA:147,4
DA:148,4
DA:149,161
DA:150,165
DA:151,81
DA:152,81
DA:153,81
DA:154,81
DA:155,81
DA:156,81
DA:159,81
DA:160,81
DA:161,81
DA:162,81
DA:163,81
DA:164,81
DA:165,81
DA:166,81
DA:167,81
DA:168,81
DA:169,81
DA:170,81
DA:171,81
DA:172,81
DA:173,81
DA:174,81
DA:175,81
DA:176,81
DA:177,81
DA:178,81
DA:179,81
DA:180,81
DA:181,81
DA:182,81
DA:183,0
DA:184,81
DA:185,81
DA:186,81
DA:187,0
DA:189,84
DA:191,165
DA:197,6
DA:198,6
DA:199,6
DA:200,6
DA:201,6
DA:202,6
DA:203,6
DA:204,6
DA:205,6
DA:206,6
DA:208,0
DA:209,0
DA:210,0
DA:212,0
DA:213,0
DA:214,0
DA:216,20
DA:217,20
DA:218,0
DA:219,20
DA:222,24
DA:223,24
DA:224,24
DA:225,24
DA:226,24
DA:227,24
DA:228,24
DA:229,24
DA:230,24
DA:231,24
DA:234,0
DA:235,0
DA:236,0
DA:237,0
DA:238,0
DA:239,0
DA:240,0
DA:241,0
DA:242,0
DA:243,0
DA:244,0
DA:245,0
DA:246,0
DA:250,169
DA:251,169
DA:252,169
DA:254,86
DA:255,86
DA:256,86
DA:257,1865
DA:258,86
DA:259,86
DA:263,84
DA:264,84
DA:265,84
DA:266,84
DA:267,84
DA:268,84
DA:269,84
DA:270,84
DA:271,84
DA:272,84
DA:273,84
DA:274,84
DA:275,84
DA:276,84
DA:277,84
DA:279,84
DA:280,84
DA:281,84
DA:282,84
DA:283,84
DA:284,84
DA:286,84
DA:287,82
DA:288,82
DA:289,84
DA:290,81
DA:291,81
DA:293,84
DA:294,84
DA:295,84
DA:296,84
DA:297,84
DA:298,84
DA:299,84
DA:300,84
DA:301,84
DA:302,84
DA:303,84
DA:305,84
DA:306,0
DA:307,0
DA:308,0
DA:309,0
DA:310,0
DA:311,0
DA:312,0
DA:313,0
DA:314,0
DA:315,0
DA:316,0
DA:317,0
DA:318,0
DA:319,84
DA:321,84
DA:322,84
DA:324,84
DA:325,84
DA:328,84
DA:329,84
DA:330,84
DA:332,84
DA:333,1
DA:334,1
DA:337,167
DA:338,165
DA:339,165
DA:340,165
DA:341,0
DA:345,2
DA:348,167
DA:349,84
DA:350,84
DA:351,84
DA:354,410
DA:355,410
DA:356,410
DA:358,410
DA:359,163
DA:360,83
DA:361,0
DA:362,0
DA:363,0
DA:364,0
DA:365,0
DA:366,0
DA:368,164
DA:369,164
DA:370,164
DA:371,0
DA:372,0
DA:373,0
DA:374,0
DA:375,0
DA:376,0
DA:379,164
DA:380,164
DA:381,163
DA:382,1
DA:383,162
DA:384,1
DA:390,83
DA:391,83
DA:392,83
DA:394,83
DA:395,82
DA:396,80
DA:397,80
DA:398,1
DA:399,83
DA:400,83
DA:401,83
DA:402,83
DA:403,83
DA:404,83
DA:405,83
DA:407,83
DA:408,83
DA:409,83
DA:410,83
DA:411,84
DA:413,165
DA:414,165
DA:415,165
DA:417,165
DA:418,81
DA:419,84
DA:420,84
DA:421,0
DA:426,84
DA:427,83
DA:428,1
DA:430,83
DA:431,0
DA:432,83
DA:433,83
DA:434,83
DA:435,83
DA:436,83
DA:437,83
DA:438,83
DA:439,165
DA:443,84
DA:444,84
DA:445,84
DA:446,80
DA:447,80
DA:448,80
DA:449,80
DA:450,80
DA:451,80
DA:452,80
DA:454,84
DA:455,84
DA:457,1
DA:458,1
DA:459,1
DA:460,1
DA:461,1
DA:462,1
DA:463,1
DA:464,1
DA:465,1
DA:466,1
DA:467,1
DA:468,1
DA:469,1
DA:471,1
DA:472,1
DA:473,1
DA:474,1
DA:475,1
DA:476,1
DA:477,1
DA:478,1
DA:479,1
DA:480,1
DA:481,1
DA:482,1
DA:483,1
DA:484,1
DA:485,1
DA:487,84
DA:488,84
DA:489,84
DA:490,84
DA:491,84
DA:492,84
DA:493,84
DA:495,84
DA:496,80
DA:498,4
DA:500,84
DA:501,84
DA:503,0
DA:505,84
DA:506,84
DA:507,84
DA:509,84
DA:511,165
DA:512,84
DA:513,84
DA:515,0
DA:539,1
DA:540,1
DA:541,1
DA:542,1
DA:543,1
DA:544,1
DA:545,1
DA:546,1
DA:547,1
DA:548,1
DA:549,1
DA:551,1
DA:552,0
DA:553,1
DA:554,1
DA:555,0
DA:556,1
DA:557,1
DA:558,1
DA:559,1
DA:560,1
DA:561,1
DA:562,1
DA:563,1
DA:564,1
DA:565,1
DA:566,1
DA:567,1
DA:568,1
DA:569,1
DA:570,1
DA:571,1
DA:572,1
DA:573,1
DA:574,1
DA:575,1
DA:576,1
DA:577,1
DA:578,1
DA:579,1
DA:580,1
DA:581,1
DA:582,1
DA:583,1
DA:584,1
DA:585,1
DA:587,0
DA:588,0
DA:589,0
DA:590,0
DA:591,0
DA:592,0
DA:593,0
DA:594,0
DA:595,0
DA:596,0
DA:597,0
DA:598,0
DA:599,0
DA:600,0
DA:601,0
DA:603,0
DA:605,0
DA:606,0
DA:608,0
DA:610,19
DA:611,19
DA:612,19
DA:613,19
DA:614,19
DA:615,19
DA:616,19
DA:617,19
DA:618,19
DA:619,19
DA:620,19
DA:621,19
DA:622,19
DA:623,19
DA:624,19
DA:629,1
DA:630,1
DA:631,1
DA:632,1
DA:633,1
DA:634,1
DA:635,1
DA:636,1
DA:637,1
DA:638,1
DA:639,1
DA:640,1
DA:641,1
DA:643,1
DA:644,1
DA:645,1
DA:646,1
DA:648,1
DA:651,1
DA:652,1
DA:653,1
DA:654,1
DA:655,1
DA:656,1
DA:657,1
DA:658,1
DA:659,1
DA:660,1
DA:661,1
DA:662,1
DA:663,1
DA:664,1
DA:665,1
DA:666,1
DA:667,0
DA:668,0
DA:669,0
DA:670,1
DA:672,1
DA:673,1
DA:675,1
DA:676,1
DA:677,1
DA:678,1
DA:679,1
DA:680,1
DA:681,1
DA:682,1
DA:683,1
DA:684,1
DA:685,1
DA:686,1
DA:687,1
DA:688,1
DA:689,1
DA:690,1
DA:691,1
DA:692,1
DA:693,1
DA:694,1
DA:695,1
DA:696,1
DA:697,1
DA:698,1
DA:699,1
DA:700,1
DA:701,1
DA:702,1
DA:704,0
DA:705,0
DA:707,0
DA:708,1
DA:709,1
DA:714,12974
DA:715,12974
DA:716,12974
DA:717,6321
DA:718,0
DA:719,0
DA:720,0
DA:721,6321
DA:722,6653
DA:723,12974
DA:724,6321
DA:725,6653
DA:726,12974
DA:727,6321
DA:728,6321
DA:729,6321
DA:730,6321
DA:731,6321
DA:732,6321
DA:734,6321
DA:735,6321
DA:737,6653
DA:738,12974
DA:739,12974
DA:741,1865
DA:742,1865
DA:743,1865
DA:744,1865
DA:746,1865
DA:747,1865
DA:748,1865
DA:749,1865
DA:750,1865
DA:758,1
DA:759,1
DA:760,1
DA:761,1
DA:762,1
DA:765,1
DA:766,1
DA:767,1
DA:768,1
DA:769,1
DA:770,1
DA:773,1
DA:774,1
DA:775,1
DA:776,1
DA:777,1
DA:778,0
DA:779,1
DA:780,1
DA:781,1
DA:784,1
DA:785,1
DA:786,1
DA:787,1
DA:788,1
DA:789,1
DA:790,1
DA:791,1
DA:792,1
DA:793,1
DA:794,1
DA:797,1
DA:798,1
DA:799,1
DA:800,1
DA:801,1
DA:802,1
DA:803,1
DA:804,1
DA:807,1
DA:808,1
DA:809,1
DA:810,1
DA:811,1
DA:813,1
DA:814,1
DA:815,1
DA:818,1
DA:819,1
DA:820,1
DA:821,1
DA:822,1
DA:823,1
DA:824,1
DA:825,1
DA:826,1
DA:827,1
DA:828,1
DA:829,1
DA:830,1
DA:831,1
DA:832,1
DA:833,1
DA:834,1
DA:835,1
DA:836,1
DA:837,1
DA:838,1
DA:839,1
DA:840,1
DA:841,1
DA:842,1
DA:843,1
DA:844,1
DA:845,1
DA:846,1
DA:847,1
DA:848,1
DA:849,1
DA:850,1
DA:851,1
DA:853,1
DA:854,1
DA:855,1
DA:856,1
DA:857,1
DA:860,1
DA:861,1
DA:862,1
DA:863,1
DA:864,1
DA:865,1
DA:868,1
DA:871,1
DA:872,1
DA:873,1
DA:874,1
DA:875,1
DA:876,1
DA:877,1
DA:878,1
DA:879,1
DA:880,1
DA:881,1
DA:882,1
DA:883,1
DA:886,1
DA:889,1
DA:890,1
DA:891,2
DA:893,1
DA:894,1
DA:895,1
DA:896,1
DA:897,1
DA:898,1
DA:899,1
DA:900,1
DA:901,1
DA:902,1
DA:903,1
DA:904,1
DA:905,1
DA:906,1
DA:907,1
DA:908,1
DA:909,1
DA:910,1
DA:911,1
DA:912,1
DA:913,1
DA:915,1
DA:916,1
DA:917,1
DA:918,1
DA:920,1
DA:921,1
DA:922,1
DA:923,1
DA:924,1
DA:925,1
DA:926,1
DA:929,1
DA:930,1
DA:931,1
DA:932,1
DA:933,1
DA:934,1
DA:935,1
DA:936,2
DA:937,1
DA:939,1
DA:940,1
DA:941,1
DA:944,1
DA:948,1
DA:949,1
DA:950,1
DA:951,1
DA:952,1
DA:953,1
DA:954,1
DA:955,1
DA:956,1
DA:957,1
DA:958,1
DA:960,1
DA:961,1
DA:962,1
DA:963,1
DA:964,1
DA:965,1
DA:966,1
DA:967,1
DA:968,1
DA:969,2
DA:970,1
DA:971,1
DA:972,1
DA:973,1
DA:974,1
DA:975,1
DA:976,1
DA:977,1
DA:978,1
DA:979,1
DA:982,1
DA:986,1
DA:987,1
DA:988,1
DA:989,1
DA:990,1
DA:991,1
DA:992,1
DA:993,1
DA:994,1
DA:995,1
DA:996,1
DA:997,1
DA:998,1
DA:999,1
DA:1000,1
DA:1001,1
DA:1002,1
DA:1003,1
DA:1004,1
DA:1005,1
DA:1006,1
DA:1007,1
DA:1008,1
DA:1010,1
DA:1011,1
DA:1012,1
DA:1013,1
DA:1014,1
DA:1015,1
DA:1016,1
DA:1017,1
DA:1018,1
DA:1019,1
DA:1020,1
DA:1021,1
DA:1022,1
DA:1023,1
DA:1025,1
DA:1026,1
DA:1027,1
DA:1028,1
DA:1029,1
DA:1031,1
DA:1032,1
DA:1034,1
DA:1035,1
DA:1037,0
DA:1039,1
DA:1040,1
DA:1041,1
DA:1042,1
DA:1043,1
DA:1044,1
DA:1045,1
DA:1048,1
DA:1052,1
DA:1053,1
DA:1054,1
DA:1055,1
DA:1056,1
DA:1057,1
DA:1058,1
DA:1059,1
DA:1063,1
DA:1064,1
DA:1065,1
DA:1066,1
DA:1068,1
DA:1069,1
DA:1071,1
DA:1073,1
DA:1074,1
DA:1075,1
DA:1076,1
DA:1077,0
DA:1078,1
DA:1080,1
DA:1081,1
DA:1082,1
BRF:0
BRH:0
LF:837
LH:731
end_of_record
SF:G:\orgin_claude_code\claude-code-main\deepseek_novel_agent\crates\novel-deepseek\src\config.rs
FN:34,_RNvNtCs6KM4JgF65Wk_14novel_deepseek6config13chat_api_base
FN:40,_RNvNtCs6KM4JgF65Wk_14novel_deepseek6config23web_search_messages_url
FN:28,_RNvNtCs6KM4JgF65Wk_14novel_deepseek6config8defaults
FN:18,_RNvNtCs6KM4JgF65Wk_14novel_deepseek6config8embedded
FN:35,_RNCNvNtCs6KM4JgF65Wk_14novel_deepseek6config13chat_api_base0B5_
FN:42,_RNCNvNtCs6KM4JgF65Wk_14novel_deepseek6config23web_search_messages_url0B5_
FN:19,_RNCNvNtCs6KM4JgF65Wk_14novel_deepseek6config8embedded0B5_
FN:34,_RNvNtCslaEqcgAeMjZ_14novel_deepseek6config13chat_api_base
FN:40,_RNvNtCslaEqcgAeMjZ_14novel_deepseek6config23web_search_messages_url
FN:28,_RNvNtCslaEqcgAeMjZ_14novel_deepseek6config8defaults
FN:18,_RNvNtCslaEqcgAeMjZ_14novel_deepseek6config8embedded
FN:50,_RNvNtNtCslaEqcgAeMjZ_14novel_deepseek6config5testss_37embedded_config_matches_expected_urls
FN:35,_RNCNvNtCslaEqcgAeMjZ_14novel_deepseek6config13chat_api_base0B5_
FN:42,_RNCNvNtCslaEqcgAeMjZ_14novel_deepseek6config23web_search_messages_url0B5_
FN:19,_RNCNvNtCslaEqcgAeMjZ_14novel_deepseek6config8embedded0B5_
FNDA:0,_RNvNtCs6KM4JgF65Wk_14novel_deepseek6config13chat_api_base
FNDA:0,_RNvNtCs6KM4JgF65Wk_14novel_deepseek6config23web_search_messages_url
FNDA:0,_RNvNtCs6KM4JgF65Wk_14novel_deepseek6config8defaults
FNDA:0,_RNvNtCs6KM4JgF65Wk_14novel_deepseek6config8embedded
FNDA:0,_RNCNvNtCs6KM4JgF65Wk_14novel_deepseek6config13chat_api_base0B5_
FNDA:0,_RNCNvNtCs6KM4JgF65Wk_14novel_deepseek6config23web_search_messages_url0B5_
FNDA:0,_RNCNvNtCs6KM4JgF65Wk_14novel_deepseek6config8embedded0B5_
FNDA:0,_RNvNtCslaEqcgAeMjZ_14novel_deepseek6config13chat_api_base
FNDA:1,_RNvNtCslaEqcgAeMjZ_14novel_deepseek6config23web_search_messages_url
FNDA:1,_RNvNtCslaEqcgAeMjZ_14novel_deepseek6config8defaults
FNDA:1,_RNvNtCslaEqcgAeMjZ_14novel_deepseek6config8embedded
FNDA:1,_RNvNtNtCslaEqcgAeMjZ_14novel_deepseek6config5testss_37embedded_config_matches_expected_urls
FNDA:0,_RNCNvNtCslaEqcgAeMjZ_14novel_deepseek6config13chat_api_base0B5_
FNDA:0,_RNCNvNtCslaEqcgAeMjZ_14novel_deepseek6config23web_search_messages_url0B5_
FNDA:1,_RNCNvNtCslaEqcgAeMjZ_14novel_deepseek6config8embedded0B5_
FNF:8
FNH:5
DA:18,1
DA:19,1
DA:20,1
DA:21,1
DA:22,1
DA:23,1
DA:24,1
DA:25,1
DA:28,1
DA:29,1
DA:30,1
DA:34,0
DA:35,0
DA:36,0
DA:40,1
DA:41,1
DA:42,1
DA:43,1
DA:50,1
DA:51,1
DA:52,1
DA:53,1
DA:57,1
BRF:0
BRH:0
LF:26
LH:21
end_of_record
SF:G:\orgin_claude_code\claude-code-main\deepseek_novel_agent\crates\novel-deepseek\src\connectivity.rs
FN:60,_RNCNCNCNCNvNtCs6KM4JgF65Wk_14novel_deepseek12connectivity26verify_web_search_endpoint0s0_000Bb_
FN:60,_RNCNCNCNvNtCs6KM4JgF65Wk_14novel_deepseek12connectivity26verify_web_search_endpoint0s0_00B9_
FN:53,_RNCNCNvNtCs6KM4JgF65Wk_14novel_deepseek12connectivity26verify_web_search_endpoint00B7_
FN:57,_RNCNCNvNtCs6KM4JgF65Wk_14novel_deepseek12connectivity26verify_web_search_endpoint0s0_0B7_
FN:56,_RNCNCNvNtCs6KM4JgF65Wk_14novel_deepseek12connectivity26verify_web_search_endpoint0s_0B7_
FN:85,_RNCNCNvNtCs6KM4JgF65Wk_14novel_deepseek12connectivity9post_json00B7_
FN:96,_RNCNCNvNtCs6KM4JgF65Wk_14novel_deepseek12connectivity9post_json0s_0B7_
FN:6,_RNCNvNtCs6KM4JgF65Wk_14novel_deepseek12connectivity16verify_endpoints0B5_
FN:12,_RNCNvNtCs6KM4JgF65Wk_14novel_deepseek12connectivity20verify_chat_endpoint0B5_
FN:27,_RNCNvNtCs6KM4JgF65Wk_14novel_deepseek12connectivity26verify_web_search_endpoint0B5_
FN:81,_RNCNvNtCs6KM4JgF65Wk_14novel_deepseek12connectivity9post_json0B5_
FN:6,_RNvNtCs6KM4JgF65Wk_14novel_deepseek12connectivity16verify_endpoints
FN:12,_RNvNtCs6KM4JgF65Wk_14novel_deepseek12connectivity20verify_chat_endpoint
FN:27,_RNvNtCs6KM4JgF65Wk_14novel_deepseek12connectivity26verify_web_search_endpoint
FN:75,_RNvNtCs6KM4JgF65Wk_14novel_deepseek12connectivity9post_json
FN:6,_RNvNtCslaEqcgAeMjZ_14novel_deepseek12connectivity16verify_endpoints
FN:60,_RNCNCNCNCNvNtCslaEqcgAeMjZ_14novel_deepseek12connectivity26verify_web_search_endpoint0s0_000Bb_
FN:60,_RNCNCNCNvNtCslaEqcgAeMjZ_14novel_deepseek12connectivity26verify_web_search_endpoint0s0_00B9_
FN:53,_RNCNCNvNtCslaEqcgAeMjZ_14novel_deepseek12connectivity26verify_web_search_endpoint00B7_
FN:57,_RNCNCNvNtCslaEqcgAeMjZ_14novel_deepseek12connectivity26verify_web_search_endpoint0s0_0B7_
FN:56,_RNCNCNvNtCslaEqcgAeMjZ_14novel_deepseek12connectivity26verify_web_search_endpoint0s_0B7_
FN:85,_RNCNCNvNtCslaEqcgAeMjZ_14novel_deepseek12connectivity9post_json00B7_
FN:96,_RNCNCNvNtCslaEqcgAeMjZ_14novel_deepseek12connectivity9post_json0s_0B7_
FN:6,_RNCNvNtCslaEqcgAeMjZ_14novel_deepseek12connectivity16verify_endpoints0B5_
FN:12,_RNCNvNtCslaEqcgAeMjZ_14novel_deepseek12connectivity20verify_chat_endpoint0B5_
FN:27,_RNCNvNtCslaEqcgAeMjZ_14novel_deepseek12connectivity26verify_web_search_endpoint0B5_
FN:81,_RNCNvNtCslaEqcgAeMjZ_14novel_deepseek12connectivity9post_json0B5_
FN:114,_RNCNvNtNtCslaEqcgAeMjZ_14novel_deepseek12connectivity5testss_32post_json_returns_200_on_success0B7_
FN:114,_RNvNtNtCslaEqcgAeMjZ_14novel_deepseek12connectivity5testss_32post_json_returns_200_on_success
FN:12,_RNvNtCslaEqcgAeMjZ_14novel_deepseek12connectivity20verify_chat_endpoint
FN:27,_RNvNtCslaEqcgAeMjZ_14novel_deepseek12connectivity26verify_web_search_endpoint
FN:75,_RNvNtCslaEqcgAeMjZ_14novel_deepseek12connectivity9post_json
FNDA:0,_RNCNCNCNCNvNtCs6KM4JgF65Wk_14novel_deepseek12connectivity26verify_web_search_endpoint0s0_000Bb_
FNDA:0,_RNCNCNCNvNtCs6KM4JgF65Wk_14novel_deepseek12connectivity26verify_web_search_endpoint0s0_00B9_
FNDA:0,_RNCNCNvNtCs6KM4JgF65Wk_14novel_deepseek12connectivity26verify_web_search_endpoint00B7_
FNDA:0,_RNCNCNvNtCs6KM4JgF65Wk_14novel_deepseek12connectivity26verify_web_search_endpoint0s0_0B7_
FNDA:0,_RNCNCNvNtCs6KM4JgF65Wk_14novel_deepseek12connectivity26verify_web_search_endpoint0s_0B7_
FNDA:0,_RNCNCNvNtCs6KM4JgF65Wk_14novel_deepseek12connectivity9post_json00B7_
FNDA:0,_RNCNCNvNtCs6KM4JgF65Wk_14novel_deepseek12connectivity9post_json0s_0B7_
FNDA:0,_RNCNvNtCs6KM4JgF65Wk_14novel_deepseek12connectivity16verify_endpoints0B5_
FNDA:0,_RNCNvNtCs6KM4JgF65Wk_14novel_deepseek12connectivity20verify_chat_endpoint0B5_
FNDA:0,_RNCNvNtCs6KM4JgF65Wk_14novel_deepseek12connectivity26verify_web_search_endpoint0B5_
FNDA:0,_RNCNvNtCs6KM4JgF65Wk_14novel_deepseek12connectivity9post_json0B5_
FNDA:0,_RNvNtCs6KM4JgF65Wk_14novel_deepseek12connectivity16verify_endpoints
FNDA:0,_RNvNtCs6KM4JgF65Wk_14novel_deepseek12connectivity20verify_chat_endpoint
FNDA:0,_RNvNtCs6KM4JgF65Wk_14novel_deepseek12connectivity26verify_web_search_endpoint
FNDA:0,_RNvNtCs6KM4JgF65Wk_14novel_deepseek12connectivity9post_json
FNDA:0,_RNvNtCslaEqcgAeMjZ_14novel_deepseek12connectivity16verify_endpoints
FNDA:0,_RNCNCNCNCNvNtCslaEqcgAeMjZ_14novel_deepseek12connectivity26verify_web_search_endpoint0s0_000Bb_
FNDA:0,_RNCNCNCNvNtCslaEqcgAeMjZ_14novel_deepseek12connectivity26verify_web_search_endpoint0s0_00B9_
FNDA:0,_RNCNCNvNtCslaEqcgAeMjZ_14novel_deepseek12connectivity26verify_web_search_endpoint00B7_
FNDA:0,_RNCNCNvNtCslaEqcgAeMjZ_14novel_deepseek12connectivity26verify_web_search_endpoint0s0_0B7_
FNDA:0,_RNCNCNvNtCslaEqcgAeMjZ_14novel_deepseek12connectivity26verify_web_search_endpoint0s_0B7_
FNDA:0,_RNCNCNvNtCslaEqcgAeMjZ_14novel_deepseek12connectivity9post_json00B7_
FNDA:0,_RNCNCNvNtCslaEqcgAeMjZ_14novel_deepseek12connectivity9post_json0s_0B7_
FNDA:0,_RNCNvNtCslaEqcgAeMjZ_14novel_deepseek12connectivity16verify_endpoints0B5_
FNDA:0,_RNCNvNtCslaEqcgAeMjZ_14novel_deepseek12connectivity20verify_chat_endpoint0B5_
FNDA:0,_RNCNvNtCslaEqcgAeMjZ_14novel_deepseek12connectivity26verify_web_search_endpoint0B5_
FNDA:1,_RNCNvNtCslaEqcgAeMjZ_14novel_deepseek12connectivity9post_json0B5_
FNDA:1,_RNCNvNtNtCslaEqcgAeMjZ_14novel_deepseek12connectivity5testss_32post_json_returns_200_on_success0B7_
FNDA:1,_RNvNtNtCslaEqcgAeMjZ_14novel_deepseek12connectivity5testss_32post_json_returns_200_on_success
FNDA:0,_RNvNtCslaEqcgAeMjZ_14novel_deepseek12connectivity20verify_chat_endpoint
FNDA:0,_RNvNtCslaEqcgAeMjZ_14novel_deepseek12connectivity26verify_web_search_endpoint
FNDA:1,_RNvNtCslaEqcgAeMjZ_14novel_deepseek12connectivity9post_json
FNF:17
FNH:4
DA:6,0
DA:7,0
DA:8,0
DA:9,0
DA:10,0
DA:12,0
DA:13,0
DA:14,0
DA:15,0
DA:16,0
DA:17,0
DA:18,0
DA:19,0
DA:20,0
DA:22,0
DA:23,0
DA:24,0
DA:25,0
DA:27,0
DA:28,0
DA:29,0
DA:30,0
DA:31,0
DA:32,0
DA:33,0
DA:34,0
DA:35,0
DA:37,0
DA:38,0
DA:39,0
DA:40,0
DA:42,0
DA:44,0
DA:45,0
DA:46,0
DA:47,0
DA:48,0
DA:49,0
DA:50,0
DA:51,0
DA:52,0
DA:53,0
DA:54,0
DA:55,0
DA:56,0
DA:57,0
DA:58,0
DA:59,0
DA:60,0
DA:61,0
DA:62,0
DA:63,0
DA:64,0
DA:65,0
DA:66,0
DA:67,0
DA:68,0
DA:75,1
DA:76,1
DA:77,1
DA:78,1
DA:79,1
DA:80,1
DA:81,1
DA:82,1
DA:83,1
DA:84,1
DA:85,1
DA:86,1
DA:87,1
DA:88,1
DA:89,1
DA:90,1
DA:91,1
DA:92,0
DA:93,0
DA:94,0
DA:96,1
DA:97,1
DA:98,1
DA:99,1
DA:100,0
DA:101,0
DA:102,0
DA:103,1
DA:104,1
DA:105,1
DA:114,1
DA:115,1
DA:116,1
DA:117,1
DA:118,1
DA:119,1
DA:120,1
DA:121,1
DA:122,1
DA:124,1
DA:125,1
DA:126,1
DA:127,1
DA:128,1
DA:129,1
DA:130,1
BRF:0
BRH:0
LF:116
LH:43
end_of_record
SF:G:\orgin_claude_code\claude-code-main\deepseek_novel_agent\crates\novel-deepseek\src\error.rs
FN:23,_RNvNtCs6KM4JgF65Wk_14novel_deepseek5error19is_output_truncated
FN:19,_RNvNtCs6KM4JgF65Wk_14novel_deepseek5error26is_context_length_exceeded
FN:23,_RNvNtCslaEqcgAeMjZ_14novel_deepseek5error19is_output_truncated
FN:19,_RNvNtCslaEqcgAeMjZ_14novel_deepseek5error26is_context_length_exceeded
FN:41,_RNvNtNtCslaEqcgAeMjZ_14novel_deepseek5error5testss_25detects_output_truncation
FN:32,_RNvNtNtCslaEqcgAeMjZ_14novel_deepseek5error5testss_31detects_context_length_exceeded
FNDA:21,_RNvNtCs6KM4JgF65Wk_14novel_deepseek5error19is_output_truncated
FNDA:0,_RNvNtCs6KM4JgF65Wk_14novel_deepseek5error26is_context_length_exceeded
FNDA:3,_RNvNtCslaEqcgAeMjZ_14novel_deepseek5error19is_output_truncated
FNDA:2,_RNvNtCslaEqcgAeMjZ_14novel_deepseek5error26is_context_length_exceeded
FNDA:1,_RNvNtNtCslaEqcgAeMjZ_14novel_deepseek5error5testss_25detects_output_truncation
FNDA:1,_RNvNtNtCslaEqcgAeMjZ_14novel_deepseek5error5testss_31detects_context_length_exceeded
FNF:4
FNH:4
DA:19,2
DA:20,2
DA:21,2
DA:23,24
DA:24,24
DA:25,24
DA:32,1
DA:33,1
DA:34,1
DA:35,1
DA:36,1
DA:37,1
DA:38,1
DA:41,1
DA:42,1
DA:43,1
DA:44,1
DA:45,1
BRF:0
BRH:0
LF:18
LH:18
end_of_record
SF:G:\orgin_claude_code\claude-code-main\deepseek_novel_agent\crates\novel-deepseek\src\stream_parse.rs
FN:17,_RNvNtCs6KM4JgF65Wk_14novel_deepseek12stream_parse14parse_sse_line
FN:51,_RNvNtNtCslaEqcgAeMjZ_14novel_deepseek12stream_parse5testss_16done_is_terminal
FN:63,_RNvNtNtCslaEqcgAeMjZ_14novel_deepseek12stream_parse5testss_19skips_empty_payload
FN:56,_RNvNtNtCslaEqcgAeMjZ_14novel_deepseek12stream_parse5testss_24skips_empty_and_non_data
FN:69,_RNvNtNtCslaEqcgAeMjZ_14novel_deepseek12stream_parse5testss_26invalid_json_reports_error
FN:43,_RNvNtNtCslaEqcgAeMjZ_14novel_deepseek12stream_parse5testss_29parses_json_after_data_prefix
FN:17,_RNvNtCslaEqcgAeMjZ_14novel_deepseek12stream_parse14parse_sse_line
FNDA:406,_RNvNtCs6KM4JgF65Wk_14novel_deepseek12stream_parse14parse_sse_line
FNDA:1,_RNvNtNtCslaEqcgAeMjZ_14novel_deepseek12stream_parse5testss_16done_is_terminal
FNDA:1,_RNvNtNtCslaEqcgAeMjZ_14novel_deepseek12stream_parse5testss_19skips_empty_payload
FNDA:1,_RNvNtNtCslaEqcgAeMjZ_14novel_deepseek12stream_parse5testss_24skips_empty_and_non_data
FNDA:1,_RNvNtNtCslaEqcgAeMjZ_14novel_deepseek12stream_parse5testss_26invalid_json_reports_error
FNDA:1,_RNvNtNtCslaEqcgAeMjZ_14novel_deepseek12stream_parse5testss_29parses_json_after_data_prefix
FNDA:12,_RNvNtCslaEqcgAeMjZ_14novel_deepseek12stream_parse14parse_sse_line
FNF:6
FNH:6
DA:17,418
DA:18,418
DA:19,418
DA:20,165
DA:21,253
DA:22,253
DA:23,3
DA:25,250
DA:26,250
DA:27,0
DA:28,250
DA:29,250
DA:30,84
DA:31,166
DA:32,166
DA:33,165
DA:34,1
DA:36,418
DA:43,1
DA:44,1
DA:45,0
DA:47,1
DA:48,1
DA:51,1
DA:52,1
DA:53,1
DA:56,1
DA:57,1
DA:58,1
DA:59,1
DA:60,1
DA:63,1
DA:64,1
DA:65,1
DA:66,1
DA:69,1
DA:70,1
DA:71,1
DA:74,1
BRF:0
BRH:0
LF:39
LH:37
end_of_record
SF:G:\orgin_claude_code\claude-code-main\deepseek_novel_agent\crates\novel-deepseek\src\tool_args.rs
FN:15,_RNvNtCs6KM4JgF65Wk_14novel_deepseek9tool_args20parse_tool_arguments
FN:20,_RNCNvNtCs6KM4JgF65Wk_14novel_deepseek9tool_args20parse_tool_arguments0B5_
FN:15,_RNvNtCslaEqcgAeMjZ_14novel_deepseek9tool_args20parse_tool_arguments
FN:28,_RNvNtNtCslaEqcgAeMjZ_14novel_deepseek9tool_args5testss_16parse_valid_json
FN:46,_RNvNtNtCslaEqcgAeMjZ_14novel_deepseek9tool_args5testss_19invalid_json_errors
FN:34,_RNvNtNtCslaEqcgAeMjZ_14novel_deepseek9tool_args5testss_26empty_becomes_empty_object
FN:20,_RNCNvNtCslaEqcgAeMjZ_14novel_deepseek9tool_args20parse_tool_arguments0B5_
FNDA:250,_RNvNtCs6KM4JgF65Wk_14novel_deepseek9tool_args20parse_tool_arguments
FNDA:0,_RNCNvNtCs6KM4JgF65Wk_14novel_deepseek9tool_args20parse_tool_arguments0B5_
FNDA:8,_RNvNtCslaEqcgAeMjZ_14novel_deepseek9tool_args20parse_tool_arguments
FNDA:1,_RNvNtNtCslaEqcgAeMjZ_14novel_deepseek9tool_args5testss_16parse_valid_json
FNDA:1,_RNvNtNtCslaEqcgAeMjZ_14novel_deepseek9tool_args5testss_19invalid_json_errors
FNDA:1,_RNvNtNtCslaEqcgAeMjZ_14novel_deepseek9tool_args5testss_26empty_becomes_empty_object
FNDA:2,_RNCNvNtCslaEqcgAeMjZ_14novel_deepseek9tool_args20parse_tool_arguments0B5_
FNF:5
FNH:5
DA:15,258
DA:16,258
DA:17,258
DA:18,2
DA:19,256
DA:20,256
DA:21,258
DA:28,1
DA:29,1
DA:30,1
DA:31,1
DA:34,1
DA:35,1
DA:36,1
DA:37,1
DA:39,1
DA:40,1
DA:41,1
DA:43,1
DA:46,1
DA:47,1
DA:48,1
DA:51,1
BRF:0
BRH:0
LF:24
LH:24
end_of_record
SF:G:\orgin_claude_code\claude-code-main\deepseek_novel_agent\crates\novel-deepseek\src\types.rs
FN:51,_RNvMNtCs6KM4JgF65Wk_14novel_deepseek5typesNtB2_10TokenUsage12total_prompt
FN:55,_RNvMNtCs6KM4JgF65Wk_14novel_deepseek5typesNtB2_10TokenUsage14cache_hit_rate
FN:42,_RNvMNtCs6KM4JgF65Wk_14novel_deepseek5typesNtB2_10TokenUsage19from_deepseek_usage
FN:51,_RNvMNtCslaEqcgAeMjZ_14novel_deepseek5typesNtB2_10TokenUsage12total_prompt
FN:55,_RNvMNtCslaEqcgAeMjZ_14novel_deepseek5typesNtB2_10TokenUsage14cache_hit_rate
FN:42,_RNvMNtCslaEqcgAeMjZ_14novel_deepseek5typesNtB2_10TokenUsage19from_deepseek_usage
FNDA:0,_RNvMNtCs6KM4JgF65Wk_14novel_deepseek5typesNtB2_10TokenUsage12total_prompt
FNDA:0,_RNvMNtCs6KM4JgF65Wk_14novel_deepseek5typesNtB2_10TokenUsage14cache_hit_rate
FNDA:100,_RNvMNtCs6KM4JgF65Wk_14novel_deepseek5typesNtB2_10TokenUsage19from_deepseek_usage
FNDA:0,_RNvMNtCslaEqcgAeMjZ_14novel_deepseek5typesNtB2_10TokenUsage12total_prompt
FNDA:0,_RNvMNtCslaEqcgAeMjZ_14novel_deepseek5typesNtB2_10TokenUsage14cache_hit_rate
FNDA:4,_RNvMNtCslaEqcgAeMjZ_14novel_deepseek5typesNtB2_10TokenUsage19from_deepseek_usage
FNF:3
FNH:1
DA:42,104
DA:43,104
DA:44,104
DA:45,104
DA:46,104
DA:47,104
DA:48,104
DA:49,104
DA:51,0
DA:52,0
DA:53,0
DA:55,0
DA:56,0
DA:57,0
DA:58,0
DA:60,0
DA:62,0
BRF:0
BRH:0
LF:17
LH:8
end_of_record
SF:G:\orgin_claude_code\claude-code-main\deepseek_novel_agent\crates\novel-knowledge\src\causality.rs
FN:44,_RNvMNtCs6Zm3hVGYjG9_15novel_knowledge9causalityNtB2_14CausalityGraph11ensure_node
FN:53,_RNvMNtCs6Zm3hVGYjG9_15novel_knowledge9causalityNtB2_14CausalityGraph16traverse_forward
FN:57,_RNvMNtCs6Zm3hVGYjG9_15novel_knowledge9causalityNtB2_14CausalityGraph17traverse_backward
FN:19,_RNvMNtCs6Zm3hVGYjG9_15novel_knowledge9causalityNtB2_14CausalityGraph3new
FN:26,_RNvMNtCs6Zm3hVGYjG9_15novel_knowledge9causalityNtB2_14CausalityGraph8add_edge
FN:61,_RNvMNtCs6Zm3hVGYjG9_15novel_knowledge9causalityNtB2_14CausalityGraph8traverse
FN:100,_RNvNtCs6Zm3hVGYjG9_15novel_knowledge9causality18would_create_cycle
FN:109,_RNvNtCs6Zm3hVGYjG9_15novel_knowledge9causality24parse_causality_markdown
FN:95,_RNvXs_NtCs6Zm3hVGYjG9_15novel_knowledge9causalityNtB4_14CausalityGraphNtNtCs8icZUrvfcq9_4core7default7Default7default
FN:77,_RNCNvMNtCs6Zm3hVGYjG9_15novel_knowledge9causalityNtB4_14CausalityGraph8traverse0B6_
FN:81,_RNCNvMNtCs6Zm3hVGYjG9_15novel_knowledge9causalityNtB4_14CausalityGraph8traverses_0B6_
FN:105,_RNCNvNtCs6Zm3hVGYjG9_15novel_knowledge9causality18would_create_cycle0B5_
FN:118,_RNCNvNtCs6Zm3hVGYjG9_15novel_knowledge9causality24parse_causality_markdown0B5_
FN:119,_RNCNvNtCs6Zm3hVGYjG9_15novel_knowledge9causality24parse_causality_markdowns_0B5_
FN:44,_RNvMNtCsdtZBCnSGS9B_15novel_knowledge9causalityNtB2_14CausalityGraph11ensure_node
FN:53,_RNvMNtCsdtZBCnSGS9B_15novel_knowledge9causalityNtB2_14CausalityGraph16traverse_forward
FN:57,_RNvMNtCsdtZBCnSGS9B_15novel_knowledge9causalityNtB2_14CausalityGraph17traverse_backward
FN:19,_RNvMNtCsdtZBCnSGS9B_15novel_knowledge9causalityNtB2_14CausalityGraph3new
FN:26,_RNvMNtCsdtZBCnSGS9B_15novel_knowledge9causalityNtB2_14CausalityGraph8add_edge
FN:61,_RNvMNtCsdtZBCnSGS9B_15novel_knowledge9causalityNtB2_14CausalityGraph8traverse
FN:100,_RNvNtCsdtZBCnSGS9B_15novel_knowledge9causality18would_create_cycle
FN:118,_RNCNvNtCsdtZBCnSGS9B_15novel_knowledge9causality24parse_causality_markdown0B5_
FN:119,_RNCNvNtCsdtZBCnSGS9B_15novel_knowledge9causality24parse_causality_markdowns_0B5_
FN:109,_RNvNtCsdtZBCnSGS9B_15novel_knowledge9causality24parse_causality_markdown
FN:95,_RNvXs_NtCsdtZBCnSGS9B_15novel_knowledge9causalityNtB4_14CausalityGraphNtNtCs8icZUrvfcq9_4core7default7Default7default
FN:77,_RNCNvMNtCsdtZBCnSGS9B_15novel_knowledge9causalityNtB4_14CausalityGraph8traverse0B6_
FN:81,_RNCNvMNtCsdtZBCnSGS9B_15novel_knowledge9causalityNtB4_14CausalityGraph8traverses_0B6_
FN:105,_RNCNvNtCsdtZBCnSGS9B_15novel_knowledge9causality18would_create_cycle0B5_
FNDA:8,_RNvMNtCs6Zm3hVGYjG9_15novel_knowledge9causalityNtB2_14CausalityGraph11ensure_node
FNDA:2,_RNvMNtCs6Zm3hVGYjG9_15novel_knowledge9causalityNtB2_14CausalityGraph16traverse_forward
FNDA:0,_RNvMNtCs6Zm3hVGYjG9_15novel_knowledge9causalityNtB2_14CausalityGraph17traverse_backward
FNDA:2,_RNvMNtCs6Zm3hVGYjG9_15novel_knowledge9causalityNtB2_14CausalityGraph3new
FNDA:4,_RNvMNtCs6Zm3hVGYjG9_15novel_knowledge9causalityNtB2_14CausalityGraph8add_edge
FNDA:2,_RNvMNtCs6Zm3hVGYjG9_15novel_knowledge9causalityNtB2_14CausalityGraph8traverse
FNDA:4,_RNvNtCs6Zm3hVGYjG9_15novel_knowledge9causality18would_create_cycle
FNDA:2,_RNvNtCs6Zm3hVGYjG9_15novel_knowledge9causality24parse_causality_markdown
FNDA:0,_RNvXs_NtCs6Zm3hVGYjG9_15novel_knowledge9causalityNtB4_14CausalityGraphNtNtCs8icZUrvfcq9_4core7default7Default7default
FNDA:3,_RNCNvMNtCs6Zm3hVGYjG9_15novel_knowledge9causalityNtB4_14CausalityGraph8traverse0B6_
FNDA:0,_RNCNvMNtCs6Zm3hVGYjG9_15novel_knowledge9causalityNtB4_14CausalityGraph8traverses_0B6_
FNDA:5,_RNCNvNtCs6Zm3hVGYjG9_15novel_knowledge9causality18would_create_cycle0B5_
FNDA:28,_RNCNvNtCs6Zm3hVGYjG9_15novel_knowledge9causality24parse_causality_markdown0B5_
FNDA:28,_RNCNvNtCs6Zm3hVGYjG9_15novel_knowledge9causality24parse_causality_markdowns_0B5_
FNDA:8,_RNvMNtCsdtZBCnSGS9B_15novel_knowledge9causalityNtB2_14CausalityGraph11ensure_node
FNDA:1,_RNvMNtCsdtZBCnSGS9B_15novel_knowledge9causalityNtB2_14CausalityGraph16traverse_forward
FNDA:1,_RNvMNtCsdtZBCnSGS9B_15novel_knowledge9causalityNtB2_14CausalityGraph17traverse_backward
FNDA:2,_RNvMNtCsdtZBCnSGS9B_15novel_knowledge9causalityNtB2_14CausalityGraph3new
FNDA:4,_RNvMNtCsdtZBCnSGS9B_15novel_knowledge9causalityNtB2_14CausalityGraph8add_edge
FNDA:2,_RNvMNtCsdtZBCnSGS9B_15novel_knowledge9causalityNtB2_14CausalityGraph8traverse
FNDA:4,_RNvNtCsdtZBCnSGS9B_15novel_knowledge9causality18would_create_cycle
FNDA:0,_RNCNvNtCsdtZBCnSGS9B_15novel_knowledge9causality24parse_causality_markdown0B5_
FNDA:0,_RNCNvNtCsdtZBCnSGS9B_15novel_knowledge9causality24parse_causality_markdowns_0B5_
FNDA:0,_RNvNtCsdtZBCnSGS9B_15novel_knowledge9causality24parse_causality_markdown
FNDA:0,_RNvXs_NtCsdtZBCnSGS9B_15novel_knowledge9causalityNtB4_14CausalityGraphNtNtCs8icZUrvfcq9_4core7default7Default7default
FNDA:2,_RNCNvMNtCsdtZBCnSGS9B_15novel_knowledge9causalityNtB4_14CausalityGraph8traverse0B6_
FNDA:2,_RNCNvMNtCsdtZBCnSGS9B_15novel_knowledge9causalityNtB4_14CausalityGraph8traverses_0B6_
FNDA:5,_RNCNvNtCsdtZBCnSGS9B_15novel_knowledge9causality18would_create_cycle0B5_
FNF:14
FNH:13
DA:19,4
DA:20,4
DA:21,4
DA:22,4
DA:23,4
DA:24,4
DA:26,8
DA:27,8
DA:28,8
DA:29,8
DA:30,8
DA:31,8
DA:32,8
DA:33,8
DA:34,8
DA:35,2
DA:36,2
DA:37,2
DA:38,2
DA:39,6
DA:40,6
DA:41,6
DA:42,8
DA:44,16
DA:45,16
DA:46,6
DA:47,10
DA:48,10
DA:49,10
DA:50,10
DA:51,16
DA:53,3
DA:54,3
DA:55,3
DA:57,1
DA:58,1
DA:59,1
DA:61,4
DA:62,4
DA:63,0
DA:65,4
DA:66,4
DA:67,4
DA:68,4
DA:69,15
DA:70,11
DA:71,7
DA:72,7
DA:73,11
DA:74,1
DA:75,10
DA:76,10
DA:77,7
DA:79,3
DA:80,3
DA:81,3
DA:82,3
DA:84,10
DA:85,7
DA:86,7
DA:87,7
DA:90,4
DA:91,4
DA:95,0
DA:96,0
DA:97,0
DA:100,8
DA:101,8
DA:102,0
DA:103,8
DA:104,8
DA:105,10
DA:106,8
DA:109,2
DA:110,2
DA:111,8
DA:112,8
DA:113,8
DA:114,4
DA:115,4
DA:116,4
DA:117,4
DA:118,28
DA:119,28
DA:120,4
DA:121,4
DA:122,0
DA:123,4
DA:124,4
DA:125,4
DA:126,4
DA:127,4
DA:128,4
DA:129,4
DA:130,0
DA:131,4
DA:132,4
DA:133,4
DA:134,4
DA:135,4
DA:136,4
DA:137,4
DA:138,4
DA:139,4
DA:140,4
DA:141,4
DA:142,4
DA:143,4
DA:144,4
DA:146,2
DA:147,2
BRF:0
BRH:0
LF:116
LH:108
end_of_record
SF:G:\orgin_claude_code\claude-code-main\deepseek_novel_agent\crates\novel-knowledge\src\derive.rs
FN:9,_RNvNtCs6Zm3hVGYjG9_15novel_knowledge6derive25derive_character_snapshot
FN:83,_RNvNtCs6Zm3hVGYjG9_15novel_knowledge6derive27derive_relation_cross_index
FN:48,_RNvNtCs6Zm3hVGYjG9_15novel_knowledge6derive28derive_foreshadow_categories
FN:29,_RNCNvNtCs6Zm3hVGYjG9_15novel_knowledge6derive25derive_character_snapshot0B5_
FN:103,_RNCNvNtCs6Zm3hVGYjG9_15novel_knowledge6derive27derive_relation_cross_index0B5_
FN:62,_RNCNvNtCs6Zm3hVGYjG9_15novel_knowledge6derive28derive_foreshadow_categories0B5_
FN:189,_RNCNvNtNtCsdtZBCnSGS9B_15novel_knowledge6derive5testss_34derive_foreshadow_groups_by_status0B7_
FN:192,_RNCNvNtNtCsdtZBCnSGS9B_15novel_knowledge6derive5testss_34derive_foreshadow_groups_by_statuss_0B7_
FN:29,_RNCNvNtCsdtZBCnSGS9B_15novel_knowledge6derive25derive_character_snapshot0B5_
FN:103,_RNCNvNtCsdtZBCnSGS9B_15novel_knowledge6derive27derive_relation_cross_index0B5_
FN:62,_RNCNvNtCsdtZBCnSGS9B_15novel_knowledge6derive28derive_foreshadow_categories0B5_
FN:166,_RNvNtNtCsdtZBCnSGS9B_15novel_knowledge6derive5testss_31derive_snapshot_inserts_section
FN:196,_RNvNtNtCsdtZBCnSGS9B_15novel_knowledge6derive5testss_32derive_relation_index_from_cards
FN:174,_RNvNtNtCsdtZBCnSGS9B_15novel_knowledge6derive5testss_34derive_foreshadow_groups_by_status
FN:9,_RNvNtCsdtZBCnSGS9B_15novel_knowledge6derive25derive_character_snapshot
FN:83,_RNvNtCsdtZBCnSGS9B_15novel_knowledge6derive27derive_relation_cross_index
FN:48,_RNvNtCsdtZBCnSGS9B_15novel_knowledge6derive28derive_foreshadow_categories
FNDA:1,_RNvNtCs6Zm3hVGYjG9_15novel_knowledge6derive25derive_character_snapshot
FNDA:1,_RNvNtCs6Zm3hVGYjG9_15novel_knowledge6derive27derive_relation_cross_index
FNDA:1,_RNvNtCs6Zm3hVGYjG9_15novel_knowledge6derive28derive_foreshadow_categories
FNDA:0,_RNCNvNtCs6Zm3hVGYjG9_15novel_knowledge6derive25derive_character_snapshot0B5_
FNDA:0,_RNCNvNtCs6Zm3hVGYjG9_15novel_knowledge6derive27derive_relation_cross_index0B5_
FNDA:0,_RNCNvNtCs6Zm3hVGYjG9_15novel_knowledge6derive28derive_foreshadow_categories0B5_
FNDA:1,_RNCNvNtNtCsdtZBCnSGS9B_15novel_knowledge6derive5testss_34derive_foreshadow_groups_by_status0B7_
FNDA:1,_RNCNvNtNtCsdtZBCnSGS9B_15novel_knowledge6derive5testss_34derive_foreshadow_groups_by_statuss_0B7_
FNDA:0,_RNCNvNtCsdtZBCnSGS9B_15novel_knowledge6derive25derive_character_snapshot0B5_
FNDA:9,_RNCNvNtCsdtZBCnSGS9B_15novel_knowledge6derive27derive_relation_cross_index0B5_
FNDA:18,_RNCNvNtCsdtZBCnSGS9B_15novel_knowledge6derive28derive_foreshadow_categories0B5_
FNDA:1,_RNvNtNtCsdtZBCnSGS9B_15novel_knowledge6derive5testss_31derive_snapshot_inserts_section
FNDA:1,_RNvNtNtCsdtZBCnSGS9B_15novel_knowledge6derive5testss_32derive_relation_index_from_cards
FNDA:1,_RNvNtNtCsdtZBCnSGS9B_15novel_knowledge6derive5testss_34derive_foreshadow_groups_by_status
FNDA:1,_RNvNtCsdtZBCnSGS9B_15novel_knowledge6derive25derive_character_snapshot
FNDA:1,_RNvNtCsdtZBCnSGS9B_15novel_knowledge6derive27derive_relation_cross_index
FNDA:1,_RNvNtCsdtZBCnSGS9B_15novel_knowledge6derive28derive_foreshadow_categories
FNF:11
FNH:10
DA:9,2
DA:10,2
DA:11,2
DA:13,8
DA:14,2
DA:15,2
DA:16,2
DA:17,2
DA:18,2
DA:19,8
DA:20,4
DA:21,4
DA:24,2
DA:25,2
DA:26,0
DA:27,0
DA:28,0
DA:29,0
DA:30,0
DA:31,0
DA:32,0
DA:33,0
DA:34,0
DA:35,0
DA:36,0
DA:38,2
DA:39,2
DA:40,2
DA:41,2
DA:42,2
DA:43,2
DA:45,2
DA:48,2
DA:49,2
DA:50,2
DA:51,2
DA:52,1
DA:53,1
DA:54,0
DA:57,1
DA:58,4
DA:59,4
DA:60,2
DA:61,2
DA:62,18
DA:63,2
DA:64,0
DA:65,2
DA:66,2
DA:67,2
DA:68,2
DA:69,1
DA:70,1
DA:71,1
DA:72,0
DA:73,0
DA:75,0
DA:77,2
DA:79,1
DA:80,2
DA:83,2
DA:84,2
DA:85,2
DA:86,0
DA:87,2
DA:89,2
DA:90,2
DA:91,1
DA:92,1
DA:93,1
DA:94,0
DA:95,1
DA:96,1
DA:97,1
DA:98,1
DA:99,4
DA:100,4
DA:101,3
DA:102,1
DA:103,9
DA:104,1
DA:105,0
DA:106,1
DA:107,1
DA:108,1
DA:109,1
DA:110,0
DA:111,1
DA:112,1
DA:113,1
DA:114,1
DA:115,1
DA:116,1
DA:117,1
DA:120,1
DA:124,2
DA:125,2
DA:126,2
DA:127,2
DA:128,2
DA:129,2
DA:130,2
DA:131,2
DA:133,2
DA:134,1
DA:135,1
DA:136,2
DA:137,2
DA:166,1
DA:167,1
DA:168,1
DA:169,1
DA:170,1
DA:171,1
DA:174,1
DA:175,1
DA:176,1
DA:177,1
DA:178,1
DA:179,1
DA:185,1
DA:186,1
DA:187,1
DA:188,1
DA:189,1
DA:190,1
DA:191,1
DA:192,1
DA:193,1
DA:196,1
DA:197,1
DA:198,1
DA:199,1
DA:200,1
DA:201,1
DA:206,1
DA:207,1
DA:208,1
DA:209,1
DA:210,1
BRF:0
BRH:0
LF:145
LH:123
end_of_record
SF:G:\orgin_claude_code\claude-code-main\deepseek_novel_agent\crates\novel-knowledge\src\evolution_log.rs
FN:5,_RNvNtCs6Zm3hVGYjG9_15novel_knowledge13evolution_log12table_row_re
FN:16,_RNvNtCs6Zm3hVGYjG9_15novel_knowledge13evolution_log19find_table_last_row
FN:36,_RNvNtCs6Zm3hVGYjG9_15novel_knowledge13evolution_log20append_evolution_log
FN:7,_RNCNvNtCs6Zm3hVGYjG9_15novel_knowledge13evolution_log12table_row_re0B5_
FN:26,_RNCNvNtCs6Zm3hVGYjG9_15novel_knowledge13evolution_log19find_table_last_row0B5_
FN:32,_RNCNvNtCs6Zm3hVGYjG9_15novel_knowledge13evolution_log19find_table_last_rows0_0B5_
FN:29,_RNCNvNtCs6Zm3hVGYjG9_15novel_knowledge13evolution_log19find_table_last_rows_0B5_
FN:5,_RNvNtCsdtZBCnSGS9B_15novel_knowledge13evolution_log12table_row_re
FN:16,_RNvNtCsdtZBCnSGS9B_15novel_knowledge13evolution_log19find_table_last_row
FN:36,_RNvNtCsdtZBCnSGS9B_15novel_knowledge13evolution_log20append_evolution_log
FN:7,_RNCNvNtCsdtZBCnSGS9B_15novel_knowledge13evolution_log12table_row_re0B5_
FN:26,_RNCNvNtCsdtZBCnSGS9B_15novel_knowledge13evolution_log19find_table_last_row0B5_
FN:32,_RNCNvNtCsdtZBCnSGS9B_15novel_knowledge13evolution_log19find_table_last_rows0_0B5_
FN:29,_RNCNvNtCsdtZBCnSGS9B_15novel_knowledge13evolution_log19find_table_last_rows_0B5_
FNDA:4,_RNvNtCs6Zm3hVGYjG9_15novel_knowledge13evolution_log12table_row_re
FNDA:6,_RNvNtCs6Zm3hVGYjG9_15novel_knowledge13evolution_log19find_table_last_row
FNDA:2,_RNvNtCs6Zm3hVGYjG9_15novel_knowledge13evolution_log20append_evolution_log
FNDA:3,_RNCNvNtCs6Zm3hVGYjG9_15novel_knowledge13evolution_log12table_row_re0B5_
FNDA:15,_RNCNvNtCs6Zm3hVGYjG9_15novel_knowledge13evolution_log19find_table_last_row0B5_
FNDA:4,_RNCNvNtCs6Zm3hVGYjG9_15novel_knowledge13evolution_log19find_table_last_rows0_0B5_
FNDA:0,_RNCNvNtCs6Zm3hVGYjG9_15novel_knowledge13evolution_log19find_table_last_rows_0B5_
FNDA:5,_RNvNtCsdtZBCnSGS9B_15novel_knowledge13evolution_log12table_row_re
FNDA:8,_RNvNtCsdtZBCnSGS9B_15novel_knowledge13evolution_log19find_table_last_row
FNDA:1,_RNvNtCsdtZBCnSGS9B_15novel_knowledge13evolution_log20append_evolution_log
FNDA:4,_RNCNvNtCsdtZBCnSGS9B_15novel_knowledge13evolution_log12table_row_re0B5_
FNDA:19,_RNCNvNtCsdtZBCnSGS9B_15novel_knowledge13evolution_log19find_table_last_row0B5_
FNDA:4,_RNCNvNtCsdtZBCnSGS9B_15novel_knowledge13evolution_log19find_table_last_rows0_0B5_
FNDA:1,_RNCNvNtCsdtZBCnSGS9B_15novel_knowledge13evolution_log19find_table_last_rows_0B5_
FNF:7
FNH:7
DA:5,9
DA:7,9
DA:8,9
DA:16,14
DA:17,14
DA:18,14
DA:19,14
DA:20,14
DA:21,14
DA:22,5
DA:24,9
DA:25,9
DA:26,34
DA:27,9
DA:29,1
DA:30,8
DA:32,8
DA:33,14
DA:36,3
DA:37,3
DA:38,3
DA:39,3
DA:40,3
DA:41,3
DA:42,3
DA:43,3
DA:44,0
DA:45,3
DA:46,3
DA:47,3
DA:48,3
BRF:0
BRH:0
LF:35
LH:34
end_of_record
SF:G:\orgin_claude_code\claude-code-main\deepseek_novel_agent\crates\novel-knowledge\src\index.rs
FN:199,_RNvNtCs6Zm3hVGYjG9_15novel_knowledge5index12ensure_index
FN:182,_RNvNtCs6Zm3hVGYjG9_15novel_knowledge5index13rebuild_index
FN:5,_RNvNtCs6Zm3hVGYjG9_15novel_knowledge5index14chapter_num_re
FN:12,_RNvNtCs6Zm3hVGYjG9_15novel_knowledge5index17parse_chapter_num
FN:108,_RNvNtCs6Zm3hVGYjG9_15novel_knowledge5index21append_worlds_section
FN:24,_RNvNtCs6Zm3hVGYjG9_15novel_knowledge5index22append_character_table
FN:56,_RNvNtCs6Zm3hVGYjG9_15novel_knowledge5index23append_progress_section
FN:79,_RNvNtCs6Zm3hVGYjG9_15novel_knowledge5index28append_plot_and_shared_links
FN:17,_RNCNCNvNtCs6Zm3hVGYjG9_15novel_knowledge5index17parse_chapter_num00B7_
FN:19,_RNCNCNvNtCs6Zm3hVGYjG9_15novel_knowledge5index17parse_chapter_num0s0_0B7_
FN:18,_RNCNCNvNtCs6Zm3hVGYjG9_15novel_knowledge5index17parse_chapter_num0s_0B7_
FN:7,_RNCNvNtCs6Zm3hVGYjG9_15novel_knowledge5index14chapter_num_re0B5_
FN:15,_RNCNvNtCs6Zm3hVGYjG9_15novel_knowledge5index17parse_chapter_num0B5_
FN:169,_RNCNvNtCs6Zm3hVGYjG9_15novel_knowledge5index21append_worlds_section0B5_
FN:171,_RNCNvNtCs6Zm3hVGYjG9_15novel_knowledge5index21append_worlds_sections_0B5_
FN:255,_RNvNtNtCsdtZBCnSGS9B_15novel_knowledge5index5testss_21rebuild_creates_index
FN:214,_RNvNtNtCsdtZBCnSGS9B_15novel_knowledge5index5testss_21rebuild_empty_project
FN:238,_RNvNtNtCsdtZBCnSGS9B_15novel_knowledge5index5testss_30rebuild_includes_world_section
FN:223,_RNvNtNtCsdtZBCnSGS9B_15novel_knowledge5index5testss_41rebuild_handles_bad_character_frontmatter
FN:17,_RNCNCNvNtCsdtZBCnSGS9B_15novel_knowledge5index17parse_chapter_num00B7_
FN:19,_RNCNCNvNtCsdtZBCnSGS9B_15novel_knowledge5index17parse_chapter_num0s0_0B7_
FN:18,_RNCNCNvNtCsdtZBCnSGS9B_15novel_knowledge5index17parse_chapter_num0s_0B7_
FN:7,_RNCNvNtCsdtZBCnSGS9B_15novel_knowledge5index14chapter_num_re0B5_
FN:15,_RNCNvNtCsdtZBCnSGS9B_15novel_knowledge5index17parse_chapter_num0B5_
FN:169,_RNCNvNtCsdtZBCnSGS9B_15novel_knowledge5index21append_worlds_section0B5_
FN:171,_RNCNvNtCsdtZBCnSGS9B_15novel_knowledge5index21append_worlds_sections_0B5_
FN:199,_RNvNtCsdtZBCnSGS9B_15novel_knowledge5index12ensure_index
FN:182,_RNvNtCsdtZBCnSGS9B_15novel_knowledge5index13rebuild_index
FN:5,_RNvNtCsdtZBCnSGS9B_15novel_knowledge5index14chapter_num_re
FN:12,_RNvNtCsdtZBCnSGS9B_15novel_knowledge5index17parse_chapter_num
FN:108,_RNvNtCsdtZBCnSGS9B_15novel_knowledge5index21append_worlds_section
FN:24,_RNvNtCsdtZBCnSGS9B_15novel_knowledge5index22append_character_table
FN:56,_RNvNtCsdtZBCnSGS9B_15novel_knowledge5index23append_progress_section
FN:79,_RNvNtCsdtZBCnSGS9B_15novel_knowledge5index28append_plot_and_shared_links
FNDA:0,_RNvNtCs6Zm3hVGYjG9_15novel_knowledge5index12ensure_index
FNDA:1,_RNvNtCs6Zm3hVGYjG9_15novel_knowledge5index13rebuild_index
FNDA:0,_RNvNtCs6Zm3hVGYjG9_15novel_knowledge5index14chapter_num_re
FNDA:0,_RNvNtCs6Zm3hVGYjG9_15novel_knowledge5index17parse_chapter_num
FNDA:1,_RNvNtCs6Zm3hVGYjG9_15novel_knowledge5index21append_worlds_section
FNDA:1,_RNvNtCs6Zm3hVGYjG9_15novel_knowledge5index22append_character_table
FNDA:1,_RNvNtCs6Zm3hVGYjG9_15novel_knowledge5index23append_progress_section
FNDA:1,_RNvNtCs6Zm3hVGYjG9_15novel_knowledge5index28append_plot_and_shared_links
FNDA:0,_RNCNCNvNtCs6Zm3hVGYjG9_15novel_knowledge5index17parse_chapter_num00B7_
FNDA:0,_RNCNCNvNtCs6Zm3hVGYjG9_15novel_knowledge5index17parse_chapter_num0s0_0B7_
FNDA:0,_RNCNCNvNtCs6Zm3hVGYjG9_15novel_knowledge5index17parse_chapter_num0s_0B7_
FNDA:0,_RNCNvNtCs6Zm3hVGYjG9_15novel_knowledge5index14chapter_num_re0B5_
FNDA:0,_RNCNvNtCs6Zm3hVGYjG9_15novel_knowledge5index17parse_chapter_num0B5_
FNDA:0,_RNCNvNtCs6Zm3hVGYjG9_15novel_knowledge5index21append_worlds_section0B5_
FNDA:0,_RNCNvNtCs6Zm3hVGYjG9_15novel_knowledge5index21append_worlds_sections_0B5_
FNDA:1,_RNvNtNtCsdtZBCnSGS9B_15novel_knowledge5index5testss_21rebuild_creates_index
FNDA:1,_RNvNtNtCsdtZBCnSGS9B_15novel_knowledge5index5testss_21rebuild_empty_project
FNDA:1,_RNvNtNtCsdtZBCnSGS9B_15novel_knowledge5index5testss_30rebuild_includes_world_section
FNDA:1,_RNvNtNtCsdtZBCnSGS9B_15novel_knowledge5index5testss_41rebuild_handles_bad_character_frontmatter
FNDA:0,_RNCNCNvNtCsdtZBCnSGS9B_15novel_knowledge5index17parse_chapter_num00B7_
FNDA:1,_RNCNCNvNtCsdtZBCnSGS9B_15novel_knowledge5index17parse_chapter_num0s0_0B7_
FNDA:0,_RNCNCNvNtCsdtZBCnSGS9B_15novel_knowledge5index17parse_chapter_num0s_0B7_
FNDA:1,_RNCNvNtCsdtZBCnSGS9B_15novel_knowledge5index14chapter_num_re0B5_
FNDA:1,_RNCNvNtCsdtZBCnSGS9B_15novel_knowledge5index17parse_chapter_num0B5_
FNDA:1,_RNCNvNtCsdtZBCnSGS9B_15novel_knowledge5index21append_worlds_section0B5_
FNDA:1,_RNCNvNtCsdtZBCnSGS9B_15novel_knowledge5index21append_worlds_sections_0B5_
FNDA:5,_RNvNtCsdtZBCnSGS9B_15novel_knowledge5index12ensure_index
FNDA:9,_RNvNtCsdtZBCnSGS9B_15novel_knowledge5index13rebuild_index
FNDA:1,_RNvNtCsdtZBCnSGS9B_15novel_knowledge5index14chapter_num_re
FNDA:1,_RNvNtCsdtZBCnSGS9B_15novel_knowledge5index17parse_chapter_num
FNDA:9,_RNvNtCsdtZBCnSGS9B_15novel_knowledge5index21append_worlds_section
FNDA:9,_RNvNtCsdtZBCnSGS9B_15novel_knowledge5index22append_character_table
FNDA:9,_RNvNtCsdtZBCnSGS9B_15novel_knowledge5index23append_progress_section
FNDA:9,_RNvNtCsdtZBCnSGS9B_15novel_knowledge5index28append_plot_and_shared_links
FNF:19
FNH:17
DA:5,1
DA:7,1
DA:8,1
DA:9,1
DA:10,1
DA:12,1
DA:13,1
DA:14,1
DA:15,1
DA:16,1
DA:17,1
DA:18,1
DA:19,1
DA:20,1
DA:21,1
DA:22,1
DA:24,10
DA:25,10
DA:26,10
DA:27,10
DA:28,10
DA:29,10
DA:30,10
DA:31,2
DA:32,8
DA:33,10
DA:34,10
DA:35,10
DA:36,10
DA:37,8
DA:38,2
DA:39,2
DA:40,2
DA:41,2
DA:42,2
DA:43,2
DA:44,1
DA:45,1
DA:47,0
DA:49,2
DA:53,8
DA:54,10
DA:56,10
DA:57,10
DA:58,10
DA:59,10
DA:60,10
DA:61,10
DA:62,6
DA:63,6
DA:64,1
DA:65,1
DA:66,1
DA:67,1
DA:68,1
DA:70,0
DA:71,4
DA:72,10
DA:73,10
DA:74,10
DA:75,10
DA:76,10
DA:77,10
DA:79,10
DA:80,10
DA:81,10
DA:82,30
DA:83,10
DA:84,10
DA:85,10
DA:86,10
DA:87,30
DA:88,12
DA:89,18
DA:91,10
DA:92,10
DA:93,70
DA:94,10
DA:95,10
DA:96,10
DA:97,10
DA:98,10
DA:99,10
DA:100,10
DA:101,10
DA:102,70
DA:103,8
DA:104,62
DA:106,10
DA:108,10
DA:109,10
DA:110,10
DA:111,4
DA:112,6
DA:113,6
DA:114,0
DA:116,6
DA:117,5
DA:118,0
DA:120,5
DA:121,4
DA:122,1
DA:123,1
DA:124,1
DA:125,0
DA:126,1
DA:127,1
DA:128,1
DA:129,1
DA:130,1
DA:131,1
DA:132,1
DA:133,1
DA:134,1
DA:135,1
DA:136,1
DA:137,1
DA:138,1
DA:139,1
DA:140,0
DA:141,1
DA:142,1
DA:143,1
DA:144,1
DA:145,1
DA:146,0
DA:147,0
DA:149,1
DA:151,0
DA:153,1
DA:157,0
DA:158,0
DA:159,1
DA:160,1
DA:161,1
DA:162,1
DA:163,0
DA:165,1
DA:167,1
DA:168,1
DA:169,1
DA:170,1
DA:171,1
DA:172,1
DA:173,1
DA:174,1
DA:175,1
DA:176,0
DA:177,0
DA:179,10
DA:182,10
DA:183,10
DA:184,10
DA:185,10
DA:186,10
DA:187,10
DA:188,10
DA:190,10
DA:191,10
DA:192,10
DA:193,10
DA:194,10
DA:195,10
DA:196,10
DA:197,10
DA:199,5
DA:200,5
DA:201,5
DA:202,0
DA:204,5
DA:206,5
DA:214,1
DA:215,1
DA:216,1
DA:217,1
DA:218,1
DA:219,1
DA:220,1
DA:223,1
DA:224,1
DA:225,1
DA:226,1
DA:227,1
DA:230,1
DA:231,1
DA:232,1
DA:233,1
DA:234,1
DA:235,1
DA:238,1
DA:239,1
DA:240,1
DA:241,1
DA:242,1
DA:243,1
DA:246,1
DA:247,1
DA:248,1
DA:249,1
DA:250,1
DA:251,1
DA:252,1
DA:255,1
DA:256,1
DA:257,1
DA:258,1
DA:259,1
DA:262,1
DA:263,1
DA:264,1
DA:265,1
DA:266,1
DA:267,1
DA:268,1
DA:269,1
DA:270,1
BRF:0
BRH:0
LF:223
LH:206
end_of_record
SF:G:\orgin_claude_code\claude-code-main\deepseek_novel_agent\crates\novel-knowledge\src\lib.rs
FN:52,_RINvMCs6Zm3hVGYjG9_15novel_knowledgeNtB3_14KnowledgeStore10write_fileRNtNtCs1f2BdUxKfgg_5alloc6string6StringECsdRyXZbE8rru_11novel_tools
FN:34,_RINvMCs6Zm3hVGYjG9_15novel_knowledgeNtB3_14KnowledgeStore3newRNtNtCs1aoCESei0z2_3std4path4PathECsdRyXZbE8rru_11novel_tools
FN:34,_RINvMCs6Zm3hVGYjG9_15novel_knowledgeNtB3_14KnowledgeStore3newRNtNtCs1aoCESei0z2_3std4path7PathBufECsdRyXZbE8rru_11novel_tools
FN:52,_RINvMCs6Zm3hVGYjG9_15novel_knowledgeNtB3_14KnowledgeStore10write_fileReEB3_
FN:38,_RINvMCs6Zm3hVGYjG9_15novel_knowledgeNtB3_14KnowledgeStore9read_fileRNtNtCs1f2BdUxKfgg_5alloc6string6StringEB3_
FN:38,_RINvMCs6Zm3hVGYjG9_15novel_knowledgeNtB3_14KnowledgeStore9read_fileReEB3_
FN:40,_RNCINvMCs6Zm3hVGYjG9_15novel_knowledgeNtB5_14KnowledgeStore9read_fileRNtNtCs1f2BdUxKfgg_5alloc6string6StringE0B5_
FN:48,_RNCINvMCs6Zm3hVGYjG9_15novel_knowledgeNtB5_14KnowledgeStore9read_fileRNtNtCs1f2BdUxKfgg_5alloc6string6StringEs_0B5_
FN:40,_RNCINvMCs6Zm3hVGYjG9_15novel_knowledgeNtB5_14KnowledgeStore9read_fileReE0B5_
FN:48,_RNCINvMCs6Zm3hVGYjG9_15novel_knowledgeNtB5_14KnowledgeStore9read_fileReEs_0B5_
FN:34,_RINvMCs6Zm3hVGYjG9_15novel_knowledgeNtB3_14KnowledgeStore3newRNtNtCs1aoCESei0z2_3std4path4PathECs6E5aCN6EAZO_18knowledge_workflow
FN:60,_RNvMCsdtZBCnSGS9B_15novel_knowledgeNtB2_14KnowledgeStore14character_path
FN:52,_RINvMCsdtZBCnSGS9B_15novel_knowledgeNtB3_14KnowledgeStore10write_fileRNtNtCs1f2BdUxKfgg_5alloc6string6StringEB3_
FN:52,_RINvMCsdtZBCnSGS9B_15novel_knowledgeNtB3_14KnowledgeStore10write_fileReEB3_
FN:34,_RINvMCsdtZBCnSGS9B_15novel_knowledgeNtB3_14KnowledgeStore3newRNtNtCs1aoCESei0z2_3std4path4PathEB3_
FN:38,_RINvMCsdtZBCnSGS9B_15novel_knowledgeNtB3_14KnowledgeStore9read_fileRNtNtCs1f2BdUxKfgg_5alloc6string6StringEB3_
FN:38,_RINvMCsdtZBCnSGS9B_15novel_knowledgeNtB3_14KnowledgeStore9read_fileReEB3_
FN:40,_RNCINvMCsdtZBCnSGS9B_15novel_knowledgeNtB5_14KnowledgeStore9read_fileRNtNtCs1f2BdUxKfgg_5alloc6string6StringE0B5_
FN:48,_RNCINvMCsdtZBCnSGS9B_15novel_knowledgeNtB5_14KnowledgeStore9read_fileRNtNtCs1f2BdUxKfgg_5alloc6string6StringEs_0B5_
FN:40,_RNCINvMCsdtZBCnSGS9B_15novel_knowledgeNtB5_14KnowledgeStore9read_fileReE0B5_
FN:48,_RNCINvMCsdtZBCnSGS9B_15novel_knowledgeNtB5_14KnowledgeStore9read_fileReEs_0B5_
FN:52,_RINvMCs6Zm3hVGYjG9_15novel_knowledgeNtB3_14KnowledgeStore10write_fileRNtNtCs1f2BdUxKfgg_5alloc6string6StringECs6KAoqn40E16_11novel_tools
FN:34,_RINvMCs6Zm3hVGYjG9_15novel_knowledgeNtB3_14KnowledgeStore3newRNtNtCs1aoCESei0z2_3std4path4PathECs6KAoqn40E16_11novel_tools
FN:34,_RINvMCs6Zm3hVGYjG9_15novel_knowledgeNtB3_14KnowledgeStore3newRNtNtCs1aoCESei0z2_3std4path7PathBufECs6KAoqn40E16_11novel_tools
FNDA:0,_RINvMCs6Zm3hVGYjG9_15novel_knowledgeNtB3_14KnowledgeStore10write_fileRNtNtCs1f2BdUxKfgg_5alloc6string6StringECsdRyXZbE8rru_11novel_tools
FNDA:44,_RINvMCs6Zm3hVGYjG9_15novel_knowledgeNtB3_14KnowledgeStore3newRNtNtCs1aoCESei0z2_3std4path4PathECsdRyXZbE8rru_11novel_tools
FNDA:39,_RINvMCs6Zm3hVGYjG9_15novel_knowledgeNtB3_14KnowledgeStore3newRNtNtCs1aoCESei0z2_3std4path7PathBufECsdRyXZbE8rru_11novel_tools
FNDA:4,_RINvMCs6Zm3hVGYjG9_15novel_knowledgeNtB3_14KnowledgeStore10write_fileReEB3_
FNDA:3,_RINvMCs6Zm3hVGYjG9_15novel_knowledgeNtB3_14KnowledgeStore9read_fileRNtNtCs1f2BdUxKfgg_5alloc6string6StringEB3_
FNDA:104,_RINvMCs6Zm3hVGYjG9_15novel_knowledgeNtB3_14KnowledgeStore9read_fileReEB3_
FNDA:0,_RNCINvMCs6Zm3hVGYjG9_15novel_knowledgeNtB5_14KnowledgeStore9read_fileRNtNtCs1f2BdUxKfgg_5alloc6string6StringE0B5_
FNDA:0,_RNCINvMCs6Zm3hVGYjG9_15novel_knowledgeNtB5_14KnowledgeStore9read_fileRNtNtCs1f2BdUxKfgg_5alloc6string6StringEs_0B5_
FNDA:86,_RNCINvMCs6Zm3hVGYjG9_15novel_knowledgeNtB5_14KnowledgeStore9read_fileReE0B5_
FNDA:1,_RNCINvMCs6Zm3hVGYjG9_15novel_knowledgeNtB5_14KnowledgeStore9read_fileReEs_0B5_
FNDA:1,_RINvMCs6Zm3hVGYjG9_15novel_knowledgeNtB3_14KnowledgeStore3newRNtNtCs1aoCESei0z2_3std4path4PathECs6E5aCN6EAZO_18knowledge_workflow
FNDA:0,_RNvMCsdtZBCnSGS9B_15novel_knowledgeNtB2_14KnowledgeStore14character_path
FNDA:62,_RINvMCsdtZBCnSGS9B_15novel_knowledgeNtB3_14KnowledgeStore10write_fileRNtNtCs1f2BdUxKfgg_5alloc6string6StringEB3_
FNDA:9,_RINvMCsdtZBCnSGS9B_15novel_knowledgeNtB3_14KnowledgeStore10write_fileReEB3_
FNDA:14,_RINvMCsdtZBCnSGS9B_15novel_knowledgeNtB3_14KnowledgeStore3newRNtNtCs1aoCESei0z2_3std4path4PathEB3_
FNDA:4,_RINvMCsdtZBCnSGS9B_15novel_knowledgeNtB3_14KnowledgeStore9read_fileRNtNtCs1f2BdUxKfgg_5alloc6string6StringEB3_
FNDA:3,_RINvMCsdtZBCnSGS9B_15novel_knowledgeNtB3_14KnowledgeStore9read_fileReEB3_
FNDA:0,_RNCINvMCsdtZBCnSGS9B_15novel_knowledgeNtB5_14KnowledgeStore9read_fileRNtNtCs1f2BdUxKfgg_5alloc6string6StringE0B5_
FNDA:0,_RNCINvMCsdtZBCnSGS9B_15novel_knowledgeNtB5_14KnowledgeStore9read_fileRNtNtCs1f2BdUxKfgg_5alloc6string6StringEs_0B5_
FNDA:0,_RNCINvMCsdtZBCnSGS9B_15novel_knowledgeNtB5_14KnowledgeStore9read_fileReE0B5_
FNDA:0,_RNCINvMCsdtZBCnSGS9B_15novel_knowledgeNtB5_14KnowledgeStore9read_fileReEs_0B5_
FNDA:1,_RINvMCs6Zm3hVGYjG9_15novel_knowledgeNtB3_14KnowledgeStore10write_fileRNtNtCs1f2BdUxKfgg_5alloc6string6StringECs6KAoqn40E16_11novel_tools
FNDA:7,_RINvMCs6Zm3hVGYjG9_15novel_knowledgeNtB3_14KnowledgeStore3newRNtNtCs1aoCESei0z2_3std4path4PathECs6KAoqn40E16_11novel_tools
FNDA:14,_RINvMCs6Zm3hVGYjG9_15novel_knowledgeNtB3_14KnowledgeStore3newRNtNtCs1aoCESei0z2_3std4path7PathBufECs6KAoqn40E16_11novel_tools
FNF:6
FNH:5
DA:34,119
DA:35,119
DA:36,119
DA:38,114
DA:39,114
DA:40,114
DA:41,86
DA:42,86
DA:44,0
DA:46,86
DA:47,28
DA:48,1
DA:49,1
DA:50,114
DA:52,76
DA:53,76
DA:54,76
DA:55,76
DA:56,0
DA:57,76
DA:58,76
DA:60,0
DA:61,0
DA:62,0
DA:63,0
DA:64,0
BRF:0
BRH:0
LF:28
LH:21
end_of_record
SF:G:\orgin_claude_code\claude-code-main\deepseek_novel_agent\crates\novel-knowledge\src\parser.rs
FN:4,_RINvNtCs6Zm3hVGYjG9_15novel_knowledge6parser17parse_frontmatterNtNtB4_9character20CharacterFrontmatterEB4_
FN:18,_RNCINvNtCs6Zm3hVGYjG9_15novel_knowledge6parser17parse_frontmatterNtNtB6_9character20CharacterFrontmatterE0B6_
FN:24,_RNvNtCs6Zm3hVGYjG9_15novel_knowledge6parser13estimate_line
FN:4,_RINvNtCsdtZBCnSGS9B_15novel_knowledge6parser17parse_frontmatterNtNtB4_9character20CharacterFrontmatterEB4_
FN:18,_RNCINvNtCsdtZBCnSGS9B_15novel_knowledge6parser17parse_frontmatterNtNtB6_9character20CharacterFrontmatterE0B6_
FN:24,_RNvNtCsdtZBCnSGS9B_15novel_knowledge6parser13estimate_line
FNDA:5,_RINvNtCs6Zm3hVGYjG9_15novel_knowledge6parser17parse_frontmatterNtNtB4_9character20CharacterFrontmatterEB4_
FNDA:0,_RNCINvNtCs6Zm3hVGYjG9_15novel_knowledge6parser17parse_frontmatterNtNtB6_9character20CharacterFrontmatterE0B6_
FNDA:0,_RNvNtCs6Zm3hVGYjG9_15novel_knowledge6parser13estimate_line
FNDA:7,_RINvNtCsdtZBCnSGS9B_15novel_knowledge6parser17parse_frontmatterNtNtB4_9character20CharacterFrontmatterEB4_
FNDA:2,_RNCINvNtCsdtZBCnSGS9B_15novel_knowledge6parser17parse_frontmatterNtNtB6_9character20CharacterFrontmatterE0B6_
FNDA:2,_RNvNtCsdtZBCnSGS9B_15novel_knowledge6parser13estimate_line
FNF:3
FNH:3
DA:4,12
DA:5,12
DA:6,12
DA:7,12
DA:8,3
DA:9,9
DA:10,9
DA:11,9
DA:12,0
DA:13,9
DA:14,9
DA:15,9
DA:16,7
DA:17,9
DA:18,2
DA:19,2
DA:20,2
DA:21,7
DA:22,12
DA:24,2
DA:25,2
DA:26,2
DA:27,2
BRF:0
BRH:0
LF:24
LH:23
end_of_record
SF:G:\orgin_claude_code\claude-code-main\deepseek_novel_agent\crates\novel-knowledge\src\project_tree.rs
FN:41,_RNCNvNtCs6Zm3hVGYjG9_15novel_knowledge12project_tree8walk_dir0B5_
FN:62,_RNCNvNtCs6Zm3hVGYjG9_15novel_knowledge12project_tree8walk_dirs0_0B5_
FN:63,_RNCNvNtCs6Zm3hVGYjG9_15novel_knowledge12project_tree8walk_dirs1_0B5_
FN:65,_RNCNvNtCs6Zm3hVGYjG9_15novel_knowledge12project_tree8walk_dirs2_0B5_
FN:61,_RNCNvNtCs6Zm3hVGYjG9_15novel_knowledge12project_tree8walk_dirs_0B5_
FN:73,_RNvNtCs6Zm3hVGYjG9_15novel_knowledge12project_tree11should_skip
FN:32,_RNvNtCs6Zm3hVGYjG9_15novel_knowledge12project_tree8walk_dir
FN:82,_RINvNtCs6Zm3hVGYjG9_15novel_knowledge12project_tree17read_project_fileRNtNtCs1aoCESei0z2_3std4path7PathBufECs5ts0mUYpT8u_12novel_server
FN:16,_RINvNtCs6Zm3hVGYjG9_15novel_knowledge12project_tree18list_project_filesRNtNtCs1aoCESei0z2_3std4path7PathBufECs5ts0mUYpT8u_12novel_server
FN:85,_RNCINvNtCs6Zm3hVGYjG9_15novel_knowledge12project_tree17read_project_fileRNtNtCs1aoCESei0z2_3std4path7PathBufE0Cs5ts0mUYpT8u_12novel_server
FN:98,_RNCINvNtCs6Zm3hVGYjG9_15novel_knowledge12project_tree17read_project_fileRNtNtCs1aoCESei0z2_3std4path7PathBufEs0_0Cs5ts0mUYpT8u_12novel_server
FN:91,_RNCINvNtCs6Zm3hVGYjG9_15novel_knowledge12project_tree17read_project_fileRNtNtCs1aoCESei0z2_3std4path7PathBufEs_0Cs5ts0mUYpT8u_12novel_server
FN:28,_RNCINvNtCs6Zm3hVGYjG9_15novel_knowledge12project_tree18list_project_filesRNtNtCs1aoCESei0z2_3std4path7PathBufE0Cs5ts0mUYpT8u_12novel_server
FN:82,_RINvNtCsdtZBCnSGS9B_15novel_knowledge12project_tree17read_project_fileRNtNtCs1aoCESei0z2_3std4path4PathEB4_
FN:82,_RINvNtCsdtZBCnSGS9B_15novel_knowledge12project_tree17read_project_fileRNtNtCs1aoCESei0z2_3std4path7PathBufEB4_
FN:16,_RINvNtCsdtZBCnSGS9B_15novel_knowledge12project_tree18list_project_filesRNtNtCs1aoCESei0z2_3std4path4PathEB4_
FN:16,_RINvNtCsdtZBCnSGS9B_15novel_knowledge12project_tree18list_project_filesRNtNtCs1aoCESei0z2_3std4path7PathBufEB4_
FN:85,_RNCINvNtCsdtZBCnSGS9B_15novel_knowledge12project_tree17read_project_fileRNtNtCs1aoCESei0z2_3std4path4PathE0B6_
FN:98,_RNCINvNtCsdtZBCnSGS9B_15novel_knowledge12project_tree17read_project_fileRNtNtCs1aoCESei0z2_3std4path4PathEs0_0B6_
FN:91,_RNCINvNtCsdtZBCnSGS9B_15novel_knowledge12project_tree17read_project_fileRNtNtCs1aoCESei0z2_3std4path4PathEs_0B6_
FN:85,_RNCINvNtCsdtZBCnSGS9B_15novel_knowledge12project_tree17read_project_fileRNtNtCs1aoCESei0z2_3std4path7PathBufE0B6_
FN:98,_RNCINvNtCsdtZBCnSGS9B_15novel_knowledge12project_tree17read_project_fileRNtNtCs1aoCESei0z2_3std4path7PathBufEs0_0B6_
FN:91,_RNCINvNtCsdtZBCnSGS9B_15novel_knowledge12project_tree17read_project_fileRNtNtCs1aoCESei0z2_3std4path7PathBufEs_0B6_
FN:28,_RNCINvNtCsdtZBCnSGS9B_15novel_knowledge12project_tree18list_project_filesRNtNtCs1aoCESei0z2_3std4path4PathE0B6_
FN:28,_RNCINvNtCsdtZBCnSGS9B_15novel_knowledge12project_tree18list_project_filesRNtNtCs1aoCESei0z2_3std4path7PathBufE0B6_
FN:41,_RNCNvNtCsdtZBCnSGS9B_15novel_knowledge12project_tree8walk_dir0B5_
FN:62,_RNCNvNtCsdtZBCnSGS9B_15novel_knowledge12project_tree8walk_dirs0_0B5_
FN:63,_RNCNvNtCsdtZBCnSGS9B_15novel_knowledge12project_tree8walk_dirs1_0B5_
FN:65,_RNCNvNtCsdtZBCnSGS9B_15novel_knowledge12project_tree8walk_dirs2_0B5_
FN:61,_RNCNvNtCsdtZBCnSGS9B_15novel_knowledge12project_tree8walk_dirs_0B5_
FN:174,_RNvNtNtCsdtZBCnSGS9B_15novel_knowledge12project_tree5testss_29read_nihao_chapter_if_present
FN:142,_RNvNtNtCsdtZBCnSGS9B_15novel_knowledge12project_tree5testss_29read_project_file_reads_index
FN:123,_RNvNtNtCsdtZBCnSGS9B_15novel_knowledge12project_tree5testss_33list_project_files_after_scaffold
FN:161,_RNvNtNtCsdtZBCnSGS9B_15novel_knowledge12project_tree5testss_35list_nihao_work_chapters_if_present
FN:134,_RNvNtNtCsdtZBCnSGS9B_15novel_knowledge12project_tree5testss_35read_project_file_rejects_traversal
FN:150,_RNvNtNtCsdtZBCnSGS9B_15novel_knowledge12project_tree5testss_40project_file_entry_serializes_camel_case
FN:127,_RNCNvNtNtCsdtZBCnSGS9B_15novel_knowledge12project_tree5testss_33list_project_files_after_scaffold0B7_
FN:129,_RNCNvNtNtCsdtZBCnSGS9B_15novel_knowledge12project_tree5testss_33list_project_files_after_scaffolds0_0B7_
FN:130,_RNCNvNtNtCsdtZBCnSGS9B_15novel_knowledge12project_tree5testss_33list_project_files_after_scaffolds1_0B7_
FN:128,_RNCNvNtNtCsdtZBCnSGS9B_15novel_knowledge12project_tree5testss_33list_project_files_after_scaffolds_0B7_
FN:167,_RNCNvNtNtCsdtZBCnSGS9B_15novel_knowledge12project_tree5testss_35list_nihao_work_chapters_if_present0B7_
FN:170,_RNCNvNtNtCsdtZBCnSGS9B_15novel_knowledge12project_tree5testss_35list_nihao_work_chapters_if_presents_0B7_
FN:73,_RNvNtCsdtZBCnSGS9B_15novel_knowledge12project_tree11should_skip
FN:32,_RNvNtCsdtZBCnSGS9B_15novel_knowledge12project_tree8walk_dir
FN:82,_RINvNtCs6Zm3hVGYjG9_15novel_knowledge12project_tree17read_project_fileRNtNtCs1aoCESei0z2_3std4path7PathBufECs4uMLwczbohT_12novel_server
FN:16,_RINvNtCs6Zm3hVGYjG9_15novel_knowledge12project_tree18list_project_filesRNtNtCs1aoCESei0z2_3std4path7PathBufECs4uMLwczbohT_12novel_server
FN:85,_RNCINvNtCs6Zm3hVGYjG9_15novel_knowledge12project_tree17read_project_fileRNtNtCs1aoCESei0z2_3std4path7PathBufE0Cs4uMLwczbohT_12novel_server
FN:98,_RNCINvNtCs6Zm3hVGYjG9_15novel_knowledge12project_tree17read_project_fileRNtNtCs1aoCESei0z2_3std4path7PathBufEs0_0Cs4uMLwczbohT_12novel_server
FN:91,_RNCINvNtCs6Zm3hVGYjG9_15novel_knowledge12project_tree17read_project_fileRNtNtCs1aoCESei0z2_3std4path7PathBufEs_0Cs4uMLwczbohT_12novel_server
FN:28,_RNCINvNtCs6Zm3hVGYjG9_15novel_knowledge12project_tree18list_project_filesRNtNtCs1aoCESei0z2_3std4path7PathBufE0Cs4uMLwczbohT_12novel_server
FNDA:0,_RNCNvNtCs6Zm3hVGYjG9_15novel_knowledge12project_tree8walk_dir0B5_
FNDA:0,_RNCNvNtCs6Zm3hVGYjG9_15novel_knowledge12project_tree8walk_dirs0_0B5_
FNDA:0,_RNCNvNtCs6Zm3hVGYjG9_15novel_knowledge12project_tree8walk_dirs1_0B5_
FNDA:0,_RNCNvNtCs6Zm3hVGYjG9_15novel_knowledge12project_tree8walk_dirs2_0B5_
FNDA:0,_RNCNvNtCs6Zm3hVGYjG9_15novel_knowledge12project_tree8walk_dirs_0B5_
FNDA:0,_RNvNtCs6Zm3hVGYjG9_15novel_knowledge12project_tree11should_skip
FNDA:0,_RNvNtCs6Zm3hVGYjG9_15novel_knowledge12project_tree8walk_dir
FNDA:0,_RINvNtCs6Zm3hVGYjG9_15novel_knowledge12project_tree17read_project_fileRNtNtCs1aoCESei0z2_3std4path7PathBufECs5ts0mUYpT8u_12novel_server
FNDA:0,_RINvNtCs6Zm3hVGYjG9_15novel_knowledge12project_tree18list_project_filesRNtNtCs1aoCESei0z2_3std4path7PathBufECs5ts0mUYpT8u_12novel_server
FNDA:0,_RNCINvNtCs6Zm3hVGYjG9_15novel_knowledge12project_tree17read_project_fileRNtNtCs1aoCESei0z2_3std4path7PathBufE0Cs5ts0mUYpT8u_12novel_server
FNDA:0,_RNCINvNtCs6Zm3hVGYjG9_15novel_knowledge12project_tree17read_project_fileRNtNtCs1aoCESei0z2_3std4path7PathBufEs0_0Cs5ts0mUYpT8u_12novel_server
FNDA:0,_RNCINvNtCs6Zm3hVGYjG9_15novel_knowledge12project_tree17read_project_fileRNtNtCs1aoCESei0z2_3std4path7PathBufEs_0Cs5ts0mUYpT8u_12novel_server
FNDA:0,_RNCINvNtCs6Zm3hVGYjG9_15novel_knowledge12project_tree18list_project_filesRNtNtCs1aoCESei0z2_3std4path7PathBufE0Cs5ts0mUYpT8u_12novel_server
FNDA:3,_RINvNtCsdtZBCnSGS9B_15novel_knowledge12project_tree17read_project_fileRNtNtCs1aoCESei0z2_3std4path4PathEB4_
FNDA:1,_RINvNtCsdtZBCnSGS9B_15novel_knowledge12project_tree17read_project_fileRNtNtCs1aoCESei0z2_3std4path7PathBufEB4_
FNDA:1,_RINvNtCsdtZBCnSGS9B_15novel_knowledge12project_tree18list_project_filesRNtNtCs1aoCESei0z2_3std4path4PathEB4_
FNDA:1,_RINvNtCsdtZBCnSGS9B_15novel_knowledge12project_tree18list_project_filesRNtNtCs1aoCESei0z2_3std4path7PathBufEB4_
FNDA:5,_RNCINvNtCsdtZBCnSGS9B_15novel_knowledge12project_tree17read_project_fileRNtNtCs1aoCESei0z2_3std4path4PathE0B6_
FNDA:0,_RNCINvNtCsdtZBCnSGS9B_15novel_knowledge12project_tree17read_project_fileRNtNtCs1aoCESei0z2_3std4path4PathEs0_0B6_
FNDA:1,_RNCINvNtCsdtZBCnSGS9B_15novel_knowledge12project_tree17read_project_fileRNtNtCs1aoCESei0z2_3std4path4PathEs_0B6_
FNDA:2,_RNCINvNtCsdtZBCnSGS9B_15novel_knowledge12project_tree17read_project_fileRNtNtCs1aoCESei0z2_3std4path7PathBufE0B6_
FNDA:0,_RNCINvNtCsdtZBCnSGS9B_15novel_knowledge12project_tree17read_project_fileRNtNtCs1aoCESei0z2_3std4path7PathBufEs0_0B6_
FNDA:2,_RNCINvNtCsdtZBCnSGS9B_15novel_knowledge12project_tree17read_project_fileRNtNtCs1aoCESei0z2_3std4path7PathBufEs_0B6_
FNDA:97,_RNCINvNtCsdtZBCnSGS9B_15novel_knowledge12project_tree18list_project_filesRNtNtCs1aoCESei0z2_3std4path4PathE0B6_
FNDA:565,_RNCINvNtCsdtZBCnSGS9B_15novel_knowledge12project_tree18list_project_filesRNtNtCs1aoCESei0z2_3std4path7PathBufE0B6_
FNDA:0,_RNCNvNtCsdtZBCnSGS9B_15novel_knowledge12project_tree8walk_dir0B5_
FNDA:86,_RNCNvNtCsdtZBCnSGS9B_15novel_knowledge12project_tree8walk_dirs0_0B5_
FNDA:86,_RNCNvNtCsdtZBCnSGS9B_15novel_knowledge12project_tree8walk_dirs1_0B5_
FNDA:89,_RNCNvNtCsdtZBCnSGS9B_15novel_knowledge12project_tree8walk_dirs2_0B5_
FNDA:86,_RNCNvNtCsdtZBCnSGS9B_15novel_knowledge12project_tree8walk_dirs_0B5_
FNDA:1,_RNvNtNtCsdtZBCnSGS9B_15novel_knowledge12project_tree5testss_29read_nihao_chapter_if_present
FNDA:1,_RNvNtNtCsdtZBCnSGS9B_15novel_knowledge12project_tree5testss_29read_project_file_reads_index
FNDA:1,_RNvNtNtCsdtZBCnSGS9B_15novel_knowledge12project_tree5testss_33list_project_files_after_scaffold
FNDA:1,_RNvNtNtCsdtZBCnSGS9B_15novel_knowledge12project_tree5testss_35list_nihao_work_chapters_if_present
FNDA:1,_RNvNtNtCsdtZBCnSGS9B_15novel_knowledge12project_tree5testss_35read_project_file_rejects_traversal
FNDA:1,_RNvNtNtCsdtZBCnSGS9B_15novel_knowledge12project_tree5testss_40project_file_entry_serializes_camel_case
FNDA:22,_RNCNvNtNtCsdtZBCnSGS9B_15novel_knowledge12project_tree5testss_33list_project_files_after_scaffold0B7_
FNDA:3,_RNCNvNtNtCsdtZBCnSGS9B_15novel_knowledge12project_tree5testss_33list_project_files_after_scaffolds0_0B7_
FNDA:1,_RNCNvNtNtCsdtZBCnSGS9B_15novel_knowledge12project_tree5testss_33list_project_files_after_scaffolds1_0B7_
FNDA:2,_RNCNvNtNtCsdtZBCnSGS9B_15novel_knowledge12project_tree5testss_33list_project_files_after_scaffolds_0B7_
FNDA:1,_RNCNvNtNtCsdtZBCnSGS9B_15novel_knowledge12project_tree5testss_35list_nihao_work_chapters_if_present0B7_
FNDA:2,_RNCNvNtNtCsdtZBCnSGS9B_15novel_knowledge12project_tree5testss_35list_nihao_work_chapters_if_presents_0B7_
FNDA:86,_RNvNtCsdtZBCnSGS9B_15novel_knowledge12project_tree11should_skip
FNDA:6,_RNvNtCsdtZBCnSGS9B_15novel_knowledge12project_tree8walk_dir
FNDA:0,_RINvNtCs6Zm3hVGYjG9_15novel_knowledge12project_tree17read_project_fileRNtNtCs1aoCESei0z2_3std4path7PathBufECs4uMLwczbohT_12novel_server
FNDA:0,_RINvNtCs6Zm3hVGYjG9_15novel_knowledge12project_tree18list_project_filesRNtNtCs1aoCESei0z2_3std4path7PathBufECs4uMLwczbohT_12novel_server
FNDA:0,_RNCINvNtCs6Zm3hVGYjG9_15novel_knowledge12project_tree17read_project_fileRNtNtCs1aoCESei0z2_3std4path7PathBufE0Cs4uMLwczbohT_12novel_server
FNDA:0,_RNCINvNtCs6Zm3hVGYjG9_15novel_knowledge12project_tree17read_project_fileRNtNtCs1aoCESei0z2_3std4path7PathBufEs0_0Cs4uMLwczbohT_12novel_server
FNDA:0,_RNCINvNtCs6Zm3hVGYjG9_15novel_knowledge12project_tree17read_project_fileRNtNtCs1aoCESei0z2_3std4path7PathBufEs_0Cs4uMLwczbohT_12novel_server
FNDA:0,_RNCINvNtCs6Zm3hVGYjG9_15novel_knowledge12project_tree18list_project_filesRNtNtCs1aoCESei0z2_3std4path7PathBufE0Cs4uMLwczbohT_12novel_server
FNF:25
FNH:23
DA:16,2
DA:17,2
DA:18,2
DA:20,8
DA:21,8
DA:22,8
DA:23,2
DA:24,6
DA:25,6
DA:28,662
DA:29,2
DA:30,2
DA:32,6
DA:33,6
DA:34,6
DA:35,6
DA:36,6
DA:37,6
DA:38,98
DA:39,92
DA:40,92
DA:41,92
DA:42,92
DA:43,92
DA:44,86
DA:45,86
DA:46,86
DA:47,86
DA:48,86
DA:49,6
DA:50,6
DA:51,6
DA:52,6
DA:53,6
DA:55,92
DA:56,76
DA:57,16
DA:59,16
DA:60,16
DA:61,86
DA:62,86
DA:63,86
DA:64,16
DA:65,89
DA:66,86
DA:67,86
DA:68,86
DA:70,6
DA:71,6
DA:73,86
DA:74,86
DA:75,0
DA:77,86
DA:78,86
DA:79,86
DA:82,4
DA:83,4
DA:84,4
DA:85,7
DA:86,2
DA:87,2
DA:89,2
DA:90,2
DA:91,3
DA:92,2
DA:93,0
DA:94,2
DA:96,2
DA:97,2
DA:98,2
DA:99,0
DA:100,0
DA:102,0
DA:104,0
DA:105,2
DA:106,0
DA:107,2
DA:108,2
DA:109,0
DA:110,2
DA:112,2
DA:113,4
DA:123,1
DA:124,1
DA:125,1
DA:126,1
DA:127,22
DA:128,2
DA:129,3
DA:130,1
DA:131,1
DA:134,1
DA:135,1
DA:136,1
DA:137,1
DA:138,1
DA:139,1
DA:142,1
DA:143,1
DA:144,1
DA:145,1
DA:146,1
DA:147,1
DA:150,1
DA:151,1
DA:152,1
DA:153,1
DA:154,1
DA:155,1
DA:156,1
DA:157,1
DA:158,1
DA:161,1
DA:162,1
DA:163,1
DA:164,0
DA:165,1
DA:166,1
DA:167,1
DA:168,1
DA:169,1
DA:170,2
DA:171,1
DA:174,1
DA:175,1
DA:176,1
DA:177,0
DA:178,1
DA:179,1
DA:180,1
DA:181,1
BRF:0
BRH:0
LF:147
LH:134
end_of_record
SF:G:\orgin_claude_code\claude-code-main\deepseek_novel_agent\crates\novel-knowledge\src\scaffold.rs
FN:6,_RINvNtCs6Zm3hVGYjG9_15novel_knowledge8scaffold21init_project_scaffoldRNtNtCs1aoCESei0z2_3std4path7PathBufECs5ts0mUYpT8u_12novel_server
FN:6,_RINvNtCsdtZBCnSGS9B_15novel_knowledge8scaffold21init_project_scaffoldRNtNtCs1aoCESei0z2_3std4path4PathEB4_
FN:53,_RNvNtNtCsdtZBCnSGS9B_15novel_knowledge8scaffold5testss_40scaffold_loads_from_custom_templates_dir
FN:67,_RNvNtNtCsdtZBCnSGS9B_15novel_knowledge8scaffold5testss_42scaffold_errors_when_templates_dir_missing
FN:34,_RNvNtNtCsdtZBCnSGS9B_15novel_knowledge8scaffold5testss_55scaffold_creates_dirs_and_templates_from_repo_templates
FN:6,_RINvNtCs6Zm3hVGYjG9_15novel_knowledge8scaffold21init_project_scaffoldRNtNtCs1aoCESei0z2_3std4path7PathBufECs4uMLwczbohT_12novel_server
FNDA:0,_RINvNtCs6Zm3hVGYjG9_15novel_knowledge8scaffold21init_project_scaffoldRNtNtCs1aoCESei0z2_3std4path7PathBufECs5ts0mUYpT8u_12novel_server
FNDA:6,_RINvNtCsdtZBCnSGS9B_15novel_knowledge8scaffold21init_project_scaffoldRNtNtCs1aoCESei0z2_3std4path4PathEB4_
FNDA:1,_RNvNtNtCsdtZBCnSGS9B_15novel_knowledge8scaffold5testss_40scaffold_loads_from_custom_templates_dir
FNDA:1,_RNvNtNtCsdtZBCnSGS9B_15novel_knowledge8scaffold5testss_42scaffold_errors_when_templates_dir_missing
FNDA:1,_RNvNtNtCsdtZBCnSGS9B_15novel_knowledge8scaffold5testss_55scaffold_creates_dirs_and_templates_from_repo_templates
FNDA:0,_RINvNtCs6Zm3hVGYjG9_15novel_knowledge8scaffold21init_project_scaffoldRNtNtCs1aoCESei0z2_3std4path7PathBufECs4uMLwczbohT_12novel_server
FNF:4
FNH:4
DA:6,6
DA:7,6
DA:8,6
DA:9,6
DA:10,6
DA:11,6
DA:13,48
DA:14,48
DA:17,62
DA:18,62
DA:19,62
DA:20,0
DA:23,5
DA:24,5
DA:25,6
DA:34,1
DA:35,1
DA:36,1
DA:37,1
DA:38,1
DA:39,1
DA:40,1
DA:41,1
DA:42,1
DA:43,1
DA:44,1
DA:45,1
DA:46,1
DA:47,1
DA:48,1
DA:49,1
DA:50,1
DA:53,1
DA:54,1
DA:55,1
DA:56,1
DA:57,1
DA:58,1
DA:60,1
DA:61,1
DA:62,1
DA:63,1
DA:64,1
DA:67,1
DA:68,1
DA:69,1
DA:70,1
DA:71,1
DA:72,1
BRF:0
BRH:0
LF:49
LH:48
end_of_record
SF:G:\orgin_claude_code\claude-code-main\deepseek_novel_agent\crates\novel-knowledge\src\scaffold_templates.rs
FN:30,_RNCNvNtCs6Zm3hVGYjG9_15novel_knowledge18scaffold_templates23load_scaffold_templates0B5_
FN:48,_RNCNvNtCs6Zm3hVGYjG9_15novel_knowledge18scaffold_templates23load_scaffold_templatess0_0B5_
FN:38,_RNCNvNtCs6Zm3hVGYjG9_15novel_knowledge18scaffold_templates23load_scaffold_templatess_0B5_
FN:19,_RNvNtCs6Zm3hVGYjG9_15novel_knowledge18scaffold_templates23load_scaffold_templates
FN:53,_RNvNtCsdtZBCnSGS9B_15novel_knowledge18scaffold_templates18repo_templates_dir
FN:19,_RNvNtCsdtZBCnSGS9B_15novel_knowledge18scaffold_templates23load_scaffold_templates
FN:30,_RNCNvNtCsdtZBCnSGS9B_15novel_knowledge18scaffold_templates23load_scaffold_templates0B5_
FN:48,_RNCNvNtCsdtZBCnSGS9B_15novel_knowledge18scaffold_templates23load_scaffold_templatess0_0B5_
FN:38,_RNCNvNtCsdtZBCnSGS9B_15novel_knowledge18scaffold_templates23load_scaffold_templatess_0B5_
FNDA:0,_RNCNvNtCs6Zm3hVGYjG9_15novel_knowledge18scaffold_templates23load_scaffold_templates0B5_
FNDA:0,_RNCNvNtCs6Zm3hVGYjG9_15novel_knowledge18scaffold_templates23load_scaffold_templatess0_0B5_
FNDA:0,_RNCNvNtCs6Zm3hVGYjG9_15novel_knowledge18scaffold_templates23load_scaffold_templatess_0B5_
FNDA:0,_RNvNtCs6Zm3hVGYjG9_15novel_knowledge18scaffold_templates23load_scaffold_templates
FNDA:4,_RNvNtCsdtZBCnSGS9B_15novel_knowledge18scaffold_templates18repo_templates_dir
FNDA:6,_RNvNtCsdtZBCnSGS9B_15novel_knowledge18scaffold_templates23load_scaffold_templates
FNDA:100,_RNCNvNtCsdtZBCnSGS9B_15novel_knowledge18scaffold_templates23load_scaffold_templates0B5_
FNDA:65,_RNCNvNtCsdtZBCnSGS9B_15novel_knowledge18scaffold_templates23load_scaffold_templatess0_0B5_
FNDA:0,_RNCNvNtCsdtZBCnSGS9B_15novel_knowledge18scaffold_templates23load_scaffold_templatess_0B5_
FNF:5
FNH:4
DA:19,6
DA:20,6
DA:21,6
DA:22,6
DA:23,1
DA:24,1
DA:25,1
DA:26,5
DA:27,5
DA:28,100
DA:29,5
DA:30,100
DA:32,100
DA:33,38
DA:34,62
DA:35,62
DA:36,62
DA:37,62
DA:38,62
DA:39,62
DA:40,62
DA:41,62
DA:43,5
DA:44,0
DA:45,0
DA:46,0
DA:47,5
DA:48,65
DA:49,5
DA:50,6
DA:53,4
DA:54,4
DA:55,4
BRF:0
BRH:0
LF:36
LH:32
end_of_record
SF:G:\orgin_claude_code\claude-code-main\deepseek_novel_agent\crates\novel-logging\src\audit.rs
FN:83,_RNvMNtCs7jvcHKfr60n_13novel_logging5auditNtB2_11AuditLogger3log
FN:67,_RNvMNtCs7jvcHKfr60n_13novel_logging5auditNtB2_11AuditLogger4open
FN:96,_RNvMNtCs7jvcHKfr60n_13novel_logging5auditNtB2_11AuditLogger6replay
FN:109,_RNvNtCs7jvcHKfr60n_13novel_logging5audit11open_append
FN:85,_RNCNvMNtCs7jvcHKfr60n_13novel_logging5auditNtB4_11AuditLogger3log0B6_
FN:89,_RNCNvMNtCs7jvcHKfr60n_13novel_logging5auditNtB4_11AuditLogger3logs_0B6_
FN:103,_RNCNvMNtCs7jvcHKfr60n_13novel_logging5auditNtB4_11AuditLogger6replay0B6_
FN:119,_RNvNtNtCs5Axvkfxjtni_13novel_logging5audit5testss_25audit_logger_writes_jsonl
FN:103,_RNCNvMNtCs5Axvkfxjtni_13novel_logging5auditNtB4_11AuditLogger6replay0B6_
FN:96,_RNvMNtCs5Axvkfxjtni_13novel_logging5auditNtB2_11AuditLogger6replay
FN:83,_RNvMNtCs5Axvkfxjtni_13novel_logging5auditNtB2_11AuditLogger3log
FN:67,_RNvMNtCs5Axvkfxjtni_13novel_logging5auditNtB2_11AuditLogger4open
FN:109,_RNvNtCs5Axvkfxjtni_13novel_logging5audit11open_append
FN:85,_RNCNvMNtCs5Axvkfxjtni_13novel_logging5auditNtB4_11AuditLogger3log0B6_
FN:89,_RNCNvMNtCs5Axvkfxjtni_13novel_logging5auditNtB4_11AuditLogger3logs_0B6_
FNDA:324,_RNvMNtCs7jvcHKfr60n_13novel_logging5auditNtB2_11AuditLogger3log
FNDA:41,_RNvMNtCs7jvcHKfr60n_13novel_logging5auditNtB2_11AuditLogger4open
FNDA:0,_RNvMNtCs7jvcHKfr60n_13novel_logging5auditNtB2_11AuditLogger6replay
FNDA:123,_RNvNtCs7jvcHKfr60n_13novel_logging5audit11open_append
FNDA:0,_RNCNvMNtCs7jvcHKfr60n_13novel_logging5auditNtB4_11AuditLogger3log0B6_
FNDA:0,_RNCNvMNtCs7jvcHKfr60n_13novel_logging5auditNtB4_11AuditLogger3logs_0B6_
FNDA:0,_RNCNvMNtCs7jvcHKfr60n_13novel_logging5auditNtB4_11AuditLogger6replay0B6_
FNDA:1,_RNvNtNtCs5Axvkfxjtni_13novel_logging5audit5testss_25audit_logger_writes_jsonl
FNDA:0,_RNCNvMNtCs5Axvkfxjtni_13novel_logging5auditNtB4_11AuditLogger6replay0B6_
FNDA:0,_RNvMNtCs5Axvkfxjtni_13novel_logging5auditNtB2_11AuditLogger6replay
FNDA:1,_RNvMNtCs5Axvkfxjtni_13novel_logging5auditNtB2_11AuditLogger3log
FNDA:1,_RNvMNtCs5Axvkfxjtni_13novel_logging5auditNtB2_11AuditLogger4open
FNDA:3,_RNvNtCs5Axvkfxjtni_13novel_logging5audit11open_append
FNDA:0,_RNCNvMNtCs5Axvkfxjtni_13novel_logging5auditNtB4_11AuditLogger3log0B6_
FNDA:0,_RNCNvMNtCs5Axvkfxjtni_13novel_logging5auditNtB4_11AuditLogger3logs_0B6_
FNF:8
FNH:4
DA:67,42
DA:68,42
DA:69,42
DA:70,42
DA:71,42
DA:72,42
DA:73,42
DA:74,42
DA:75,42
DA:76,42
DA:77,42
DA:78,42
DA:79,42
DA:80,42
DA:81,42
DA:83,325
DA:84,325
DA:85,325
DA:86,325
DA:87,325
DA:88,325
DA:89,85
DA:90,85
DA:91,85
DA:92,240
DA:93,325
DA:94,325
DA:96,0
DA:97,0
DA:98,0
DA:99,0
DA:100,0
DA:101,0
DA:103,0
DA:104,0
DA:105,0
DA:106,0
DA:109,126
DA:110,126
DA:111,126
DA:119,1
DA:120,1
DA:121,1
DA:122,1
DA:123,1
DA:124,1
DA:125,1
DA:126,1
DA:127,1
DA:128,1
DA:129,1
DA:130,1
DA:131,1
DA:132,1
DA:133,1
DA:134,1
BRF:0
BRH:0
LF:59
LH:46
end_of_record
SF:G:\orgin_claude_code\claude-code-main\deepseek_novel_agent\crates\novel-logging\src\lib.rs
FN:31,_RNCNCNvCs7jvcHKfr60n_13novel_logging12init_logging00B5_
FN:29,_RNCNvCs7jvcHKfr60n_13novel_logging12init_logging0B3_
FN:19,_RNCNvCs7jvcHKfr60n_13novel_logging14wants_file_log0B3_
FN:28,_RNvCs7jvcHKfr60n_13novel_logging12init_logging
FN:15,_RNvCs7jvcHKfr60n_13novel_logging14wants_file_log
FN:31,_RNCNCNvCs5Axvkfxjtni_13novel_logging12init_logging00B5_
FN:29,_RNCNvCs5Axvkfxjtni_13novel_logging12init_logging0B3_
FN:19,_RNCNvCs5Axvkfxjtni_13novel_logging14wants_file_log0B3_
FN:28,_RNvCs5Axvkfxjtni_13novel_logging12init_logging
FN:15,_RNvCs5Axvkfxjtni_13novel_logging14wants_file_log
FNDA:1,_RNCNCNvCs7jvcHKfr60n_13novel_logging12init_logging00B5_
FNDA:1,_RNCNvCs7jvcHKfr60n_13novel_logging12init_logging0B3_
FNDA:0,_RNCNvCs7jvcHKfr60n_13novel_logging14wants_file_log0B3_
FNDA:1,_RNvCs7jvcHKfr60n_13novel_logging12init_logging
FNDA:1,_RNvCs7jvcHKfr60n_13novel_logging14wants_file_log
FNDA:0,_RNCNCNvCs5Axvkfxjtni_13novel_logging12init_logging00B5_
FNDA:0,_RNCNvCs5Axvkfxjtni_13novel_logging12init_logging0B3_
FNDA:0,_RNCNvCs5Axvkfxjtni_13novel_logging14wants_file_log0B3_
FNDA:0,_RNvCs5Axvkfxjtni_13novel_logging12init_logging
FNDA:0,_RNvCs5Axvkfxjtni_13novel_logging14wants_file_log
FNF:5
FNH:4
DA:15,1
DA:16,1
DA:17,1
DA:18,1
DA:19,1
DA:20,1
DA:21,1
DA:23,0
DA:25,1
DA:28,1
DA:29,1
DA:30,1
DA:31,1
DA:32,1
DA:34,1
DA:35,1
DA:36,1
DA:37,1
DA:38,1
DA:39,1
DA:40,1
DA:41,1
DA:43,1
DA:44,1
DA:45,1
DA:46,1
DA:47,1
DA:48,1
DA:49,1
DA:50,0
DA:51,0
DA:53,0
DA:54,0
DA:55,0
DA:56,0
DA:57,1
DA:58,1
BRF:0
BRH:0
LF:40
LH:32
end_of_record
SF:G:\orgin_claude_code\claude-code-main\deepseek_novel_agent\crates\novel-server\src\app.rs
FN:56,_RNvMNtCs5ts0mUYpT8u_12novel_server3appNtB2_9AppConfig12project_root
FN:26,_RNvMNtCs5ts0mUYpT8u_12novel_server3appNtB2_9AppConfig13engine_config
FN:47,_RNvMNtCs5ts0mUYpT8u_12novel_server3appNtB2_9AppConfig13templates_dir
FN:16,_RNvMNtCs5ts0mUYpT8u_12novel_server3appNtB2_9AppConfig15from_agent_root
FN:40,_RNvMNtCs5ts0mUYpT8u_12novel_server3appNtB2_9AppConfig16active_work_name
FN:30,_RNvMNtCs5ts0mUYpT8u_12novel_server3appNtB2_9AppConfig17engine_config_for
FN:51,_RNvMNtCs5ts0mUYpT8u_12novel_server3appNtB2_9AppConfig18set_active_project
FN:60,_RNvMNtCs5ts0mUYpT8u_12novel_server3appNtB2_9AppConfig7db_path
FN:83,_RNvMs_NtCs5ts0mUYpT8u_12novel_server3appNtB4_8NovelApp10session_id
FN:76,_RNvMs_NtCs5ts0mUYpT8u_12novel_server3appNtB4_8NovelApp12send_message
FN:70,_RNvMs_NtCs5ts0mUYpT8u_12novel_server3appNtB4_8NovelApp4open
FN:87,_RNvMs_NtCs5ts0mUYpT8u_12novel_server3appNtB4_8NovelApp8run_loop
FN:79,_RNCNvMs_NtCs5ts0mUYpT8u_12novel_server3appNtB6_8NovelApp12send_message0B8_
FN:91,_RNCNvMs_NtCs5ts0mUYpT8u_12novel_server3appNtB6_8NovelApp8run_loop0B8_
FN:43,_RNCNvMNtCs5ts0mUYpT8u_12novel_server3appNtB4_9AppConfig16active_work_name0B6_
FN:44,_RNCNvMNtCs5ts0mUYpT8u_12novel_server3appNtB4_9AppConfig16active_work_names_0B6_
FN:102,_RNCNvNtNtCs4uMLwczbohT_12novel_server3app5testss_21open_and_send_message0B7_
FN:79,_RNCNvMs_NtCs4uMLwczbohT_12novel_server3appNtB6_8NovelApp12send_message0B8_
FN:102,_RNvNtNtCs4uMLwczbohT_12novel_server3app5testss_21open_and_send_message
FN:26,_RNvMNtCs4uMLwczbohT_12novel_server3appNtB2_9AppConfig13engine_config
FN:47,_RNvMNtCs4uMLwczbohT_12novel_server3appNtB2_9AppConfig13templates_dir
FN:16,_RNvMNtCs4uMLwczbohT_12novel_server3appNtB2_9AppConfig15from_agent_root
FN:30,_RNvMNtCs4uMLwczbohT_12novel_server3appNtB2_9AppConfig17engine_config_for
FN:60,_RNvMNtCs4uMLwczbohT_12novel_server3appNtB2_9AppConfig7db_path
FN:83,_RNvMs_NtCs4uMLwczbohT_12novel_server3appNtB4_8NovelApp10session_id
FN:76,_RNvMs_NtCs4uMLwczbohT_12novel_server3appNtB4_8NovelApp12send_message
FN:70,_RNvMs_NtCs4uMLwczbohT_12novel_server3appNtB4_8NovelApp4open
FN:43,_RNCNvMNtCs4uMLwczbohT_12novel_server3appNtB4_9AppConfig16active_work_name0B6_
FN:44,_RNCNvMNtCs4uMLwczbohT_12novel_server3appNtB4_9AppConfig16active_work_names_0B6_
FN:91,_RNCNvMs_NtCs4uMLwczbohT_12novel_server3appNtB6_8NovelApp8run_loop0B8_
FN:56,_RNvMNtCs4uMLwczbohT_12novel_server3appNtB2_9AppConfig12project_root
FN:40,_RNvMNtCs4uMLwczbohT_12novel_server3appNtB2_9AppConfig16active_work_name
FN:51,_RNvMNtCs4uMLwczbohT_12novel_server3appNtB2_9AppConfig18set_active_project
FN:87,_RNvMs_NtCs4uMLwczbohT_12novel_server3appNtB4_8NovelApp8run_loop
FNDA:0,_RNvMNtCs5ts0mUYpT8u_12novel_server3appNtB2_9AppConfig12project_root
FNDA:0,_RNvMNtCs5ts0mUYpT8u_12novel_server3appNtB2_9AppConfig13engine_config
FNDA:0,_RNvMNtCs5ts0mUYpT8u_12novel_server3appNtB2_9AppConfig13templates_dir
FNDA:0,_RNvMNtCs5ts0mUYpT8u_12novel_server3appNtB2_9AppConfig15from_agent_root
FNDA:0,_RNvMNtCs5ts0mUYpT8u_12novel_server3appNtB2_9AppConfig16active_work_name
FNDA:0,_RNvMNtCs5ts0mUYpT8u_12novel_server3appNtB2_9AppConfig17engine_config_for
FNDA:0,_RNvMNtCs5ts0mUYpT8u_12novel_server3appNtB2_9AppConfig18set_active_project
FNDA:0,_RNvMNtCs5ts0mUYpT8u_12novel_server3appNtB2_9AppConfig7db_path
FNDA:0,_RNvMs_NtCs5ts0mUYpT8u_12novel_server3appNtB4_8NovelApp10session_id
FNDA:0,_RNvMs_NtCs5ts0mUYpT8u_12novel_server3appNtB4_8NovelApp12send_message
FNDA:0,_RNvMs_NtCs5ts0mUYpT8u_12novel_server3appNtB4_8NovelApp4open
FNDA:0,_RNvMs_NtCs5ts0mUYpT8u_12novel_server3appNtB4_8NovelApp8run_loop
FNDA:0,_RNCNvMs_NtCs5ts0mUYpT8u_12novel_server3appNtB6_8NovelApp12send_message0B8_
FNDA:0,_RNCNvMs_NtCs5ts0mUYpT8u_12novel_server3appNtB6_8NovelApp8run_loop0B8_
FNDA:0,_RNCNvMNtCs5ts0mUYpT8u_12novel_server3appNtB4_9AppConfig16active_work_name0B6_
FNDA:0,_RNCNvMNtCs5ts0mUYpT8u_12novel_server3appNtB4_9AppConfig16active_work_names_0B6_
FNDA:1,_RNCNvNtNtCs4uMLwczbohT_12novel_server3app5testss_21open_and_send_message0B7_
FNDA:1,_RNCNvMs_NtCs4uMLwczbohT_12novel_server3appNtB6_8NovelApp12send_message0B8_
FNDA:1,_RNvNtNtCs4uMLwczbohT_12novel_server3app5testss_21open_and_send_message
FNDA:1,_RNvMNtCs4uMLwczbohT_12novel_server3appNtB2_9AppConfig13engine_config
FNDA:0,_RNvMNtCs4uMLwczbohT_12novel_server3appNtB2_9AppConfig13templates_dir
FNDA:1,_RNvMNtCs4uMLwczbohT_12novel_server3appNtB2_9AppConfig15from_agent_root
FNDA:1,_RNvMNtCs4uMLwczbohT_12novel_server3appNtB2_9AppConfig17engine_config_for
FNDA:0,_RNvMNtCs4uMLwczbohT_12novel_server3appNtB2_9AppConfig7db_path
FNDA:1,_RNvMs_NtCs4uMLwczbohT_12novel_server3appNtB4_8NovelApp10session_id
FNDA:1,_RNvMs_NtCs4uMLwczbohT_12novel_server3appNtB4_8NovelApp12send_message
FNDA:1,_RNvMs_NtCs4uMLwczbohT_12novel_server3appNtB4_8NovelApp4open
FNDA:0,_RNCNvMNtCs4uMLwczbohT_12novel_server3appNtB4_9AppConfig16active_work_name0B6_
FNDA:0,_RNCNvMNtCs4uMLwczbohT_12novel_server3appNtB4_9AppConfig16active_work_names_0B6_
FNDA:0,_RNCNvMs_NtCs4uMLwczbohT_12novel_server3appNtB6_8NovelApp8run_loop0B8_
FNDA:0,_RNvMNtCs4uMLwczbohT_12novel_server3appNtB2_9AppConfig12project_root
FNDA:0,_RNvMNtCs4uMLwczbohT_12novel_server3appNtB2_9AppConfig16active_work_name
FNDA:0,_RNvMNtCs4uMLwczbohT_12novel_server3appNtB2_9AppConfig18set_active_project
FNDA:0,_RNvMs_NtCs4uMLwczbohT_12novel_server3appNtB4_8NovelApp8run_loop
FNF:18
FNH:9
DA:16,1
DA:17,1
DA:18,1
DA:19,1
DA:20,1
DA:21,1
DA:22,1
DA:23,1
DA:24,1
DA:26,1
DA:27,1
DA:28,1
DA:30,1
DA:31,1
DA:32,1
DA:33,1
DA:34,1
DA:35,1
DA:36,1
DA:37,1
DA:38,1
DA:40,0
DA:41,0
DA:42,0
DA:43,0
DA:44,0
DA:45,0
DA:47,0
DA:48,0
DA:49,0
DA:51,0
DA:52,0
DA:53,0
DA:56,0
DA:57,0
DA:58,0
DA:60,0
DA:61,0
DA:62,0
DA:70,1
DA:71,1
DA:72,1
DA:73,1
DA:74,1
DA:76,1
DA:77,1
DA:78,1
DA:79,1
DA:80,1
DA:81,1
DA:83,1
DA:84,1
DA:85,1
DA:87,0
DA:88,0
DA:89,0
DA:90,0
DA:91,0
DA:92,0
DA:93,0
DA:102,1
DA:103,1
DA:104,1
DA:105,1
DA:106,1
DA:107,1
DA:108,1
DA:109,1
DA:110,1
DA:111,1
BRF:0
BRH:0
LF:76
LH:48
end_of_record
SF:G:\orgin_claude_code\claude-code-main\deepseek_novel_agent\crates\novel-server\src\tauri\dto.rs
FN:69,_RNvNtNtCs5ts0mUYpT8u_12novel_server5tauri3dto17message_row_to_ui
FN:44,_RNvNtNtCs5ts0mUYpT8u_12novel_server5tauri3dto19fork_messages_to_ui
FN:140,_RNvNtNtCs5ts0mUYpT8u_12novel_server5tauri3dto21stored_messages_to_ui
FN:247,_RNvNtNtCs5ts0mUYpT8u_12novel_server5tauri3dto24build_session_transcript
FN:166,_RNCNCNvNtNtCs5ts0mUYpT8u_12novel_server5tauri3dto21stored_messages_to_uis2_00B9_
FN:177,_RNCNCNvNtNtCs5ts0mUYpT8u_12novel_server5tauri3dto21stored_messages_to_uis2_0s0_0B9_
FN:195,_RNCNCNvNtNtCs5ts0mUYpT8u_12novel_server5tauri3dto21stored_messages_to_uis2_0s1_0B9_
FN:200,_RNCNCNvNtNtCs5ts0mUYpT8u_12novel_server5tauri3dto21stored_messages_to_uis2_0s2_0B9_
FN:218,_RNCNCNvNtNtCs5ts0mUYpT8u_12novel_server5tauri3dto21stored_messages_to_uis2_0s3_0B9_
FN:172,_RNCNCNvNtNtCs5ts0mUYpT8u_12novel_server5tauri3dto21stored_messages_to_uis2_0s_0B9_
FN:80,_RNCNvNtNtCs5ts0mUYpT8u_12novel_server5tauri3dto17message_row_to_ui0B7_
FN:90,_RNCNvNtNtCs5ts0mUYpT8u_12novel_server5tauri3dto17message_row_to_uis0_0B7_
FN:107,_RNCNvNtNtCs5ts0mUYpT8u_12novel_server5tauri3dto17message_row_to_uis1_0B7_
FN:117,_RNCNvNtNtCs5ts0mUYpT8u_12novel_server5tauri3dto17message_row_to_uis2_0B7_
FN:85,_RNCNvNtNtCs5ts0mUYpT8u_12novel_server5tauri3dto17message_row_to_uis_0B7_
FN:50,_RNCNvNtNtCs5ts0mUYpT8u_12novel_server5tauri3dto19fork_messages_to_ui0B7_
FN:55,_RNCNvNtNtCs5ts0mUYpT8u_12novel_server5tauri3dto19fork_messages_to_uis0_0B7_
FN:64,_RNCNvNtNtCs5ts0mUYpT8u_12novel_server5tauri3dto19fork_messages_to_uis1_0B7_
FN:65,_RNCNvNtNtCs5ts0mUYpT8u_12novel_server5tauri3dto19fork_messages_to_uis2_0B7_
FN:54,_RNCNvNtNtCs5ts0mUYpT8u_12novel_server5tauri3dto19fork_messages_to_uis_0B7_
FN:146,_RNCNvNtNtCs5ts0mUYpT8u_12novel_server5tauri3dto21stored_messages_to_ui0B7_
FN:151,_RNCNvNtNtCs5ts0mUYpT8u_12novel_server5tauri3dto21stored_messages_to_uis0_0B7_
FN:160,_RNCNvNtNtCs5ts0mUYpT8u_12novel_server5tauri3dto21stored_messages_to_uis1_0B7_
FN:161,_RNCNvNtNtCs5ts0mUYpT8u_12novel_server5tauri3dto21stored_messages_to_uis2_0B7_
FN:150,_RNCNvNtNtCs5ts0mUYpT8u_12novel_server5tauri3dto21stored_messages_to_uis_0B7_
FN:69,_RNvNtNtCs4uMLwczbohT_12novel_server5tauri3dto17message_row_to_ui
FN:44,_RNvNtNtCs4uMLwczbohT_12novel_server5tauri3dto19fork_messages_to_ui
FN:140,_RNvNtNtCs4uMLwczbohT_12novel_server5tauri3dto21stored_messages_to_ui
FN:247,_RNvNtNtCs4uMLwczbohT_12novel_server5tauri3dto24build_session_transcript
FN:166,_RNCNCNvNtNtCs4uMLwczbohT_12novel_server5tauri3dto21stored_messages_to_uis2_00B9_
FN:177,_RNCNCNvNtNtCs4uMLwczbohT_12novel_server5tauri3dto21stored_messages_to_uis2_0s0_0B9_
FN:195,_RNCNCNvNtNtCs4uMLwczbohT_12novel_server5tauri3dto21stored_messages_to_uis2_0s1_0B9_
FN:200,_RNCNCNvNtNtCs4uMLwczbohT_12novel_server5tauri3dto21stored_messages_to_uis2_0s2_0B9_
FN:218,_RNCNCNvNtNtCs4uMLwczbohT_12novel_server5tauri3dto21stored_messages_to_uis2_0s3_0B9_
FN:172,_RNCNCNvNtNtCs4uMLwczbohT_12novel_server5tauri3dto21stored_messages_to_uis2_0s_0B9_
FN:80,_RNCNvNtNtCs4uMLwczbohT_12novel_server5tauri3dto17message_row_to_ui0B7_
FN:90,_RNCNvNtNtCs4uMLwczbohT_12novel_server5tauri3dto17message_row_to_uis0_0B7_
FN:107,_RNCNvNtNtCs4uMLwczbohT_12novel_server5tauri3dto17message_row_to_uis1_0B7_
FN:117,_RNCNvNtNtCs4uMLwczbohT_12novel_server5tauri3dto17message_row_to_uis2_0B7_
FN:85,_RNCNvNtNtCs4uMLwczbohT_12novel_server5tauri3dto17message_row_to_uis_0B7_
FN:50,_RNCNvNtNtCs4uMLwczbohT_12novel_server5tauri3dto19fork_messages_to_ui0B7_
FN:55,_RNCNvNtNtCs4uMLwczbohT_12novel_server5tauri3dto19fork_messages_to_uis0_0B7_
FN:64,_RNCNvNtNtCs4uMLwczbohT_12novel_server5tauri3dto19fork_messages_to_uis1_0B7_
FN:65,_RNCNvNtNtCs4uMLwczbohT_12novel_server5tauri3dto19fork_messages_to_uis2_0B7_
FN:54,_RNCNvNtNtCs4uMLwczbohT_12novel_server5tauri3dto19fork_messages_to_uis_0B7_
FN:146,_RNCNvNtNtCs4uMLwczbohT_12novel_server5tauri3dto21stored_messages_to_ui0B7_
FN:151,_RNCNvNtNtCs4uMLwczbohT_12novel_server5tauri3dto21stored_messages_to_uis0_0B7_
FN:160,_RNCNvNtNtCs4uMLwczbohT_12novel_server5tauri3dto21stored_messages_to_uis1_0B7_
FN:161,_RNCNvNtNtCs4uMLwczbohT_12novel_server5tauri3dto21stored_messages_to_uis2_0B7_
FN:150,_RNCNvNtNtCs4uMLwczbohT_12novel_server5tauri3dto21stored_messages_to_uis_0B7_
FN:272,_RNvNtNtNtCs4uMLwczbohT_12novel_server5tauri3dto5tests6stored
FN:320,_RNvNtNtNtCs4uMLwczbohT_12novel_server5tauri3dto5testss_19filters_system_role
FN:330,_RNvNtNtNtCs4uMLwczbohT_12novel_server5tauri3dto5testss_28context_refresh_message_kind
FN:379,_RNvNtNtNtCs4uMLwczbohT_12novel_server5tauri3dto5testss_36fork_messages_fixture_maps_tool_name
FN:289,_RNvNtNtNtCs4uMLwczbohT_12novel_server5tauri3dto5testss_39chronological_user_assistant_tool_order
FN:392,_RNvNtNtNtCs4uMLwczbohT_12novel_server5tauri3dto5testss_44build_session_transcript_archives_and_active
FNDA:0,_RNvNtNtCs5ts0mUYpT8u_12novel_server5tauri3dto17message_row_to_ui
FNDA:0,_RNvNtNtCs5ts0mUYpT8u_12novel_server5tauri3dto19fork_messages_to_ui
FNDA:0,_RNvNtNtCs5ts0mUYpT8u_12novel_server5tauri3dto21stored_messages_to_ui
FNDA:0,_RNvNtNtCs5ts0mUYpT8u_12novel_server5tauri3dto24build_session_transcript
FNDA:0,_RNCNCNvNtNtCs5ts0mUYpT8u_12novel_server5tauri3dto21stored_messages_to_uis2_00B9_
FNDA:0,_RNCNCNvNtNtCs5ts0mUYpT8u_12novel_server5tauri3dto21stored_messages_to_uis2_0s0_0B9_
FNDA:0,_RNCNCNvNtNtCs5ts0mUYpT8u_12novel_server5tauri3dto21stored_messages_to_uis2_0s1_0B9_
FNDA:0,_RNCNCNvNtNtCs5ts0mUYpT8u_12novel_server5tauri3dto21stored_messages_to_uis2_0s2_0B9_
FNDA:0,_RNCNCNvNtNtCs5ts0mUYpT8u_12novel_server5tauri3dto21stored_messages_to_uis2_0s3_0B9_
FNDA:0,_RNCNCNvNtNtCs5ts0mUYpT8u_12novel_server5tauri3dto21stored_messages_to_uis2_0s_0B9_
FNDA:0,_RNCNvNtNtCs5ts0mUYpT8u_12novel_server5tauri3dto17message_row_to_ui0B7_
FNDA:0,_RNCNvNtNtCs5ts0mUYpT8u_12novel_server5tauri3dto17message_row_to_uis0_0B7_
FNDA:0,_RNCNvNtNtCs5ts0mUYpT8u_12novel_server5tauri3dto17message_row_to_uis1_0B7_
FNDA:0,_RNCNvNtNtCs5ts0mUYpT8u_12novel_server5tauri3dto17message_row_to_uis2_0B7_
FNDA:0,_RNCNvNtNtCs5ts0mUYpT8u_12novel_server5tauri3dto17message_row_to_uis_0B7_
FNDA:0,_RNCNvNtNtCs5ts0mUYpT8u_12novel_server5tauri3dto19fork_messages_to_ui0B7_
FNDA:0,_RNCNvNtNtCs5ts0mUYpT8u_12novel_server5tauri3dto19fork_messages_to_uis0_0B7_
FNDA:0,_RNCNvNtNtCs5ts0mUYpT8u_12novel_server5tauri3dto19fork_messages_to_uis1_0B7_
FNDA:0,_RNCNvNtNtCs5ts0mUYpT8u_12novel_server5tauri3dto19fork_messages_to_uis2_0B7_
FNDA:0,_RNCNvNtNtCs5ts0mUYpT8u_12novel_server5tauri3dto19fork_messages_to_uis_0B7_
FNDA:0,_RNCNvNtNtCs5ts0mUYpT8u_12novel_server5tauri3dto21stored_messages_to_ui0B7_
FNDA:0,_RNCNvNtNtCs5ts0mUYpT8u_12novel_server5tauri3dto21stored_messages_to_uis0_0B7_
FNDA:0,_RNCNvNtNtCs5ts0mUYpT8u_12novel_server5tauri3dto21stored_messages_to_uis1_0B7_
FNDA:0,_RNCNvNtNtCs5ts0mUYpT8u_12novel_server5tauri3dto21stored_messages_to_uis2_0B7_
FNDA:0,_RNCNvNtNtCs5ts0mUYpT8u_12novel_server5tauri3dto21stored_messages_to_uis_0B7_
FNDA:3,_RNvNtNtCs4uMLwczbohT_12novel_server5tauri3dto17message_row_to_ui
FNDA:1,_RNvNtNtCs4uMLwczbohT_12novel_server5tauri3dto19fork_messages_to_ui
FNDA:5,_RNvNtNtCs4uMLwczbohT_12novel_server5tauri3dto21stored_messages_to_ui
FNDA:1,_RNvNtNtCs4uMLwczbohT_12novel_server5tauri3dto24build_session_transcript
FNDA:1,_RNCNCNvNtNtCs4uMLwczbohT_12novel_server5tauri3dto21stored_messages_to_uis2_00B9_
FNDA:0,_RNCNCNvNtNtCs4uMLwczbohT_12novel_server5tauri3dto21stored_messages_to_uis2_0s0_0B9_
FNDA:0,_RNCNCNvNtNtCs4uMLwczbohT_12novel_server5tauri3dto21stored_messages_to_uis2_0s1_0B9_
FNDA:7,_RNCNCNvNtNtCs4uMLwczbohT_12novel_server5tauri3dto21stored_messages_to_uis2_0s2_0B9_
FNDA:0,_RNCNCNvNtNtCs4uMLwczbohT_12novel_server5tauri3dto21stored_messages_to_uis2_0s3_0B9_
FNDA:1,_RNCNCNvNtNtCs4uMLwczbohT_12novel_server5tauri3dto21stored_messages_to_uis2_0s_0B9_
FNDA:1,_RNCNvNtNtCs4uMLwczbohT_12novel_server5tauri3dto17message_row_to_ui0B7_
FNDA:0,_RNCNvNtNtCs4uMLwczbohT_12novel_server5tauri3dto17message_row_to_uis0_0B7_
FNDA:2,_RNCNvNtNtCs4uMLwczbohT_12novel_server5tauri3dto17message_row_to_uis1_0B7_
FNDA:0,_RNCNvNtNtCs4uMLwczbohT_12novel_server5tauri3dto17message_row_to_uis2_0B7_
FNDA:1,_RNCNvNtNtCs4uMLwczbohT_12novel_server5tauri3dto17message_row_to_uis_0B7_
FNDA:1,_RNCNvNtNtCs4uMLwczbohT_12novel_server5tauri3dto19fork_messages_to_ui0B7_
FNDA:1,_RNCNvNtNtCs4uMLwczbohT_12novel_server5tauri3dto19fork_messages_to_uis0_0B7_
FNDA:4,_RNCNvNtNtCs4uMLwczbohT_12novel_server5tauri3dto19fork_messages_to_uis1_0B7_
FNDA:3,_RNCNvNtNtCs4uMLwczbohT_12novel_server5tauri3dto19fork_messages_to_uis2_0B7_
FNDA:1,_RNCNvNtNtCs4uMLwczbohT_12novel_server5tauri3dto19fork_messages_to_uis_0B7_
FNDA:1,_RNCNvNtNtCs4uMLwczbohT_12novel_server5tauri3dto21stored_messages_to_ui0B7_
FNDA:1,_RNCNvNtNtCs4uMLwczbohT_12novel_server5tauri3dto21stored_messages_to_uis0_0B7_
FNDA:9,_RNCNvNtNtCs4uMLwczbohT_12novel_server5tauri3dto21stored_messages_to_uis1_0B7_
FNDA:8,_RNCNvNtNtCs4uMLwczbohT_12novel_server5tauri3dto21stored_messages_to_uis2_0B7_
FNDA:1,_RNCNvNtNtCs4uMLwczbohT_12novel_server5tauri3dto21stored_messages_to_uis_0B7_
FNDA:7,_RNvNtNtNtCs4uMLwczbohT_12novel_server5tauri3dto5tests6stored
FNDA:1,_RNvNtNtNtCs4uMLwczbohT_12novel_server5tauri3dto5testss_19filters_system_role
FNDA:1,_RNvNtNtNtCs4uMLwczbohT_12novel_server5tauri3dto5testss_28context_refresh_message_kind
FNDA:1,_RNvNtNtNtCs4uMLwczbohT_12novel_server5tauri3dto5testss_36fork_messages_fixture_maps_tool_name
FNDA:1,_RNvNtNtNtCs4uMLwczbohT_12novel_server5tauri3dto5testss_39chronological_user_assistant_tool_order
FNDA:1,_RNvNtNtNtCs4uMLwczbohT_12novel_server5tauri3dto5testss_44build_session_transcript_archives_and_active
FNF:31
FNH:26
DA:44,1
DA:45,1
DA:46,4
DA:47,4
DA:48,3
DA:49,1
DA:50,1
DA:51,0
DA:53,1
DA:54,1
DA:55,1
DA:56,1
DA:57,1
DA:58,1
DA:62,1
DA:63,1
DA:64,4
DA:65,3
DA:66,1
DA:67,1
DA:69,3
DA:70,3
DA:71,3
DA:72,3
DA:73,3
DA:74,3
DA:75,3
DA:76,3
DA:77,3
DA:78,1
DA:79,1
DA:80,1
DA:81,1
DA:82,1
DA:83,1
DA:84,1
DA:85,1
DA:86,1
DA:87,1
DA:88,1
DA:89,1
DA:90,1
DA:91,1
DA:92,1
DA:93,1
DA:94,1
DA:95,1
DA:96,1
DA:97,1
DA:98,1
DA:99,1
DA:100,1
DA:101,1
DA:102,1
DA:103,2
DA:105,2
DA:106,2
DA:107,2
DA:108,2
DA:109,2
DA:110,2
DA:111,2
DA:112,2
DA:113,2
DA:114,2
DA:115,2
DA:116,2
DA:117,2
DA:119,0
DA:120,0
DA:121,0
DA:122,0
DA:123,0
DA:124,0
DA:125,0
DA:126,0
DA:127,0
DA:128,0
DA:129,2
DA:130,2
DA:131,2
DA:132,2
DA:133,2
DA:134,2
DA:135,2
DA:136,2
DA:137,2
DA:138,3
DA:140,5
DA:141,5
DA:142,9
DA:143,9
DA:144,7
DA:145,2
DA:146,2
DA:147,1
DA:149,1
DA:150,1
DA:151,1
DA:152,1
DA:153,1
DA:154,1
DA:158,5
DA:159,5
DA:160,9
DA:161,8
DA:162,8
DA:163,1
DA:164,1
DA:165,1
DA:166,1
DA:167,1
DA:168,1
DA:169,1
DA:170,1
DA:171,1
DA:172,1
DA:173,1
DA:174,1
DA:175,1
DA:176,1
DA:177,1
DA:178,1
DA:179,1
DA:180,1
DA:181,1
DA:182,1
DA:183,1
DA:184,1
DA:185,1
DA:186,1
DA:187,1
DA:188,1
DA:189,1
DA:190,7
DA:192,7
DA:193,7
DA:194,7
DA:195,7
DA:196,7
DA:197,7
DA:198,7
DA:199,7
DA:200,7
DA:201,7
DA:202,7
DA:203,7
DA:204,1
DA:205,6
DA:206,0
DA:208,6
DA:210,7
DA:211,7
DA:212,7
DA:213,7
DA:214,7
DA:215,7
DA:216,7
DA:217,7
DA:218,7
DA:220,0
DA:221,0
DA:222,0
DA:223,0
DA:224,0
DA:225,0
DA:226,0
DA:227,0
DA:228,0
DA:229,0
DA:230,7
DA:232,7
DA:233,7
DA:234,0
DA:236,7
DA:238,7
DA:239,7
DA:240,7
DA:241,7
DA:243,8
DA:244,5
DA:245,5
DA:247,1
DA:248,1
DA:249,1
DA:250,1
DA:251,1
DA:252,1
DA:253,1
DA:254,1
DA:255,1
DA:256,1
DA:257,1
DA:258,1
DA:260,1
DA:261,1
DA:262,1
DA:263,1
DA:264,1
DA:265,1
DA:272,7
DA:273,7
DA:274,7
DA:275,7
DA:276,7
DA:277,7
DA:278,7
DA:279,7
DA:280,7
DA:281,7
DA:282,7
DA:283,7
DA:284,7
DA:285,7
DA:286,7
DA:289,1
DA:290,1
DA:291,1
DA:292,1
DA:293,1
DA:294,1
DA:295,1
DA:296,1
DA:297,1
DA:298,1
DA:299,1
DA:300,1
DA:301,1
DA:302,1
DA:303,1
DA:304,1
DA:305,1
DA:306,1
DA:307,1
DA:308,1
DA:309,1
DA:310,1
DA:311,1
DA:312,1
DA:313,1
DA:314,1
DA:315,1
DA:316,1
DA:317,1
DA:320,1
DA:321,1
DA:322,1
DA:323,1
DA:324,1
DA:325,1
DA:326,1
DA:327,1
DA:330,1
DA:331,1
DA:332,1
DA:333,1
DA:334,1
DA:335,1
DA:336,1
DA:337,1
DA:338,1
DA:379,1
DA:380,1
DA:381,1
DA:382,1
DA:383,1
DA:384,1
DA:385,1
DA:386,1
DA:387,1
DA:388,1
DA:389,1
DA:392,1
DA:395,1
DA:396,1
DA:397,1
DA:398,1
DA:399,1
DA:402,1
DA:403,1
DA:404,1
DA:406,1
DA:407,1
DA:408,1
DA:409,1
DA:410,1
DA:411,1
DA:412,1
DA:413,1
DA:414,1
DA:415,1
DA:417,1
DA:419,1
DA:420,1
DA:421,1
DA:422,1
DA:423,1
DA:424,1
DA:427,1
DA:428,1
DA:429,1
BRF:0
BRH:0
LF:322
LH:294
end_of_record
SF:G:\orgin_claude_code\claude-code-main\deepseek_novel_agent\crates\novel-server\src\tauri\engine_loop.rs
FN:80,_RNvNtNtCs5ts0mUYpT8u_12novel_server5tauri11engine_loop16build_app_status
FN:114,_RNvNtNtCs5ts0mUYpT8u_12novel_server5tauri11engine_loop17spawn_engine_loop
FN:135,_RNCNCNvNtNtCs5ts0mUYpT8u_12novel_server5tauri11engine_loop17spawn_engine_loop00B9_
FN:167,_RNCNCNvNtNtCs5ts0mUYpT8u_12novel_server5tauri11engine_loop17spawn_engine_loop0s0_0B9_
FN:183,_RNCNCNvNtNtCs5ts0mUYpT8u_12novel_server5tauri11engine_loop17spawn_engine_loop0s1_0B9_
FN:197,_RNCNCNvNtNtCs5ts0mUYpT8u_12novel_server5tauri11engine_loop17spawn_engine_loop0s2_0B9_
FN:151,_RNCNCNvNtNtCs5ts0mUYpT8u_12novel_server5tauri11engine_loop17spawn_engine_loop0s_0B9_
FN:120,_RNCNvNtNtCs5ts0mUYpT8u_12novel_server5tauri11engine_loop17spawn_engine_loop0B7_
FN:135,_RNCNCNvNtNtCs4uMLwczbohT_12novel_server5tauri11engine_loop17spawn_engine_loop00B9_
FN:167,_RNCNCNvNtNtCs4uMLwczbohT_12novel_server5tauri11engine_loop17spawn_engine_loop0s0_0B9_
FN:183,_RNCNCNvNtNtCs4uMLwczbohT_12novel_server5tauri11engine_loop17spawn_engine_loop0s1_0B9_
FN:197,_RNCNCNvNtNtCs4uMLwczbohT_12novel_server5tauri11engine_loop17spawn_engine_loop0s2_0B9_
FN:151,_RNCNCNvNtNtCs4uMLwczbohT_12novel_server5tauri11engine_loop17spawn_engine_loop0s_0B9_
FN:120,_RNCNvNtNtCs4uMLwczbohT_12novel_server5tauri11engine_loop17spawn_engine_loop0B7_
FN:80,_RNvNtNtCs4uMLwczbohT_12novel_server5tauri11engine_loop16build_app_status
FN:114,_RNvNtNtCs4uMLwczbohT_12novel_server5tauri11engine_loop17spawn_engine_loop
FNDA:0,_RNvNtNtCs5ts0mUYpT8u_12novel_server5tauri11engine_loop16build_app_status
FNDA:0,_RNvNtNtCs5ts0mUYpT8u_12novel_server5tauri11engine_loop17spawn_engine_loop
FNDA:0,_RNCNCNvNtNtCs5ts0mUYpT8u_12novel_server5tauri11engine_loop17spawn_engine_loop00B9_
FNDA:0,_RNCNCNvNtNtCs5ts0mUYpT8u_12novel_server5tauri11engine_loop17spawn_engine_loop0s0_0B9_
FNDA:0,_RNCNCNvNtNtCs5ts0mUYpT8u_12novel_server5tauri11engine_loop17spawn_engine_loop0s1_0B9_
FNDA:0,_RNCNCNvNtNtCs5ts0mUYpT8u_12novel_server5tauri11engine_loop17spawn_engine_loop0s2_0B9_
FNDA:0,_RNCNCNvNtNtCs5ts0mUYpT8u_12novel_server5tauri11engine_loop17spawn_engine_loop0s_0B9_
FNDA:0,_RNCNvNtNtCs5ts0mUYpT8u_12novel_server5tauri11engine_loop17spawn_engine_loop0B7_
FNDA:0,_RNCNCNvNtNtCs4uMLwczbohT_12novel_server5tauri11engine_loop17spawn_engine_loop00B9_
FNDA:0,_RNCNCNvNtNtCs4uMLwczbohT_12novel_server5tauri11engine_loop17spawn_engine_loop0s0_0B9_
FNDA:0,_RNCNCNvNtNtCs4uMLwczbohT_12novel_server5tauri11engine_loop17spawn_engine_loop0s1_0B9_
FNDA:0,_RNCNCNvNtNtCs4uMLwczbohT_12novel_server5tauri11engine_loop17spawn_engine_loop0s2_0B9_
FNDA:0,_RNCNCNvNtNtCs4uMLwczbohT_12novel_server5tauri11engine_loop17spawn_engine_loop0s_0B9_
FNDA:0,_RNCNvNtNtCs4uMLwczbohT_12novel_server5tauri11engine_loop17spawn_engine_loop0B7_
FNDA:0,_RNvNtNtCs4uMLwczbohT_12novel_server5tauri11engine_loop16build_app_status
FNDA:0,_RNvNtNtCs4uMLwczbohT_12novel_server5tauri11engine_loop17spawn_engine_loop
FNF:8
FNH:0
DA:80,0
DA:82,0
DA:83,0
DA:84,0
DA:85,0
DA:86,0
DA:87,0
DA:88,0
DA:89,0
DA:90,0
DA:91,0
DA:92,0
DA:93,0
DA:94,0
DA:95,0
DA:96,0
DA:97,0
DA:98,0
DA:99,0
DA:100,0
DA:101,0
DA:102,0
DA:103,0
DA:104,0
DA:105,0
DA:106,0
DA:107,0
DA:108,0
DA:109,0
DA:110,0
DA:111,0
DA:112,0
DA:114,0
DA:115,0
DA:116,0
DA:117,0
DA:118,0
DA:119,0
DA:120,0
DA:121,0
DA:122,0
DA:123,0
DA:125,0
DA:126,0
DA:127,0
DA:128,0
DA:130,0
DA:131,0
DA:132,0
DA:133,0
DA:134,0
DA:135,0
DA:136,0
DA:137,0
DA:138,0
DA:139,0
DA:140,0
DA:143,0
DA:144,0
DA:145,0
DA:147,0
DA:148,0
DA:149,0
DA:150,0
DA:151,0
DA:152,0
DA:153,0
DA:154,0
DA:155,0
DA:158,0
DA:159,0
DA:160,0
DA:161,0
DA:163,0
DA:164,0
DA:165,0
DA:166,0
DA:167,0
DA:168,0
DA:169,0
DA:170,0
DA:171,0
DA:174,0
DA:175,0
DA:176,0
DA:177,0
DA:179,0
DA:180,0
DA:181,0
DA:182,0
DA:183,0
DA:184,0
DA:185,0
DA:186,0
DA:187,0
DA:189,0
DA:190,0
DA:191,0
DA:192,0
DA:193,0
DA:195,0
DA:196,0
DA:197,0
DA:198,0
DA:199,0
DA:200,0
DA:202,0
DA:203,0
DA:204,0
DA:205,0
DA:206,0
DA:207,0
DA:208,0
DA:209,0
DA:210,0
DA:211,0
DA:212,0
DA:213,0
DA:214,0
DA:216,0
DA:217,0
DA:218,0
DA:221,0
DA:223,0
DA:224,0
DA:225,0
DA:226,0
DA:227,0
DA:228,0
DA:229,0
DA:230,0
DA:231,0
DA:232,0
DA:234,0
DA:235,0
DA:236,0
DA:239,0
DA:242,0
DA:243,0
DA:245,0
DA:246,0
DA:250,0
DA:251,0
DA:252,0
DA:253,0
DA:254,0
DA:255,0
DA:256,0
DA:257,0
DA:259,0
DA:260,0
DA:261,0
DA:262,0
DA:263,0
DA:264,0
DA:265,0
DA:266,0
DA:267,0
DA:269,0
DA:270,0
DA:275,0
DA:278,0
DA:282,0
DA:283,0
BRF:0
BRH:0
LF:170
LH:0
end_of_record
SF:G:\orgin_claude_code\claude-code-main\deepseek_novel_agent\crates\novel-server\src\tauri\event_payload.rs
FN:38,_RNvNtNtCs5ts0mUYpT8u_12novel_server5tauri13event_payload16subagent_payload
FN:110,_RNvNtNtCs5ts0mUYpT8u_12novel_server5tauri13event_payload18core_event_payload
FN:10,_RNvNtNtCs5ts0mUYpT8u_12novel_server5tauri13event_payload27compaction_progress_payload
FN:38,_RNvNtNtCs4uMLwczbohT_12novel_server5tauri13event_payload16subagent_payload
FN:110,_RNvNtNtCs4uMLwczbohT_12novel_server5tauri13event_payload18core_event_payload
FN:10,_RNvNtNtCs4uMLwczbohT_12novel_server5tauri13event_payload27compaction_progress_payload
FN:290,_RNvNtNtNtCs4uMLwczbohT_12novel_server5tauri13event_payload5testss_20stream_chunk_payload
FN:347,_RNvNtNtNtCs4uMLwczbohT_12novel_server5tauri13event_payload5testss_21turn_complete_payload
FN:526,_RNvNtNtNtCs4uMLwczbohT_12novel_server5tauri13event_payload5testss_22compaction_all_actions
FN:320,_RNvNtNtNtCs4uMLwczbohT_12novel_server5tauri13event_payload5testss_23compaction_done_payload
FN:376,_RNvNtNtNtCs4uMLwczbohT_12novel_server5tauri13event_payload5testss_24subagent_started_payload
FN:423,_RNvNtNtNtCs4uMLwczbohT_12novel_server5tauri13event_payload5testss_24tool_use_started_payload
FN:506,_RNvNtNtNtCs4uMLwczbohT_12novel_server5tauri13event_payload5testss_25ask_user_question_payload
FN:363,_RNvNtNtNtCs4uMLwczbohT_12novel_server5tauri13event_payload5testss_25subagent_complete_payload
FN:305,_RNvNtNtNtCs4uMLwczbohT_12novel_server5tauri13event_payload5testss_25tool_call_request_payload
FN:336,_RNvNtNtNtCs4uMLwczbohT_12novel_server5tauri13event_payload5testss_26compaction_started_payload
FN:404,_RNvNtNtNtCs4uMLwczbohT_12novel_server5tauri13event_payload5testss_28subagent_tool_update_payload
FN:391,_RNvNtNtNtCs4uMLwczbohT_12novel_server5tauri13event_payload5testss_29subagent_stream_delta_payload
FN:435,_RNvNtNtNtCs4uMLwczbohT_12novel_server5tauri13event_payload5testss_37tool_input_delta_and_complete_payload
FN:484,_RNvNtNtNtCs4uMLwczbohT_12novel_server5tauri13event_payload5testss_38turn_start_error_and_assistant_segment
FN:456,_RNvNtNtNtCs4uMLwczbohT_12novel_server5tauri13event_payload5testss_39tool_progress_result_and_session_tokens
FN:544,_RNvNtNtNtCs4uMLwczbohT_12novel_server5tauri13event_payload5testss_41turn_start_not_routed_via_subagent_helper
FNDA:0,_RNvNtNtCs5ts0mUYpT8u_12novel_server5tauri13event_payload16subagent_payload
FNDA:0,_RNvNtNtCs5ts0mUYpT8u_12novel_server5tauri13event_payload18core_event_payload
FNDA:0,_RNvNtNtCs5ts0mUYpT8u_12novel_server5tauri13event_payload27compaction_progress_payload
FNDA:23,_RNvNtNtCs4uMLwczbohT_12novel_server5tauri13event_payload16subagent_payload
FNDA:23,_RNvNtNtCs4uMLwczbohT_12novel_server5tauri13event_payload18core_event_payload
FNDA:5,_RNvNtNtCs4uMLwczbohT_12novel_server5tauri13event_payload27compaction_progress_payload
FNDA:1,_RNvNtNtNtCs4uMLwczbohT_12novel_server5tauri13event_payload5testss_20stream_chunk_payload
FNDA:1,_RNvNtNtNtCs4uMLwczbohT_12novel_server5tauri13event_payload5testss_21turn_complete_payload
FNDA:1,_RNvNtNtNtCs4uMLwczbohT_12novel_server5tauri13event_payload5testss_22compaction_all_actions
FNDA:1,_RNvNtNtNtCs4uMLwczbohT_12novel_server5tauri13event_payload5testss_23compaction_done_payload
FNDA:1,_RNvNtNtNtCs4uMLwczbohT_12novel_server5tauri13event_payload5testss_24subagent_started_payload
FNDA:1,_RNvNtNtNtCs4uMLwczbohT_12novel_server5tauri13event_payload5testss_24tool_use_started_payload
FNDA:1,_RNvNtNtNtCs4uMLwczbohT_12novel_server5tauri13event_payload5testss_25ask_user_question_payload
FNDA:1,_RNvNtNtNtCs4uMLwczbohT_12novel_server5tauri13event_payload5testss_25subagent_complete_payload
FNDA:1,_RNvNtNtNtCs4uMLwczbohT_12novel_server5tauri13event_payload5testss_25tool_call_request_payload
FNDA:1,_RNvNtNtNtCs4uMLwczbohT_12novel_server5tauri13event_payload5testss_26compaction_started_payload
FNDA:1,_RNvNtNtNtCs4uMLwczbohT_12novel_server5tauri13event_payload5testss_28subagent_tool_update_payload
FNDA:1,_RNvNtNtNtCs4uMLwczbohT_12novel_server5tauri13event_payload5testss_29subagent_stream_delta_payload
FNDA:1,_RNvNtNtNtCs4uMLwczbohT_12novel_server5tauri13event_payload5testss_37tool_input_delta_and_complete_payload
FNDA:1,_RNvNtNtNtCs4uMLwczbohT_12novel_server5tauri13event_payload5testss_38turn_start_error_and_assistant_segment
FNDA:1,_RNvNtNtNtCs4uMLwczbohT_12novel_server5tauri13event_payload5testss_39tool_progress_result_and_session_tokens
FNDA:1,_RNvNtNtNtCs4uMLwczbohT_12novel_server5tauri13event_payload5testss_41turn_start_not_routed_via_subagent_helper
FNF:19
FNH:19
DA:10,5
DA:11,5
DA:13,1
DA:16,1
DA:19,1
DA:22,1
DA:23,1
DA:24,1
DA:25,1
DA:26,1
DA:27,1
DA:28,1
DA:30,1
DA:31,1
DA:32,1
DA:33,1
DA:36,5
DA:38,23
DA:39,23
DA:41,1
DA:42,1
DA:43,1
DA:46,1
DA:47,1
DA:48,1
DA:49,1
DA:50,1
DA:51,1
DA:52,1
DA:55,1
DA:56,1
DA:57,1
DA:58,1
DA:60,1
DA:61,1
DA:62,1
DA:63,1
DA:64,1
DA:65,1
DA:66,1
DA:67,1
DA:68,1
DA:70,1
DA:71,1
DA:72,1
DA:73,1
DA:74,1
DA:75,1
DA:76,1
DA:77,1
DA:78,1
DA:79,1
DA:80,1
DA:82,1
DA:83,1
DA:84,1
DA:85,1
DA:86,1
DA:87,1
DA:88,1
DA:89,1
DA:90,1
DA:91,1
DA:92,1
DA:93,1
DA:94,1
DA:95,1
DA:96,1
DA:97,1
DA:98,1
DA:99,1
DA:100,1
DA:101,1
DA:102,1
DA:103,1
DA:104,1
DA:105,19
DA:107,23
DA:110,23
DA:111,23
DA:112,23
DA:113,23
DA:114,23
DA:115,4
DA:116,19
DA:117,19
DA:118,1
DA:119,1
DA:120,1
DA:121,1
DA:122,1
DA:123,1
DA:124,1
DA:125,1
DA:126,1
DA:128,1
DA:129,1
DA:130,1
DA:131,1
DA:132,1
DA:133,1
DA:134,1
DA:135,1
DA:137,1
DA:138,1
DA:139,1
DA:140,1
DA:141,1
DA:142,1
DA:143,1
DA:144,1
DA:145,1
DA:146,1
DA:148,1
DA:149,1
DA:150,1
DA:151,1
DA:152,1
DA:153,1
DA:154,1
DA:155,1
DA:156,1
DA:157,1
DA:158,1
DA:159,1
DA:160,1
DA:161,1
DA:163,1
DA:164,1
DA:165,1
DA:166,1
DA:168,1
DA:169,1
DA:170,1
DA:171,1
DA:172,1
DA:173,1
DA:174,1
DA:175,1
DA:178,1
DA:179,1
DA:180,1
DA:181,1
DA:182,1
DA:183,1
DA:184,1
DA:185,1
DA:186,1
DA:187,1
DA:188,1
DA:189,1
DA:191,1
DA:192,1
DA:193,1
DA:194,1
DA:196,1
DA:197,1
DA:198,1
DA:199,1
DA:200,1
DA:201,1
DA:202,1
DA:203,1
DA:206,1
DA:207,1
DA:208,1
DA:209,1
DA:210,1
DA:211,1
DA:212,1
DA:215,1
DA:216,1
DA:217,1
DA:218,1
DA:219,1
DA:220,1
DA:221,1
DA:222,1
DA:223,1
DA:224,1
DA:225,1
DA:228,1
DA:229,1
DA:230,1
DA:231,1
DA:232,1
DA:233,1
DA:234,1
DA:235,1
DA:236,1
DA:237,1
DA:238,2
DA:239,2
DA:240,2
DA:241,2
DA:242,2
DA:243,2
DA:244,2
DA:246,1
DA:247,1
DA:248,1
DA:249,1
DA:250,1
DA:251,1
DA:252,1
DA:253,1
DA:254,1
DA:255,5
DA:256,5
DA:257,5
DA:258,5
DA:260,1
DA:261,1
DA:262,1
DA:263,1
DA:264,1
DA:265,1
DA:266,1
DA:267,1
DA:268,1
DA:269,1
DA:271,1
DA:272,1
DA:273,1
DA:274,1
DA:275,1
DA:276,1
DA:277,1
DA:278,1
DA:279,1
DA:280,0
DA:282,23
DA:290,1
DA:291,1
DA:292,1
DA:293,1
DA:294,1
DA:295,1
DA:296,1
DA:297,1
DA:298,1
DA:299,1
DA:300,1
DA:301,1
DA:302,1
DA:305,1
DA:306,1
DA:307,1
DA:308,1
DA:309,1
DA:310,1
DA:311,1
DA:312,1
DA:313,1
DA:314,1
DA:315,1
DA:316,1
DA:317,1
DA:320,1
DA:321,1
DA:322,1
DA:323,1
DA:324,1
DA:325,1
DA:326,1
DA:327,1
DA:328,1
DA:329,1
DA:330,1
DA:331,1
DA:332,1
DA:333,1
DA:336,1
DA:337,1
DA:338,1
DA:339,1
DA:340,1
DA:341,1
DA:342,1
DA:343,1
DA:344,1
DA:347,1
DA:348,1
DA:349,1
DA:350,1
DA:351,1
DA:352,1
DA:353,1
DA:354,1
DA:355,1
DA:356,1
DA:357,1
DA:358,1
DA:359,1
DA:360,1
DA:363,1
DA:364,1
DA:365,1
DA:366,1
DA:367,1
DA:368,1
DA:369,1
DA:370,1
DA:371,1
DA:372,1
DA:373,1
DA:376,1
DA:377,1
DA:378,1
DA:379,1
DA:380,1
DA:381,1
DA:382,1
DA:383,1
DA:384,1
DA:385,1
DA:386,1
DA:387,1
DA:388,1
DA:391,1
DA:392,1
DA:393,1
DA:394,1
DA:395,1
DA:396,1
DA:397,1
DA:398,1
DA:399,1
DA:400,1
DA:401,1
DA:404,1
DA:405,1
DA:406,1
DA:407,1
DA:408,1
DA:409,1
DA:410,1
DA:411,1
DA:412,1
DA:413,1
DA:414,1
DA:415,1
DA:416,1
DA:417,1
DA:418,1
DA:419,1
DA:420,1
DA:423,1
DA:424,1
DA:425,1
DA:426,1
DA:427,1
DA:428,1
DA:429,1
DA:430,1
DA:431,1
DA:432,1
DA:435,1
DA:436,1
DA:437,1
DA:438,1
DA:439,1
DA:440,1
DA:441,1
DA:442,1
DA:444,1
DA:445,1
DA:446,1
DA:447,1
DA:448,1
DA:449,1
DA:450,1
DA:451,1
DA:452,1
DA:453,1
DA:456,1
DA:457,1
DA:458,1
DA:459,1
DA:460,1
DA:461,1
DA:462,1
DA:463,1
DA:464,1
DA:466,1
DA:467,1
DA:468,1
DA:469,1
DA:470,1
DA:471,1
DA:473,1
DA:474,1
DA:475,1
DA:476,1
DA:477,1
DA:478,1
DA:479,1
DA:480,1
DA:481,1
DA:484,1
DA:485,1
DA:486,1
DA:487,1
DA:488,1
DA:490,1
DA:491,1
DA:492,1
DA:493,1
DA:494,1
DA:495,1
DA:497,1
DA:498,1
DA:499,1
DA:500,1
DA:501,1
DA:502,1
DA:503,1
DA:506,1
DA:508,1
DA:509,1
DA:510,1
DA:511,1
DA:512,1
DA:515,1
DA:516,1
DA:517,1
DA:518,1
DA:519,1
DA:520,1
DA:521,1
DA:522,1
DA:523,1
DA:526,1
DA:527,3
DA:528,1
DA:529,1
DA:530,1
DA:531,1
DA:532,1
DA:533,1
DA:534,1
DA:535,1
DA:536,1
DA:537,3
DA:538,3
DA:539,3
DA:541,1
DA:544,1
DA:546,1
DA:547,1
DA:548,1
BRF:0
BRH:0
LF:451
LH:450
end_of_record
SF:G:\orgin_claude_code\claude-code-main\deepseek_novel_agent\crates\novel-server\src\tauri\events.rs
FN:54,_RNvNtNtCs5ts0mUYpT8u_12novel_server5tauri6events15emit_core_event
FN:54,_RNvNtNtCs4uMLwczbohT_12novel_server5tauri6events15emit_core_event
FNDA:0,_RNvNtNtCs5ts0mUYpT8u_12novel_server5tauri6events15emit_core_event
FNDA:0,_RNvNtNtCs4uMLwczbohT_12novel_server5tauri6events15emit_core_event
FNF:1
FNH:0
DA:54,0
DA:55,0
DA:56,0
DA:57,0
DA:58,0
BRF:0
BRH:0
LF:5
LH:0
end_of_record
SF:G:\orgin_claude_code\claude-code-main\deepseek_novel_agent\crates\novel-server\src\tauri\mod.rs
FN:192,_RNvNtCs5ts0mUYpT8u_12novel_server5tauri10list_works
FN:218,_RNvNtCs5ts0mUYpT8u_12novel_server5tauri11create_work
FN:87,_RNvNtCs5ts0mUYpT8u_12novel_server5tauri12approve_tool
FN:50,_RNvNtCs5ts0mUYpT8u_12novel_server5tauri12send_message
FN:329,_RNvNtCs5ts0mUYpT8u_12novel_server5tauri13list_sessions
FN:265,_RNvNtCs5ts0mUYpT8u_12novel_server5tauri14create_session
FN:382,_RNvNtCs5ts0mUYpT8u_12novel_server5tauri14get_api_config
FN:156,_RNvNtCs5ts0mUYpT8u_12novel_server5tauri14get_app_status
FN:213,_RNvNtCs5ts0mUYpT8u_12novel_server5tauri14list_works_cmd
FN:279,_RNvNtCs5ts0mUYpT8u_12novel_server5tauri14resume_session
FN:396,_RNvNtCs5ts0mUYpT8u_12novel_server5tauri14set_api_config
FN:134,_RNvNtCs5ts0mUYpT8u_12novel_server5tauri15answer_question
FN:122,_RNvNtCs5ts0mUYpT8u_12novel_server5tauri17get_fork_messages
FN:349,_RNvNtCs5ts0mUYpT8u_12novel_server5tauri17read_project_file
FN:184,_RNvNtCs5ts0mUYpT8u_12novel_server5tauri18init_novel_project
FN:342,_RNvNtCs5ts0mUYpT8u_12novel_server5tauri18list_project_files
FN:166,_RNvNtCs5ts0mUYpT8u_12novel_server5tauri19set_permission_mode
FN:354,_RNvNtCs5ts0mUYpT8u_12novel_server5tauri19update_session_todo
FN:311,_RNvNtCs5ts0mUYpT8u_12novel_server5tauri20get_session_messages
FN:30,_RNvNtCs5ts0mUYpT8u_12novel_server5tauri21spawn_event_forwarder
FN:296,_RNvNtCs5ts0mUYpT8u_12novel_server5tauri22get_session_transcript
FN:245,_RNvNtCs5ts0mUYpT8u_12novel_server5tauri33switch_project_and_create_session
FN:102,_RNvNtCs5ts0mUYpT8u_12novel_server5tauri9deny_tool
FN:78,_RNvNtCs5ts0mUYpT8u_12novel_server5tauri9interrupt
FN:234,_RNvNtCs5ts0mUYpT8u_12novel_server5tauri9open_work
FN:223,_RNCNCNvNtCs5ts0mUYpT8u_12novel_server5tauri11create_work00B7_
FN:229,_RNCNCNvNtCs5ts0mUYpT8u_12novel_server5tauri11create_work0s_0B7_
FN:96,_RNCNCNvNtCs5ts0mUYpT8u_12novel_server5tauri12approve_tool00B7_
FN:99,_RNCNCNvNtCs5ts0mUYpT8u_12novel_server5tauri12approve_tool0s_0B7_
FN:71,_RNCNCNvNtCs5ts0mUYpT8u_12novel_server5tauri12send_message00B7_
FN:74,_RNCNCNvNtCs5ts0mUYpT8u_12novel_server5tauri12send_message0s_0B7_
FN:335,_RNCNCNvNtCs5ts0mUYpT8u_12novel_server5tauri13list_sessions00B7_
FN:339,_RNCNCNvNtCs5ts0mUYpT8u_12novel_server5tauri13list_sessions0s_0B7_
FN:269,_RNCNCNvNtCs5ts0mUYpT8u_12novel_server5tauri14create_session00B7_
FN:272,_RNCNCNvNtCs5ts0mUYpT8u_12novel_server5tauri14create_session0s_0B7_
FN:385,_RNCNCNvNtCs5ts0mUYpT8u_12novel_server5tauri14get_api_config00B7_
FN:160,_RNCNCNvNtCs5ts0mUYpT8u_12novel_server5tauri14get_app_status00B7_
FN:163,_RNCNCNvNtCs5ts0mUYpT8u_12novel_server5tauri14get_app_status0s_0B7_
FN:286,_RNCNCNvNtCs5ts0mUYpT8u_12novel_server5tauri14resume_session00B7_
FN:289,_RNCNCNvNtCs5ts0mUYpT8u_12novel_server5tauri14resume_session0s_0B7_
FN:403,_RNCNCNvNtCs5ts0mUYpT8u_12novel_server5tauri14set_api_config00B7_
FN:149,_RNCNCNvNtCs5ts0mUYpT8u_12novel_server5tauri15answer_question00B7_
FN:152,_RNCNCNvNtCs5ts0mUYpT8u_12novel_server5tauri15answer_question0s_0B7_
FN:128,_RNCNCNvNtCs5ts0mUYpT8u_12novel_server5tauri17get_fork_messages00B7_
FN:130,_RNCNCNvNtCs5ts0mUYpT8u_12novel_server5tauri17get_fork_messages0s_0B7_
FN:351,_RNCNCNvNtCs5ts0mUYpT8u_12novel_server5tauri17read_project_file00B7_
FN:189,_RNCNCNvNtCs5ts0mUYpT8u_12novel_server5tauri18init_novel_project00B7_
FN:346,_RNCNCNvNtCs5ts0mUYpT8u_12novel_server5tauri18list_project_files00B7_
FN:173,_RNCNCNvNtCs5ts0mUYpT8u_12novel_server5tauri19set_permission_mode00B7_
FN:176,_RNCNCNvNtCs5ts0mUYpT8u_12novel_server5tauri19set_permission_mode0s_0B7_
FN:362,_RNCNCNvNtCs5ts0mUYpT8u_12novel_server5tauri19update_session_todo00B7_
FN:367,_RNCNCNvNtCs5ts0mUYpT8u_12novel_server5tauri19update_session_todo0s0_0B7_
FN:379,_RNCNCNvNtCs5ts0mUYpT8u_12novel_server5tauri19update_session_todo0s1_0B7_
FN:366,_RNCNCNvNtCs5ts0mUYpT8u_12novel_server5tauri19update_session_todo0s_0B7_
FN:321,_RNCNCNvNtCs5ts0mUYpT8u_12novel_server5tauri20get_session_messages00B7_
FN:325,_RNCNCNvNtCs5ts0mUYpT8u_12novel_server5tauri20get_session_messages0s_0B7_
FN:306,_RNCNCNvNtCs5ts0mUYpT8u_12novel_server5tauri22get_session_transcript00B7_
FN:308,_RNCNCNvNtCs5ts0mUYpT8u_12novel_server5tauri22get_session_transcript0s_0B7_
FN:255,_RNCNCNvNtCs5ts0mUYpT8u_12novel_server5tauri33switch_project_and_create_session00B7_
FN:258,_RNCNCNvNtCs5ts0mUYpT8u_12novel_server5tauri33switch_project_and_create_session0s_0B7_
FN:116,_RNCNCNvNtCs5ts0mUYpT8u_12novel_server5tauri9deny_tool00B7_
FN:119,_RNCNCNvNtCs5ts0mUYpT8u_12novel_server5tauri9deny_tool0s_0B7_
FN:237,_RNCNCNvNtCs5ts0mUYpT8u_12novel_server5tauri9open_work00B7_
FN:196,_RNCNvNtCs5ts0mUYpT8u_12novel_server5tauri10list_works0B5_
FN:209,_RNCNvNtCs5ts0mUYpT8u_12novel_server5tauri10list_workss0_0B5_
FN:199,_RNCNvNtCs5ts0mUYpT8u_12novel_server5tauri10list_workss_0B5_
FN:218,_RNCNvNtCs5ts0mUYpT8u_12novel_server5tauri11create_work0B5_
FN:87,_RNCNvNtCs5ts0mUYpT8u_12novel_server5tauri12approve_tool0B5_
FN:54,_RNCNvNtCs5ts0mUYpT8u_12novel_server5tauri12send_message0B5_
FN:331,_RNCNvNtCs5ts0mUYpT8u_12novel_server5tauri13list_sessions0B5_
FN:265,_RNCNvNtCs5ts0mUYpT8u_12novel_server5tauri14create_session0B5_
FN:382,_RNCNvNtCs5ts0mUYpT8u_12novel_server5tauri14get_api_config0B5_
FN:156,_RNCNvNtCs5ts0mUYpT8u_12novel_server5tauri14get_app_status0B5_
FN:213,_RNCNvNtCs5ts0mUYpT8u_12novel_server5tauri14list_works_cmd0B5_
FN:279,_RNCNvNtCs5ts0mUYpT8u_12novel_server5tauri14resume_session0B5_
FN:400,_RNCNvNtCs5ts0mUYpT8u_12novel_server5tauri14set_api_config0B5_
FN:138,_RNCNvNtCs5ts0mUYpT8u_12novel_server5tauri15answer_question0B5_
FN:125,_RNCNvNtCs5ts0mUYpT8u_12novel_server5tauri17get_fork_messages0B5_
FN:349,_RNCNvNtCs5ts0mUYpT8u_12novel_server5tauri17read_project_file0B5_
FN:184,_RNCNvNtCs5ts0mUYpT8u_12novel_server5tauri18init_novel_project0B5_
FN:344,_RNCNvNtCs5ts0mUYpT8u_12novel_server5tauri18list_project_files0B5_
FN:166,_RNCNvNtCs5ts0mUYpT8u_12novel_server5tauri19set_permission_mode0B5_
FN:358,_RNCNvNtCs5ts0mUYpT8u_12novel_server5tauri19update_session_todo0B5_
FN:314,_RNCNvNtCs5ts0mUYpT8u_12novel_server5tauri20get_session_messages0B5_
FN:37,_RNCNvNtCs5ts0mUYpT8u_12novel_server5tauri21spawn_event_forwarder0B5_
FN:299,_RNCNvNtCs5ts0mUYpT8u_12novel_server5tauri22get_session_transcript0B5_
FN:248,_RNCNvNtCs5ts0mUYpT8u_12novel_server5tauri33switch_project_and_create_session0B5_
FN:106,_RNCNvNtCs5ts0mUYpT8u_12novel_server5tauri9deny_tool0B5_
FN:78,_RNCNvNtCs5ts0mUYpT8u_12novel_server5tauri9interrupt0B5_
FN:234,_RNCNvNtCs5ts0mUYpT8u_12novel_server5tauri9open_work0B5_
FN:223,_RNCNCNvNtCs4uMLwczbohT_12novel_server5tauri11create_work00B7_
FN:229,_RNCNCNvNtCs4uMLwczbohT_12novel_server5tauri11create_work0s_0B7_
FN:96,_RNCNCNvNtCs4uMLwczbohT_12novel_server5tauri12approve_tool00B7_
FN:99,_RNCNCNvNtCs4uMLwczbohT_12novel_server5tauri12approve_tool0s_0B7_
FN:71,_RNCNCNvNtCs4uMLwczbohT_12novel_server5tauri12send_message00B7_
FN:74,_RNCNCNvNtCs4uMLwczbohT_12novel_server5tauri12send_message0s_0B7_
FN:335,_RNCNCNvNtCs4uMLwczbohT_12novel_server5tauri13list_sessions00B7_
FN:339,_RNCNCNvNtCs4uMLwczbohT_12novel_server5tauri13list_sessions0s_0B7_
FN:269,_RNCNCNvNtCs4uMLwczbohT_12novel_server5tauri14create_session00B7_
FN:272,_RNCNCNvNtCs4uMLwczbohT_12novel_server5tauri14create_session0s_0B7_
FN:385,_RNCNCNvNtCs4uMLwczbohT_12novel_server5tauri14get_api_config00B7_
FN:160,_RNCNCNvNtCs4uMLwczbohT_12novel_server5tauri14get_app_status00B7_
FN:163,_RNCNCNvNtCs4uMLwczbohT_12novel_server5tauri14get_app_status0s_0B7_
FN:286,_RNCNCNvNtCs4uMLwczbohT_12novel_server5tauri14resume_session00B7_
FN:289,_RNCNCNvNtCs4uMLwczbohT_12novel_server5tauri14resume_session0s_0B7_
FN:403,_RNCNCNvNtCs4uMLwczbohT_12novel_server5tauri14set_api_config00B7_
FN:149,_RNCNCNvNtCs4uMLwczbohT_12novel_server5tauri15answer_question00B7_
FN:152,_RNCNCNvNtCs4uMLwczbohT_12novel_server5tauri15answer_question0s_0B7_
FN:128,_RNCNCNvNtCs4uMLwczbohT_12novel_server5tauri17get_fork_messages00B7_
FN:130,_RNCNCNvNtCs4uMLwczbohT_12novel_server5tauri17get_fork_messages0s_0B7_
FN:351,_RNCNCNvNtCs4uMLwczbohT_12novel_server5tauri17read_project_file00B7_
FN:189,_RNCNCNvNtCs4uMLwczbohT_12novel_server5tauri18init_novel_project00B7_
FN:346,_RNCNCNvNtCs4uMLwczbohT_12novel_server5tauri18list_project_files00B7_
FN:173,_RNCNCNvNtCs4uMLwczbohT_12novel_server5tauri19set_permission_mode00B7_
FN:176,_RNCNCNvNtCs4uMLwczbohT_12novel_server5tauri19set_permission_mode0s_0B7_
FN:362,_RNCNCNvNtCs4uMLwczbohT_12novel_server5tauri19update_session_todo00B7_
FN:367,_RNCNCNvNtCs4uMLwczbohT_12novel_server5tauri19update_session_todo0s0_0B7_
FN:379,_RNCNCNvNtCs4uMLwczbohT_12novel_server5tauri19update_session_todo0s1_0B7_
FN:366,_RNCNCNvNtCs4uMLwczbohT_12novel_server5tauri19update_session_todo0s_0B7_
FN:321,_RNCNCNvNtCs4uMLwczbohT_12novel_server5tauri20get_session_messages00B7_
FN:325,_RNCNCNvNtCs4uMLwczbohT_12novel_server5tauri20get_session_messages0s_0B7_
FN:306,_RNCNCNvNtCs4uMLwczbohT_12novel_server5tauri22get_session_transcript00B7_
FN:308,_RNCNCNvNtCs4uMLwczbohT_12novel_server5tauri22get_session_transcript0s_0B7_
FN:255,_RNCNCNvNtCs4uMLwczbohT_12novel_server5tauri33switch_project_and_create_session00B7_
FN:258,_RNCNCNvNtCs4uMLwczbohT_12novel_server5tauri33switch_project_and_create_session0s_0B7_
FN:116,_RNCNCNvNtCs4uMLwczbohT_12novel_server5tauri9deny_tool00B7_
FN:119,_RNCNCNvNtCs4uMLwczbohT_12novel_server5tauri9deny_tool0s_0B7_
FN:237,_RNCNCNvNtCs4uMLwczbohT_12novel_server5tauri9open_work00B7_
FN:196,_RNCNvNtCs4uMLwczbohT_12novel_server5tauri10list_works0B5_
FN:209,_RNCNvNtCs4uMLwczbohT_12novel_server5tauri10list_workss0_0B5_
FN:199,_RNCNvNtCs4uMLwczbohT_12novel_server5tauri10list_workss_0B5_
FN:218,_RNCNvNtCs4uMLwczbohT_12novel_server5tauri11create_work0B5_
FN:87,_RNCNvNtCs4uMLwczbohT_12novel_server5tauri12approve_tool0B5_
FN:54,_RNCNvNtCs4uMLwczbohT_12novel_server5tauri12send_message0B5_
FN:331,_RNCNvNtCs4uMLwczbohT_12novel_server5tauri13list_sessions0B5_
FN:265,_RNCNvNtCs4uMLwczbohT_12novel_server5tauri14create_session0B5_
FN:382,_RNCNvNtCs4uMLwczbohT_12novel_server5tauri14get_api_config0B5_
FN:156,_RNCNvNtCs4uMLwczbohT_12novel_server5tauri14get_app_status0B5_
FN:213,_RNCNvNtCs4uMLwczbohT_12novel_server5tauri14list_works_cmd0B5_
FN:279,_RNCNvNtCs4uMLwczbohT_12novel_server5tauri14resume_session0B5_
FN:400,_RNCNvNtCs4uMLwczbohT_12novel_server5tauri14set_api_config0B5_
FN:138,_RNCNvNtCs4uMLwczbohT_12novel_server5tauri15answer_question0B5_
FN:125,_RNCNvNtCs4uMLwczbohT_12novel_server5tauri17get_fork_messages0B5_
FN:349,_RNCNvNtCs4uMLwczbohT_12novel_server5tauri17read_project_file0B5_
FN:184,_RNCNvNtCs4uMLwczbohT_12novel_server5tauri18init_novel_project0B5_
FN:344,_RNCNvNtCs4uMLwczbohT_12novel_server5tauri18list_project_files0B5_
FN:166,_RNCNvNtCs4uMLwczbohT_12novel_server5tauri19set_permission_mode0B5_
FN:358,_RNCNvNtCs4uMLwczbohT_12novel_server5tauri19update_session_todo0B5_
FN:314,_RNCNvNtCs4uMLwczbohT_12novel_server5tauri20get_session_messages0B5_
FN:37,_RNCNvNtCs4uMLwczbohT_12novel_server5tauri21spawn_event_forwarder0B5_
FN:299,_RNCNvNtCs4uMLwczbohT_12novel_server5tauri22get_session_transcript0B5_
FN:248,_RNCNvNtCs4uMLwczbohT_12novel_server5tauri33switch_project_and_create_session0B5_
FN:106,_RNCNvNtCs4uMLwczbohT_12novel_server5tauri9deny_tool0B5_
FN:78,_RNCNvNtCs4uMLwczbohT_12novel_server5tauri9interrupt0B5_
FN:234,_RNCNvNtCs4uMLwczbohT_12novel_server5tauri9open_work0B5_
FN:218,_RNvNtCs4uMLwczbohT_12novel_server5tauri11create_work
FN:87,_RNvNtCs4uMLwczbohT_12novel_server5tauri12approve_tool
FN:50,_RNvNtCs4uMLwczbohT_12novel_server5tauri12send_message
FN:329,_RNvNtCs4uMLwczbohT_12novel_server5tauri13list_sessions
FN:265,_RNvNtCs4uMLwczbohT_12novel_server5tauri14create_session
FN:382,_RNvNtCs4uMLwczbohT_12novel_server5tauri14get_api_config
FN:213,_RNvNtCs4uMLwczbohT_12novel_server5tauri14list_works_cmd
FN:279,_RNvNtCs4uMLwczbohT_12novel_server5tauri14resume_session
FN:396,_RNvNtCs4uMLwczbohT_12novel_server5tauri14set_api_config
FN:134,_RNvNtCs4uMLwczbohT_12novel_server5tauri15answer_question
FN:122,_RNvNtCs4uMLwczbohT_12novel_server5tauri17get_fork_messages
FN:349,_RNvNtCs4uMLwczbohT_12novel_server5tauri17read_project_file
FN:184,_RNvNtCs4uMLwczbohT_12novel_server5tauri18init_novel_project
FN:342,_RNvNtCs4uMLwczbohT_12novel_server5tauri18list_project_files
FN:166,_RNvNtCs4uMLwczbohT_12novel_server5tauri19set_permission_mode
FN:354,_RNvNtCs4uMLwczbohT_12novel_server5tauri19update_session_todo
FN:311,_RNvNtCs4uMLwczbohT_12novel_server5tauri20get_session_messages
FN:296,_RNvNtCs4uMLwczbohT_12novel_server5tauri22get_session_transcript
FN:102,_RNvNtCs4uMLwczbohT_12novel_server5tauri9deny_tool
FN:78,_RNvNtCs4uMLwczbohT_12novel_server5tauri9interrupt
FN:234,_RNvNtCs4uMLwczbohT_12novel_server5tauri9open_work
FN:192,_RNvNtCs4uMLwczbohT_12novel_server5tauri10list_works
FN:156,_RNvNtCs4uMLwczbohT_12novel_server5tauri14get_app_status
FN:30,_RNvNtCs4uMLwczbohT_12novel_server5tauri21spawn_event_forwarder
FN:245,_RNvNtCs4uMLwczbohT_12novel_server5tauri33switch_project_and_create_session
FN:409,_RNvNtNtCs4uMLwczbohT_12novel_server5tauri5testss_40parse_agent_type_accepts_general_purpose
FNDA:0,_RNvNtCs5ts0mUYpT8u_12novel_server5tauri10list_works
FNDA:0,_RNvNtCs5ts0mUYpT8u_12novel_server5tauri11create_work
FNDA:0,_RNvNtCs5ts0mUYpT8u_12novel_server5tauri12approve_tool
FNDA:0,_RNvNtCs5ts0mUYpT8u_12novel_server5tauri12send_message
FNDA:0,_RNvNtCs5ts0mUYpT8u_12novel_server5tauri13list_sessions
FNDA:0,_RNvNtCs5ts0mUYpT8u_12novel_server5tauri14create_session
FNDA:0,_RNvNtCs5ts0mUYpT8u_12novel_server5tauri14get_api_config
FNDA:0,_RNvNtCs5ts0mUYpT8u_12novel_server5tauri14get_app_status
FNDA:0,_RNvNtCs5ts0mUYpT8u_12novel_server5tauri14list_works_cmd
FNDA:0,_RNvNtCs5ts0mUYpT8u_12novel_server5tauri14resume_session
FNDA:0,_RNvNtCs5ts0mUYpT8u_12novel_server5tauri14set_api_config
FNDA:0,_RNvNtCs5ts0mUYpT8u_12novel_server5tauri15answer_question
FNDA:0,_RNvNtCs5ts0mUYpT8u_12novel_server5tauri17get_fork_messages
FNDA:0,_RNvNtCs5ts0mUYpT8u_12novel_server5tauri17read_project_file
FNDA:0,_RNvNtCs5ts0mUYpT8u_12novel_server5tauri18init_novel_project
FNDA:0,_RNvNtCs5ts0mUYpT8u_12novel_server5tauri18list_project_files
FNDA:0,_RNvNtCs5ts0mUYpT8u_12novel_server5tauri19set_permission_mode
FNDA:0,_RNvNtCs5ts0mUYpT8u_12novel_server5tauri19update_session_todo
FNDA:0,_RNvNtCs5ts0mUYpT8u_12novel_server5tauri20get_session_messages
FNDA:0,_RNvNtCs5ts0mUYpT8u_12novel_server5tauri21spawn_event_forwarder
FNDA:0,_RNvNtCs5ts0mUYpT8u_12novel_server5tauri22get_session_transcript
FNDA:0,_RNvNtCs5ts0mUYpT8u_12novel_server5tauri33switch_project_and_create_session
FNDA:0,_RNvNtCs5ts0mUYpT8u_12novel_server5tauri9deny_tool
FNDA:0,_RNvNtCs5ts0mUYpT8u_12novel_server5tauri9interrupt
FNDA:0,_RNvNtCs5ts0mUYpT8u_12novel_server5tauri9open_work
FNDA:0,_RNCNCNvNtCs5ts0mUYpT8u_12novel_server5tauri11create_work00B7_
FNDA:0,_RNCNCNvNtCs5ts0mUYpT8u_12novel_server5tauri11create_work0s_0B7_
FNDA:0,_RNCNCNvNtCs5ts0mUYpT8u_12novel_server5tauri12approve_tool00B7_
FNDA:0,_RNCNCNvNtCs5ts0mUYpT8u_12novel_server5tauri12approve_tool0s_0B7_
FNDA:0,_RNCNCNvNtCs5ts0mUYpT8u_12novel_server5tauri12send_message00B7_
FNDA:0,_RNCNCNvNtCs5ts0mUYpT8u_12novel_server5tauri12send_message0s_0B7_
FNDA:0,_RNCNCNvNtCs5ts0mUYpT8u_12novel_server5tauri13list_sessions00B7_
FNDA:0,_RNCNCNvNtCs5ts0mUYpT8u_12novel_server5tauri13list_sessions0s_0B7_
FNDA:0,_RNCNCNvNtCs5ts0mUYpT8u_12novel_server5tauri14create_session00B7_
FNDA:0,_RNCNCNvNtCs5ts0mUYpT8u_12novel_server5tauri14create_session0s_0B7_
FNDA:0,_RNCNCNvNtCs5ts0mUYpT8u_12novel_server5tauri14get_api_config00B7_
FNDA:0,_RNCNCNvNtCs5ts0mUYpT8u_12novel_server5tauri14get_app_status00B7_
FNDA:0,_RNCNCNvNtCs5ts0mUYpT8u_12novel_server5tauri14get_app_status0s_0B7_
FNDA:0,_RNCNCNvNtCs5ts0mUYpT8u_12novel_server5tauri14resume_session00B7_
FNDA:0,_RNCNCNvNtCs5ts0mUYpT8u_12novel_server5tauri14resume_session0s_0B7_
FNDA:0,_RNCNCNvNtCs5ts0mUYpT8u_12novel_server5tauri14set_api_config00B7_
FNDA:0,_RNCNCNvNtCs5ts0mUYpT8u_12novel_server5tauri15answer_question00B7_
FNDA:0,_RNCNCNvNtCs5ts0mUYpT8u_12novel_server5tauri15answer_question0s_0B7_
FNDA:0,_RNCNCNvNtCs5ts0mUYpT8u_12novel_server5tauri17get_fork_messages00B7_
FNDA:0,_RNCNCNvNtCs5ts0mUYpT8u_12novel_server5tauri17get_fork_messages0s_0B7_
FNDA:0,_RNCNCNvNtCs5ts0mUYpT8u_12novel_server5tauri17read_project_file00B7_
FNDA:0,_RNCNCNvNtCs5ts0mUYpT8u_12novel_server5tauri18init_novel_project00B7_
FNDA:0,_RNCNCNvNtCs5ts0mUYpT8u_12novel_server5tauri18list_project_files00B7_
FNDA:0,_RNCNCNvNtCs5ts0mUYpT8u_12novel_server5tauri19set_permission_mode00B7_
FNDA:0,_RNCNCNvNtCs5ts0mUYpT8u_12novel_server5tauri19set_permission_mode0s_0B7_
FNDA:0,_RNCNCNvNtCs5ts0mUYpT8u_12novel_server5tauri19update_session_todo00B7_
FNDA:0,_RNCNCNvNtCs5ts0mUYpT8u_12novel_server5tauri19update_session_todo0s0_0B7_
FNDA:0,_RNCNCNvNtCs5ts0mUYpT8u_12novel_server5tauri19update_session_todo0s1_0B7_
FNDA:0,_RNCNCNvNtCs5ts0mUYpT8u_12novel_server5tauri19update_session_todo0s_0B7_
FNDA:0,_RNCNCNvNtCs5ts0mUYpT8u_12novel_server5tauri20get_session_messages00B7_
FNDA:0,_RNCNCNvNtCs5ts0mUYpT8u_12novel_server5tauri20get_session_messages0s_0B7_
FNDA:0,_RNCNCNvNtCs5ts0mUYpT8u_12novel_server5tauri22get_session_transcript00B7_
FNDA:0,_RNCNCNvNtCs5ts0mUYpT8u_12novel_server5tauri22get_session_transcript0s_0B7_
FNDA:0,_RNCNCNvNtCs5ts0mUYpT8u_12novel_server5tauri33switch_project_and_create_session00B7_
FNDA:0,_RNCNCNvNtCs5ts0mUYpT8u_12novel_server5tauri33switch_project_and_create_session0s_0B7_
FNDA:0,_RNCNCNvNtCs5ts0mUYpT8u_12novel_server5tauri9deny_tool00B7_
FNDA:0,_RNCNCNvNtCs5ts0mUYpT8u_12novel_server5tauri9deny_tool0s_0B7_
FNDA:0,_RNCNCNvNtCs5ts0mUYpT8u_12novel_server5tauri9open_work00B7_
FNDA:0,_RNCNvNtCs5ts0mUYpT8u_12novel_server5tauri10list_works0B5_
FNDA:0,_RNCNvNtCs5ts0mUYpT8u_12novel_server5tauri10list_workss0_0B5_
FNDA:0,_RNCNvNtCs5ts0mUYpT8u_12novel_server5tauri10list_workss_0B5_
FNDA:0,_RNCNvNtCs5ts0mUYpT8u_12novel_server5tauri11create_work0B5_
FNDA:0,_RNCNvNtCs5ts0mUYpT8u_12novel_server5tauri12approve_tool0B5_
FNDA:0,_RNCNvNtCs5ts0mUYpT8u_12novel_server5tauri12send_message0B5_
FNDA:0,_RNCNvNtCs5ts0mUYpT8u_12novel_server5tauri13list_sessions0B5_
FNDA:0,_RNCNvNtCs5ts0mUYpT8u_12novel_server5tauri14create_session0B5_
FNDA:0,_RNCNvNtCs5ts0mUYpT8u_12novel_server5tauri14get_api_config0B5_
FNDA:0,_RNCNvNtCs5ts0mUYpT8u_12novel_server5tauri14get_app_status0B5_
FNDA:0,_RNCNvNtCs5ts0mUYpT8u_12novel_server5tauri14list_works_cmd0B5_
FNDA:0,_RNCNvNtCs5ts0mUYpT8u_12novel_server5tauri14resume_session0B5_
FNDA:0,_RNCNvNtCs5ts0mUYpT8u_12novel_server5tauri14set_api_config0B5_
FNDA:0,_RNCNvNtCs5ts0mUYpT8u_12novel_server5tauri15answer_question0B5_
FNDA:0,_RNCNvNtCs5ts0mUYpT8u_12novel_server5tauri17get_fork_messages0B5_
FNDA:0,_RNCNvNtCs5ts0mUYpT8u_12novel_server5tauri17read_project_file0B5_
FNDA:0,_RNCNvNtCs5ts0mUYpT8u_12novel_server5tauri18init_novel_project0B5_
FNDA:0,_RNCNvNtCs5ts0mUYpT8u_12novel_server5tauri18list_project_files0B5_
FNDA:0,_RNCNvNtCs5ts0mUYpT8u_12novel_server5tauri19set_permission_mode0B5_
FNDA:0,_RNCNvNtCs5ts0mUYpT8u_12novel_server5tauri19update_session_todo0B5_
FNDA:0,_RNCNvNtCs5ts0mUYpT8u_12novel_server5tauri20get_session_messages0B5_
FNDA:0,_RNCNvNtCs5ts0mUYpT8u_12novel_server5tauri21spawn_event_forwarder0B5_
FNDA:0,_RNCNvNtCs5ts0mUYpT8u_12novel_server5tauri22get_session_transcript0B5_
FNDA:0,_RNCNvNtCs5ts0mUYpT8u_12novel_server5tauri33switch_project_and_create_session0B5_
FNDA:0,_RNCNvNtCs5ts0mUYpT8u_12novel_server5tauri9deny_tool0B5_
FNDA:0,_RNCNvNtCs5ts0mUYpT8u_12novel_server5tauri9interrupt0B5_
FNDA:0,_RNCNvNtCs5ts0mUYpT8u_12novel_server5tauri9open_work0B5_
FNDA:0,_RNCNCNvNtCs4uMLwczbohT_12novel_server5tauri11create_work00B7_
FNDA:0,_RNCNCNvNtCs4uMLwczbohT_12novel_server5tauri11create_work0s_0B7_
FNDA:0,_RNCNCNvNtCs4uMLwczbohT_12novel_server5tauri12approve_tool00B7_
FNDA:0,_RNCNCNvNtCs4uMLwczbohT_12novel_server5tauri12approve_tool0s_0B7_
FNDA:0,_RNCNCNvNtCs4uMLwczbohT_12novel_server5tauri12send_message00B7_
FNDA:0,_RNCNCNvNtCs4uMLwczbohT_12novel_server5tauri12send_message0s_0B7_
FNDA:0,_RNCNCNvNtCs4uMLwczbohT_12novel_server5tauri13list_sessions00B7_
FNDA:0,_RNCNCNvNtCs4uMLwczbohT_12novel_server5tauri13list_sessions0s_0B7_
FNDA:0,_RNCNCNvNtCs4uMLwczbohT_12novel_server5tauri14create_session00B7_
FNDA:0,_RNCNCNvNtCs4uMLwczbohT_12novel_server5tauri14create_session0s_0B7_
FNDA:0,_RNCNCNvNtCs4uMLwczbohT_12novel_server5tauri14get_api_config00B7_
FNDA:0,_RNCNCNvNtCs4uMLwczbohT_12novel_server5tauri14get_app_status00B7_
FNDA:0,_RNCNCNvNtCs4uMLwczbohT_12novel_server5tauri14get_app_status0s_0B7_
FNDA:0,_RNCNCNvNtCs4uMLwczbohT_12novel_server5tauri14resume_session00B7_
FNDA:0,_RNCNCNvNtCs4uMLwczbohT_12novel_server5tauri14resume_session0s_0B7_
FNDA:0,_RNCNCNvNtCs4uMLwczbohT_12novel_server5tauri14set_api_config00B7_
FNDA:0,_RNCNCNvNtCs4uMLwczbohT_12novel_server5tauri15answer_question00B7_
FNDA:0,_RNCNCNvNtCs4uMLwczbohT_12novel_server5tauri15answer_question0s_0B7_
FNDA:0,_RNCNCNvNtCs4uMLwczbohT_12novel_server5tauri17get_fork_messages00B7_
FNDA:0,_RNCNCNvNtCs4uMLwczbohT_12novel_server5tauri17get_fork_messages0s_0B7_
FNDA:0,_RNCNCNvNtCs4uMLwczbohT_12novel_server5tauri17read_project_file00B7_
FNDA:0,_RNCNCNvNtCs4uMLwczbohT_12novel_server5tauri18init_novel_project00B7_
FNDA:0,_RNCNCNvNtCs4uMLwczbohT_12novel_server5tauri18list_project_files00B7_
FNDA:0,_RNCNCNvNtCs4uMLwczbohT_12novel_server5tauri19set_permission_mode00B7_
FNDA:0,_RNCNCNvNtCs4uMLwczbohT_12novel_server5tauri19set_permission_mode0s_0B7_
FNDA:0,_RNCNCNvNtCs4uMLwczbohT_12novel_server5tauri19update_session_todo00B7_
FNDA:0,_RNCNCNvNtCs4uMLwczbohT_12novel_server5tauri19update_session_todo0s0_0B7_
FNDA:0,_RNCNCNvNtCs4uMLwczbohT_12novel_server5tauri19update_session_todo0s1_0B7_
FNDA:0,_RNCNCNvNtCs4uMLwczbohT_12novel_server5tauri19update_session_todo0s_0B7_
FNDA:0,_RNCNCNvNtCs4uMLwczbohT_12novel_server5tauri20get_session_messages00B7_
FNDA:0,_RNCNCNvNtCs4uMLwczbohT_12novel_server5tauri20get_session_messages0s_0B7_
FNDA:0,_RNCNCNvNtCs4uMLwczbohT_12novel_server5tauri22get_session_transcript00B7_
FNDA:0,_RNCNCNvNtCs4uMLwczbohT_12novel_server5tauri22get_session_transcript0s_0B7_
FNDA:0,_RNCNCNvNtCs4uMLwczbohT_12novel_server5tauri33switch_project_and_create_session00B7_
FNDA:0,_RNCNCNvNtCs4uMLwczbohT_12novel_server5tauri33switch_project_and_create_session0s_0B7_
FNDA:0,_RNCNCNvNtCs4uMLwczbohT_12novel_server5tauri9deny_tool00B7_
FNDA:0,_RNCNCNvNtCs4uMLwczbohT_12novel_server5tauri9deny_tool0s_0B7_
FNDA:0,_RNCNCNvNtCs4uMLwczbohT_12novel_server5tauri9open_work00B7_
FNDA:0,_RNCNvNtCs4uMLwczbohT_12novel_server5tauri10list_works0B5_
FNDA:0,_RNCNvNtCs4uMLwczbohT_12novel_server5tauri10list_workss0_0B5_
FNDA:0,_RNCNvNtCs4uMLwczbohT_12novel_server5tauri10list_workss_0B5_
FNDA:0,_RNCNvNtCs4uMLwczbohT_12novel_server5tauri11create_work0B5_
FNDA:0,_RNCNvNtCs4uMLwczbohT_12novel_server5tauri12approve_tool0B5_
FNDA:0,_RNCNvNtCs4uMLwczbohT_12novel_server5tauri12send_message0B5_
FNDA:0,_RNCNvNtCs4uMLwczbohT_12novel_server5tauri13list_sessions0B5_
FNDA:0,_RNCNvNtCs4uMLwczbohT_12novel_server5tauri14create_session0B5_
FNDA:0,_RNCNvNtCs4uMLwczbohT_12novel_server5tauri14get_api_config0B5_
FNDA:0,_RNCNvNtCs4uMLwczbohT_12novel_server5tauri14get_app_status0B5_
FNDA:0,_RNCNvNtCs4uMLwczbohT_12novel_server5tauri14list_works_cmd0B5_
FNDA:0,_RNCNvNtCs4uMLwczbohT_12novel_server5tauri14resume_session0B5_
FNDA:0,_RNCNvNtCs4uMLwczbohT_12novel_server5tauri14set_api_config0B5_
FNDA:0,_RNCNvNtCs4uMLwczbohT_12novel_server5tauri15answer_question0B5_
FNDA:0,_RNCNvNtCs4uMLwczbohT_12novel_server5tauri17get_fork_messages0B5_
FNDA:0,_RNCNvNtCs4uMLwczbohT_12novel_server5tauri17read_project_file0B5_
FNDA:0,_RNCNvNtCs4uMLwczbohT_12novel_server5tauri18init_novel_project0B5_
FNDA:0,_RNCNvNtCs4uMLwczbohT_12novel_server5tauri18list_project_files0B5_
FNDA:0,_RNCNvNtCs4uMLwczbohT_12novel_server5tauri19set_permission_mode0B5_
FNDA:0,_RNCNvNtCs4uMLwczbohT_12novel_server5tauri19update_session_todo0B5_
FNDA:0,_RNCNvNtCs4uMLwczbohT_12novel_server5tauri20get_session_messages0B5_
FNDA:0,_RNCNvNtCs4uMLwczbohT_12novel_server5tauri21spawn_event_forwarder0B5_
FNDA:0,_RNCNvNtCs4uMLwczbohT_12novel_server5tauri22get_session_transcript0B5_
FNDA:0,_RNCNvNtCs4uMLwczbohT_12novel_server5tauri33switch_project_and_create_session0B5_
FNDA:0,_RNCNvNtCs4uMLwczbohT_12novel_server5tauri9deny_tool0B5_
FNDA:0,_RNCNvNtCs4uMLwczbohT_12novel_server5tauri9interrupt0B5_
FNDA:0,_RNCNvNtCs4uMLwczbohT_12novel_server5tauri9open_work0B5_
FNDA:0,_RNvNtCs4uMLwczbohT_12novel_server5tauri11create_work
FNDA:0,_RNvNtCs4uMLwczbohT_12novel_server5tauri12approve_tool
FNDA:0,_RNvNtCs4uMLwczbohT_12novel_server5tauri12send_message
FNDA:0,_RNvNtCs4uMLwczbohT_12novel_server5tauri13list_sessions
FNDA:0,_RNvNtCs4uMLwczbohT_12novel_server5tauri14create_session
FNDA:0,_RNvNtCs4uMLwczbohT_12novel_server5tauri14get_api_config
FNDA:0,_RNvNtCs4uMLwczbohT_12novel_server5tauri14list_works_cmd
